
target/riscv64gc-unknown-none-elf/debug/00hello_world:	file format elf64-littleriscv

Disassembly of section .text:

0000000000013508 <_ZN13rcore_console6_print17h4e2616533cd6b812E>:
; pub fn _print(args: fmt::Arguments) {
   13508: 39 71        	addi	sp, sp, -64
;     Logger.write_fmt(args).unwrap();
   1350a: 06 fc        	sd	ra, 56(sp)
   1350c: 0c 75        	ld	a1, 40(a0)
   1350e: 2e f8        	sd	a1, 48(sp)
   13510: 0c 71        	ld	a1, 32(a0)
   13512: 2e f4        	sd	a1, 40(sp)
   13514: 0c 6d        	ld	a1, 24(a0)
   13516: 2e f0        	sd	a1, 32(sp)
   13518: 0c 69        	ld	a1, 16(a0)
   1351a: 2e ec        	sd	a1, 24(sp)
   1351c: 0c 65        	ld	a1, 8(a0)
   1351e: 2e e8        	sd	a1, 16(sp)
   13520: 08 61        	ld	a0, 0(a0)
   13522: 2a e4        	sd	a0, 8(sp)
   13524: 13 05 71 00  	addi	a0, sp, 7
   13528: 2c 00        	addi	a1, sp, 8
   1352a: 97 10 00 00  	auipc	ra, 1
   1352e: e7 80 c0 59  	jalr	1436(ra)

0000000000013532 <.Lpcrel_hi0>:
   13532: 97 d5 ff ff  	auipc	a1, 1048573
   13536: 93 85 e5 c9  	addi	a1, a1, -866
   1353a: 97 30 00 00  	auipc	ra, 3
   1353e: e7 80 e0 d0  	jalr	-754(ra)
; }
   13542: e2 70        	ld	ra, 56(sp)
   13544: 21 61        	addi	sp, sp, 64
   13546: 82 80        	ret

0000000000013548 <_ZN4core3fmt9Arguments9new_const17h75085023ae4aa211E>:
   13548: 19 71        	addi	sp, sp, -128
   1354a: 86 fc        	sd	ra, 120(sp)
   1354c: 32 e8        	sd	a2, 16(sp)
   1354e: 2e ec        	sd	a1, 24(sp)
   13550: 2a f0        	sd	a0, 32(sp)
   13552: ae f4        	sd	a1, 104(sp)
   13554: b2 f8        	sd	a2, 112(sp)
   13556: 05 45        	li	a0, 1
   13558: 63 67 c5 02  	bltu	a0, a2, 0x13586 <.Lpcrel_hi1>
   1355c: 09 a0        	j	0x1355e <_ZN4core3fmt9Arguments9new_const17h75085023ae4aa211E+0x16>
   1355e: 82 75        	ld	a1, 32(sp)
   13560: 42 66        	ld	a2, 16(sp)
   13562: e2 66        	ld	a3, 24(sp)
   13564: 01 45        	li	a0, 0
   13566: aa ec        	sd	a0, 88(sp)
   13568: 94 e1        	sd	a3, 0(a1)
   1356a: 90 e5        	sd	a2, 8(a1)
   1356c: e6 66        	ld	a3, 88(sp)
   1356e: 06 76        	ld	a2, 96(sp)
   13570: 94 f1        	sd	a3, 32(a1)
   13572: 90 f5        	sd	a2, 40(a1)

0000000000013574 <.Lpcrel_hi0>:
   13574: 17 d6 ff ff  	auipc	a2, 1048573
   13578: 13 06 46 c7  	addi	a2, a2, -908
   1357c: 90 e9        	sd	a2, 16(a1)
   1357e: 88 ed        	sd	a0, 24(a1)
   13580: e6 70        	ld	ra, 120(sp)
   13582: 09 61        	addi	sp, sp, 128
   13584: 82 80        	ret

0000000000013586 <.Lpcrel_hi1>:
   13586: 17 d5 ff ff  	auipc	a0, 1048573
   1358a: 93 05 25 c7  	addi	a1, a0, -910
   1358e: 28 10        	addi	a0, sp, 40
   13590: 2a e4        	sd	a0, 8(sp)
   13592: 05 46        	li	a2, 1
   13594: 97 00 00 00  	auipc	ra, 0
   13598: e7 80 40 fb  	jalr	-76(ra)
   1359c: 22 65        	ld	a0, 8(sp)

000000000001359e <.Lpcrel_hi2>:
   1359e: 97 d5 ff ff  	auipc	a1, 1048573
   135a2: 93 85 a5 cb  	addi	a1, a1, -838
   135a6: 97 50 00 00  	auipc	ra, 5
   135aa: e7 80 e0 90  	jalr	-1778(ra)
   135ae: 00 00        	unimp

00000000000135b0 <main>:
; fn main() -> i32 {
   135b0: 19 71        	addi	sp, sp, -128
;     println!("Hello, world!");
   135b2: 86 fc        	sd	ra, 120(sp)

00000000000135b4 <.Lpcrel_hi0>:
   135b4: 17 d5 ff ff  	auipc	a0, 1048573
   135b8: 93 05 c5 cc  	addi	a1, a0, -820
   135bc: 28 08        	addi	a0, sp, 24
   135be: 2a e0        	sd	a0, 0(sp)
   135c0: 05 46        	li	a2, 1
   135c2: 32 e4        	sd	a2, 8(sp)
   135c4: 97 00 00 00  	auipc	ra, 0
   135c8: e7 80 40 f8  	jalr	-124(ra)
   135cc: 02 65        	ld	a0, 0(sp)
   135ce: 97 00 00 00  	auipc	ra, 0
   135d2: e7 80 a0 f3  	jalr	-198(ra)
   135d6: 22 66        	ld	a2, 8(sp)

00000000000135d8 <.Lpcrel_hi1>:
   135d8: 17 d5 ff ff  	auipc	a0, 1048573
   135dc: 93 05 05 cc  	addi	a1, a0, -832
   135e0: a8 00        	addi	a0, sp, 72
   135e2: 2a e8        	sd	a0, 16(sp)
   135e4: 97 00 00 00  	auipc	ra, 0
   135e8: e7 80 40 f6  	jalr	-156(ra)
   135ec: 42 65        	ld	a0, 16(sp)
   135ee: 97 00 00 00  	auipc	ra, 0
   135f2: e7 80 a0 f1  	jalr	-230(ra)
   135f6: 01 45        	li	a0, 0
; }
   135f8: e6 70        	ld	ra, 120(sp)
   135fa: 09 61        	addi	sp, sp, 128
   135fc: 82 80        	ret

00000000000135fe <_ZN8user_lib4heap4init17h0fd30738cacbb105E>:
; pub fn init() {
   135fe: 1d 71        	addi	sp, sp, -96
   13600: 86 ec        	sd	ra, 88(sp)
   13602: 21 45        	li	a0, 8
   13604: 2a f4        	sd	a0, 40(sp)
   13606: 0d 45        	li	a0, 3
   13608: 2a f8        	sd	a0, 48(sp)
   1360a: 03 65 01 03  	lwu	a0, 48(sp)
   1360e: 2a e4        	sd	a0, 8(sp)

0000000000013610 <.Lpcrel_hi0>:
   13610: 17 75 00 00  	auipc	a0, 7
   13614: 13 05 85 cc  	addi	a0, a0, -824
   13618: 2a e8        	sd	a0, 16(sp)
   1361a: aa e4        	sd	a0, 72(sp)
   1361c: 91 65        	lui	a1, 4
   1361e: 2e ec        	sd	a1, 24(sp)
   13620: ae e8        	sd	a1, 80(sp)
;             NonNull::new(MEMORY.as_mut_ptr()).unwrap(),
   13622: 97 00 00 00  	auipc	ra, 0
   13626: e7 80 a0 43  	jalr	1082(ra)

000000000001362a <.Lpcrel_hi1>:
   1362a: 97 d5 ff ff  	auipc	a1, 1048573
   1362e: 93 85 e5 cb  	addi	a1, a1, -834
   13632: 97 10 00 00  	auipc	ra, 1
   13636: e7 80 c0 33  	jalr	828(ra)
   1363a: a2 65        	ld	a1, 8(sp)
   1363c: 2a 86        	mv	a2, a0

000000000001363e <.Lpcrel_hi2>:
;         HEAP.init(
   1363e: 17 b5 00 00  	auipc	a0, 11
   13642: 13 05 a5 c9  	addi	a0, a0, -870
   13646: 2a f0        	sd	a0, 32(sp)
   13648: 97 10 00 00  	auipc	ra, 1
   1364c: e7 80 00 98  	jalr	-1664(ra)
   13650: 42 65        	ld	a0, 16(sp)
   13652: e2 65        	ld	a1, 24(sp)
   13654: 2a fc        	sd	a0, 56(sp)
   13656: ae e0        	sd	a1, 64(sp)
;         HEAP.transfer(NonNull::new_unchecked(MEMORY.as_mut_ptr()), MEMORY.len());
   13658: 97 00 00 00  	auipc	ra, 0
   1365c: e7 80 80 3f  	jalr	1016(ra)
   13660: 62 66        	ld	a2, 24(sp)
   13662: aa 85        	mv	a1, a0
   13664: 02 75        	ld	a0, 32(sp)
   13666: 97 10 00 00  	auipc	ra, 1
   1366a: e7 80 40 b6  	jalr	-1180(ra)
; }
   1366e: e6 60        	ld	ra, 88(sp)
   13670: 25 61        	addi	sp, sp, 96
   13672: 82 80        	ret

0000000000013674 <_ZN4core3fmt3num52_$LT$impl$u20$core..fmt..Debug$u20$for$u20$usize$GT$3fmt17h85a28785feeaaabeE>:
   13674: 79 71        	addi	sp, sp, -48
   13676: 06 f4        	sd	ra, 40(sp)
   13678: 2e e0        	sd	a1, 0(sp)
   1367a: 2a e4        	sd	a0, 8(sp)
   1367c: 2a ec        	sd	a0, 24(sp)
   1367e: 2e f0        	sd	a1, 32(sp)
   13680: 03 c5 45 03  	lbu	a0, 52(a1)
   13684: 41 89        	andi	a0, a0, 16
   13686: 09 e9        	bnez	a0, 0x13698 <_ZN4core3fmt3num52_$LT$impl$u20$core..fmt..Debug$u20$for$u20$usize$GT$3fmt17h85a28785feeaaabeE+0x24>
   13688: 09 a0        	j	0x1368a <_ZN4core3fmt3num52_$LT$impl$u20$core..fmt..Debug$u20$for$u20$usize$GT$3fmt17h85a28785feeaaabeE+0x16>
   1368a: 02 65        	ld	a0, 0(sp)
   1368c: 03 45 45 03  	lbu	a0, 52(a0)
   13690: 13 75 05 02  	andi	a0, a0, 32
   13694: 19 c9        	beqz	a0, 0x136aa <_ZN4core3fmt3num52_$LT$impl$u20$core..fmt..Debug$u20$for$u20$usize$GT$3fmt17h85a28785feeaaabeE+0x36>
   13696: 1d a0        	j	0x136bc <_ZN4core3fmt3num52_$LT$impl$u20$core..fmt..Debug$u20$for$u20$usize$GT$3fmt17h85a28785feeaaabeE+0x48>
   13698: 82 65        	ld	a1, 0(sp)
   1369a: 22 65        	ld	a0, 8(sp)
   1369c: 97 50 00 00  	auipc	ra, 5
   136a0: e7 80 80 6c  	jalr	1736(ra)
   136a4: a3 0b a1 00  	sb	a0, 23(sp)
   136a8: 1d a0        	j	0x136ce <_ZN4core3fmt3num52_$LT$impl$u20$core..fmt..Debug$u20$for$u20$usize$GT$3fmt17h85a28785feeaaabeE+0x5a>
   136aa: 82 65        	ld	a1, 0(sp)
   136ac: 22 65        	ld	a0, 8(sp)
   136ae: 97 60 00 00  	auipc	ra, 6
   136b2: e7 80 e0 91  	jalr	-1762(ra)
   136b6: a3 0b a1 00  	sb	a0, 23(sp)
   136ba: 11 a8        	j	0x136ce <_ZN4core3fmt3num52_$LT$impl$u20$core..fmt..Debug$u20$for$u20$usize$GT$3fmt17h85a28785feeaaabeE+0x5a>
   136bc: 82 65        	ld	a1, 0(sp)
   136be: 22 65        	ld	a0, 8(sp)
   136c0: 97 50 00 00  	auipc	ra, 5
   136c4: e7 80 60 71  	jalr	1814(ra)
   136c8: a3 0b a1 00  	sb	a0, 23(sp)
   136cc: 09 a0        	j	0x136ce <_ZN4core3fmt3num52_$LT$impl$u20$core..fmt..Debug$u20$for$u20$usize$GT$3fmt17h85a28785feeaaabeE+0x5a>
   136ce: 03 45 71 01  	lbu	a0, 23(sp)
   136d2: a2 70        	ld	ra, 40(sp)
   136d4: 45 61        	addi	sp, sp, 48
   136d6: 82 80        	ret

00000000000136d8 <_ZN4core3ops8function6FnOnce9call_once17hafd2d54e56716608E>:
   136d8: 01 11        	addi	sp, sp, -32
   136da: 06 ec        	sd	ra, 24(sp)
   136dc: 2a e0        	sd	a0, 0(sp)
   136de: 2e e4        	sd	a1, 8(sp)
   136e0: 02 65        	ld	a0, 0(sp)
   136e2: a2 65        	ld	a1, 8(sp)
   136e4: 97 00 00 00  	auipc	ra, 0
   136e8: e7 80 a0 39  	jalr	922(ra)
   136ec: e2 60        	ld	ra, 24(sp)
   136ee: 05 61        	addi	sp, sp, 32
   136f0: 82 80        	ret

00000000000136f2 <_ZN4core3ptr30drop_in_place$LT$$RF$usize$GT$17h649eba84f0fa4fdcE>:
   136f2: 41 11        	addi	sp, sp, -16
   136f4: 2a e4        	sd	a0, 8(sp)
   136f6: 41 01        	addi	sp, sp, 16
   136f8: 82 80        	ret

00000000000136fa <_ZN4core3ptr38drop_in_place$LT$user_lib..Console$GT$17h90d7c177e56d6f64E>:
   136fa: 41 11        	addi	sp, sp, -16
   136fc: 2a e4        	sd	a0, 8(sp)
   136fe: 41 01        	addi	sp, sp, 16
   13700: 82 80        	ret

0000000000013702 <_start>:
; pub extern "C" fn _start() -> ! {
   13702: 01 11        	addi	sp, sp, -32
;     rcore_console::init_console(&Console);
   13704: 06 ec        	sd	ra, 24(sp)

0000000000013706 <.Lpcrel_hi0>:
   13706: 17 d5 ff ff  	auipc	a0, 1048573
   1370a: 13 05 a5 bf  	addi	a0, a0, -1030

000000000001370e <.Lpcrel_hi1>:
   1370e: 97 d5 ff ff  	auipc	a1, 1048573
   13712: 93 85 25 bf  	addi	a1, a1, -1038
   13716: 97 20 00 00  	auipc	ra, 2
   1371a: e7 80 c0 23  	jalr	572(ra)
   1371e: 01 45        	li	a0, 0
;     rcore_console::set_log_level(option_env!("LOG"));
   13720: 2a e4        	sd	a0, 8(sp)
   13722: 22 65        	ld	a0, 8(sp)
   13724: c2 65        	ld	a1, 16(sp)
   13726: 97 20 00 00  	auipc	ra, 2
   1372a: e7 80 a0 27  	jalr	634(ra)
;     heap::init();
   1372e: 97 00 00 00  	auipc	ra, 0
   13732: e7 80 00 ed  	jalr	-304(ra)
;     exit(main());
   13736: 97 00 00 00  	auipc	ra, 0
   1373a: e7 80 a0 e7  	jalr	-390(ra)
   1373e: 97 00 00 00  	auipc	ra, 0
   13742: e7 80 20 2a  	jalr	674(ra)

0000000000013746 <.Lpcrel_hi2>:
;     unreachable!()
   13746: 17 d5 ff ff  	auipc	a0, 1048573
   1374a: 13 05 25 be  	addi	a0, a0, -1054

000000000001374e <.Lpcrel_hi3>:
   1374e: 97 d5 ff ff  	auipc	a1, 1048573
   13752: 13 86 25 c1  	addi	a2, a1, -1006
   13756: 93 05 80 02  	li	a1, 40
   1375a: 97 40 00 00  	auipc	ra, 4
   1375e: e7 80 80 78  	jalr	1928(ra)
   13762: 00 00        	unimp

0000000000013764 <rust_begin_unwind>:
; fn panic_handler(panic_info: &core::panic::PanicInfo) -> ! {
   13764: 13 01 01 de  	addi	sp, sp, -544
   13768: 23 3c 11 20  	sd	ra, 536(sp)
   1376c: aa e0        	sd	a0, 64(sp)
   1376e: 2a e3        	sd	a0, 384(sp)
;     let err = panic_info.message().unwrap();
   13770: 97 10 00 00  	auipc	ra, 1
   13774: e7 80 00 15  	jalr	336(ra)

0000000000013778 <.Lpcrel_hi6>:
   13778: 97 d5 ff ff  	auipc	a1, 1048573
   1377c: 93 85 05 c0  	addi	a1, a1, -1024
   13780: 97 10 00 00  	auipc	ra, 1
   13784: e7 80 a0 21  	jalr	538(ra)
   13788: aa 85        	mv	a1, a0
   1378a: 06 65        	ld	a0, 64(sp)
   1378c: ae e4        	sd	a1, 72(sp)
;     if let Some(location) = panic_info.location() {
   1378e: 97 10 00 00  	auipc	ra, 1
   13792: e7 80 c0 13  	jalr	316(ra)
   13796: aa e8        	sd	a0, 80(sp)
   13798: 46 65        	ld	a0, 80(sp)
   1379a: 15 c1        	beqz	a0, 0x137be <.Lpcrel_hi7+0x16>
   1379c: 09 a0        	j	0x1379e <.Lpcrel_hi6+0x26>
   1379e: 46 65        	ld	a0, 80(sp)
   137a0: 2a fc        	sd	a0, 56(sp)
   137a2: 2a e7        	sd	a0, 392(sp)
   137a4: 05 45        	li	a0, 1
;         log::error!("Panicked at {}:{}, {err}", location.file(), location.line());
   137a6: aa ec        	sd	a0, 88(sp)

00000000000137a8 <.Lpcrel_hi7>:
   137a8: 17 d5 ff ff  	auipc	a0, 1048573
   137ac: 93 05 85 be  	addi	a1, a0, -1048
   137b0: a8 08        	addi	a0, sp, 88
   137b2: 97 10 00 00  	auipc	ra, 1
   137b6: e7 80 e0 75  	jalr	1886(ra)
   137ba: 21 e5        	bnez	a0, 0x13802 <.Lpcrel_hi10+0x16>
   137bc: 39 a8        	j	0x137da <.Lpcrel_hi8+0x18>
   137be: 05 45        	li	a0, 1
;         log::error!("Panicked: {err}");
   137c0: 2a e6        	sd	a0, 264(sp)

00000000000137c2 <.Lpcrel_hi8>:
   137c2: 17 d5 ff ff  	auipc	a0, 1048573
   137c6: 93 05 e5 bc  	addi	a1, a0, -1074
   137ca: 28 02        	addi	a0, sp, 264
   137cc: 97 10 00 00  	auipc	ra, 1
   137d0: e7 80 40 74  	jalr	1860(ra)
   137d4: 63 17 05 12  	bnez	a0, 0x13902 <.Lpcrel_hi17+0x20>
   137d8: 09 a0        	j	0x137da <.Lpcrel_hi8+0x18>
   137da: 05 45        	li	a0, 1
;     exit(1);
   137dc: 97 00 00 00  	auipc	ra, 0
   137e0: e7 80 40 20  	jalr	516(ra)

00000000000137e4 <.Lpcrel_hi9>:
;     unreachable!()
   137e4: 17 d5 ff ff  	auipc	a0, 1048573
   137e8: 13 05 45 b4  	addi	a0, a0, -1212

00000000000137ec <.Lpcrel_hi10>:
   137ec: 97 d5 ff ff  	auipc	a1, 1048573
   137f0: 13 86 c5 c4  	addi	a2, a1, -948
   137f4: 93 05 80 02  	li	a1, 40
   137f8: 97 40 00 00  	auipc	ra, 4
   137fc: e7 80 a0 6e  	jalr	1770(ra)
   13800: 00 00        	unimp
   13802: 01 45        	li	a0, 0
;     unsafe { mem::transmute(MAX_LOG_LEVEL_FILTER.load(Ordering::Relaxed)) }
   13804: a3 0b a1 18  	sb	a0, 407(sp)
   13808: 83 45 71 19  	lbu	a1, 407(sp)

000000000001380c <.Lpcrel_hi11>:
   1380c: 17 75 00 00  	auipc	a0, 7
   13810: 13 05 45 ac  	addi	a0, a0, -1340
   13814: 97 00 00 00  	auipc	ra, 0
   13818: e7 80 a0 20  	jalr	522(ra)
;         log::error!("Panicked at {}:{}, {err}", location.file(), location.line());
   1381c: aa f0        	sd	a0, 96(sp)
   1381e: a8 08        	addi	a0, sp, 88
   13820: 8c 10        	addi	a1, sp, 96
   13822: 97 10 00 00  	auipc	ra, 1
   13826: e7 80 e0 6e  	jalr	1774(ra)
   1382a: 45 d9        	beqz	a0, 0x137da <.Lpcrel_hi8+0x18>
   1382c: 09 a0        	j	0x1382e <.Lpcrel_hi11+0x22>
   1382e: 62 75        	ld	a0, 56(sp)
   13830: 97 00 00 00  	auipc	ra, 0
   13834: e7 80 80 20  	jalr	520(ra)
   13838: 2a 86        	mv	a2, a0
   1383a: 62 75        	ld	a0, 56(sp)
   1383c: 32 e8        	sd	a2, 16(sp)
   1383e: 2e 86        	mv	a2, a1
   13840: c2 65        	ld	a1, 16(sp)
   13842: b2 e9        	sd	a2, 208(sp)
   13844: ae e5        	sd	a1, 200(sp)
   13846: b0 01        	addi	a2, sp, 200
   13848: b2 f7        	sd	a2, 488(sp)

000000000001384a <.Lpcrel_hi12>:
   1384a: 97 15 00 00  	auipc	a1, 1
   1384e: 93 85 a5 1f  	addi	a1, a1, 506
   13852: ae fb        	sd	a1, 496(sp)
   13854: b2 ef        	sd	a2, 472(sp)
   13856: ae f3        	sd	a1, 480(sp)
   13858: fe 65        	ld	a1, 472(sp)
   1385a: 2e ec        	sd	a1, 24(sp)
   1385c: 9e 75        	ld	a1, 480(sp)
;         log::error!("Panicked at {}:{}, {err}", location.file(), location.line());
   1385e: 2e f0        	sd	a1, 32(sp)
   13860: 97 00 00 00  	auipc	ra, 0
   13864: e7 80 60 1e  	jalr	486(ra)
   13868: e2 67        	ld	a5, 24(sp)
   1386a: 02 77        	ld	a4, 32(sp)
   1386c: aa cf        	sw	a0, 220(sp)
   1386e: ec 09        	addi	a1, sp, 220
   13870: 23 34 b1 20  	sd	a1, 520(sp)

0000000000013874 <.Lpcrel_hi13>:
   13874: 17 55 00 00  	auipc	a0, 5
   13878: 13 05 85 74  	addi	a0, a0, 1864
   1387c: 23 38 a1 20  	sd	a0, 528(sp)
   13880: ae ff        	sd	a1, 504(sp)
   13882: 23 30 a1 20  	sd	a0, 512(sp)
   13886: fe 76        	ld	a3, 504(sp)
   13888: 03 36 01 20  	ld	a2, 512(sp)
   1388c: ac 00        	addi	a1, sp, 72
   1388e: ae e7        	sd	a1, 456(sp)

0000000000013890 <.Lpcrel_hi14>:
   13890: 17 15 00 00  	auipc	a0, 1
   13894: 13 05 05 4b  	addi	a0, a0, 1200
   13898: aa eb        	sd	a0, 464(sp)
   1389a: 2e ff        	sd	a1, 440(sp)
   1389c: aa e3        	sd	a0, 448(sp)
   1389e: fa 75        	ld	a1, 440(sp)
   138a0: 1e 65        	ld	a0, 448(sp)
;         log::error!("Panicked at {}:{}, {err}", location.file(), location.line());
   138a2: 3e ed        	sd	a5, 152(sp)
   138a4: 3a f1        	sd	a4, 160(sp)
   138a6: 36 f5        	sd	a3, 168(sp)
   138a8: 32 f9        	sd	a2, 176(sp)
   138aa: 2e fd        	sd	a1, 184(sp)
   138ac: aa e1        	sd	a0, 192(sp)

00000000000138ae <.Lpcrel_hi15>:
   138ae: 17 d5 ff ff  	auipc	a0, 1048573
   138b2: 93 05 a5 b0  	addi	a1, a0, -1270
   138b6: a8 10        	addi	a0, sp, 104
   138b8: 2a f8        	sd	a0, 48(sp)
   138ba: 34 09        	addi	a3, sp, 152
   138bc: 0d 47        	li	a4, 3
   138be: 3a 86        	mv	a2, a4
   138c0: 97 10 00 00  	auipc	ra, 1
   138c4: e7 80 20 e8  	jalr	-382(ra)
   138c8: 66 65        	ld	a0, 88(sp)
   138ca: 2a f4        	sd	a0, 40(sp)

00000000000138cc <.Lpcrel_hi16>:
   138cc: 17 d5 ff ff  	auipc	a0, 1048573
   138d0: 13 05 c5 b1  	addi	a0, a0, -1252
   138d4: 97 40 00 00  	auipc	ra, 4
   138d8: e7 80 40 2a  	jalr	676(ra)
   138dc: a2 75        	ld	a1, 40(sp)
   138de: 2a 86        	mv	a2, a0
   138e0: 42 75        	ld	a0, 48(sp)

00000000000138e2 <.Lpcrel_hi17>:
   138e2: 97 d6 ff ff  	auipc	a3, 1048573
   138e6: 13 87 e6 ab  	addi	a4, a3, -1346
   138ea: ba f1        	sd	a4, 224(sp)
   138ec: a1 46        	li	a3, 8
   138ee: b6 f5        	sd	a3, 232(sp)
   138f0: ba f9        	sd	a4, 240(sp)
   138f2: b6 fd        	sd	a3, 248(sp)
   138f4: 32 e2        	sd	a2, 256(sp)
   138f6: 90 11        	addi	a2, sp, 224
   138f8: 97 10 00 00  	auipc	ra, 1
   138fc: e7 80 20 5c  	jalr	1474(ra)
   13900: e9 bd        	j	0x137da <.Lpcrel_hi8+0x18>
   13902: 01 45        	li	a0, 0
;     unsafe { mem::transmute(MAX_LOG_LEVEL_FILTER.load(Ordering::Relaxed)) }
   13904: 23 0b a1 18  	sb	a0, 406(sp)
   13908: 83 45 61 19  	lbu	a1, 406(sp)

000000000001390c <.Lpcrel_hi18>:
   1390c: 17 75 00 00  	auipc	a0, 7
   13910: 13 05 45 9c  	addi	a0, a0, -1596
   13914: 97 00 00 00  	auipc	ra, 0
   13918: e7 80 a0 10  	jalr	266(ra)
;         log::error!("Panicked: {err}");
   1391c: 2a ea        	sd	a0, 272(sp)
   1391e: 28 02        	addi	a0, sp, 264
   13920: 0c 0a        	addi	a1, sp, 272
   13922: 97 10 00 00  	auipc	ra, 1
   13926: e7 80 e0 5e  	jalr	1518(ra)
   1392a: e3 08 05 ea  	beqz	a0, 0x137da <.Lpcrel_hi8+0x18>
   1392e: 09 a0        	j	0x13930 <.Lpcrel_hi18+0x24>
   13930: ac 00        	addi	a1, sp, 72
   13932: 2e f7        	sd	a1, 424(sp)

0000000000013934 <.Lpcrel_hi19>:
   13934: 17 15 00 00  	auipc	a0, 1
   13938: 13 05 c5 40  	addi	a0, a0, 1036
   1393c: 2a fb        	sd	a0, 432(sp)
   1393e: 2e ef        	sd	a1, 408(sp)
   13940: 2a f3        	sd	a0, 416(sp)
   13942: fa 65        	ld	a1, 408(sp)
   13944: 1a 75        	ld	a0, 416(sp)
;         log::error!("Panicked: {err}");
   13946: ae e6        	sd	a1, 328(sp)
   13948: aa ea        	sd	a0, 336(sp)

000000000001394a <.Lpcrel_hi20>:
   1394a: 17 d5 ff ff  	auipc	a0, 1048573
   1394e: 93 05 65 ac  	addi	a1, a0, -1338
   13952: 28 0a        	addi	a0, sp, 280
   13954: 2a e4        	sd	a0, 8(sp)
   13956: b4 02        	addi	a3, sp, 328
   13958: 05 47        	li	a4, 1
   1395a: 3a 86        	mv	a2, a4
   1395c: 97 10 00 00  	auipc	ra, 1
   13960: e7 80 60 de  	jalr	-538(ra)
   13964: 32 65        	ld	a0, 264(sp)
   13966: 2a e0        	sd	a0, 0(sp)

0000000000013968 <.Lpcrel_hi21>:
   13968: 17 d5 ff ff  	auipc	a0, 1048573
   1396c: 13 05 85 ab  	addi	a0, a0, -1352
   13970: 97 40 00 00  	auipc	ra, 4
   13974: e7 80 80 20  	jalr	520(ra)
   13978: 82 65        	ld	a1, 0(sp)
   1397a: 2a 86        	mv	a2, a0
   1397c: 22 65        	ld	a0, 8(sp)

000000000001397e <.Lpcrel_hi22>:
   1397e: 97 d6 ff ff  	auipc	a3, 1048573
   13982: 13 87 26 a2  	addi	a4, a3, -1502
   13986: ba ee        	sd	a4, 344(sp)
   13988: a1 46        	li	a3, 8
   1398a: b6 f2        	sd	a3, 352(sp)
   1398c: ba f6        	sd	a4, 360(sp)
   1398e: b6 fa        	sd	a3, 368(sp)
   13990: b2 fe        	sd	a2, 376(sp)
   13992: b0 0a        	addi	a2, sp, 344
   13994: 97 10 00 00  	auipc	ra, 1
   13998: e7 80 60 52  	jalr	1318(ra)
   1399c: 3d bd        	j	0x137da <.Lpcrel_hi8+0x18>

000000000001399e <_ZN60_$LT$user_lib..Console$u20$as$u20$rcore_console..Console$GT$8put_char17haf30f146d3bcf2f3E>:
;     fn put_char(&self, c: u8) {
   1399e: 01 11        	addi	sp, sp, -32
   139a0: 06 ec        	sd	ra, 24(sp)
   139a2: 2a e4        	sd	a0, 8(sp)
   139a4: a3 0b b1 00  	sb	a1, 23(sp)
;         syscall::write(STDOUT, &[c]);
   139a8: a3 03 b1 00  	sb	a1, 7(sp)
   139ac: 93 05 71 00  	addi	a1, sp, 7
   139b0: 05 46        	li	a2, 1
   139b2: 32 85        	mv	a0, a2
   139b4: 97 00 00 00  	auipc	ra, 0
   139b8: e7 80 60 04  	jalr	70(ra)
;     }
   139bc: e2 60        	ld	ra, 24(sp)
   139be: 05 61        	addi	sp, sp, 32
   139c0: 82 80        	ret

00000000000139c2 <_ZN60_$LT$user_lib..Console$u20$as$u20$rcore_console..Console$GT$7put_str17h86f6160659fb2a07E>:
;     fn put_str(&self, s: &str) {
   139c2: 79 71        	addi	sp, sp, -48
   139c4: 06 f4        	sd	ra, 40(sp)
   139c6: 2a e0        	sd	a0, 0(sp)
   139c8: 2e e4        	sd	a1, 8(sp)
   139ca: 32 e8        	sd	a2, 16(sp)
   139cc: 2e ec        	sd	a1, 24(sp)
   139ce: 32 f0        	sd	a2, 32(sp)
   139d0: 05 45        	li	a0, 1
;         syscall::write(STDOUT, s.as_bytes());
   139d2: 97 00 00 00  	auipc	ra, 0
   139d6: e7 80 80 02  	jalr	40(ra)
;     }
   139da: a2 70        	ld	ra, 40(sp)
   139dc: 45 61        	addi	sp, sp, 48
   139de: 82 80        	ret

00000000000139e0 <_ZN7syscall4user4exit17hf9efab1d4e0d28c0E>:
; pub fn exit(exit_code: i32) -> isize {
   139e0: 01 11        	addi	sp, sp, -32
   139e2: 2a c2        	sw	a0, 4(sp)
;     unsafe { syscall1(SyscallId::EXIT, exit_code as _) }
   139e4: 01 25        	sext.w	a0, a0
   139e6: 93 08 d0 05  	li	a7, 93
   139ea: 46 e8        	sd	a7, 16(sp)
   139ec: 2a ec        	sd	a0, 24(sp)
;         asm!("ecall",
   139ee: 73 00 00 00  	ecall
   139f2: 2a e4        	sd	a0, 8(sp)
;         ret
   139f4: 22 65        	ld	a0, 8(sp)
; }
   139f6: 05 61        	addi	sp, sp, 32
   139f8: 82 80        	ret

00000000000139fa <_ZN7syscall4user5write17h660226ea9aa505ffE>:
; pub fn write(fd: usize, buffer: &[u8]) -> isize {
   139fa: 5d 71        	addi	sp, sp, -80
   139fc: 2a e0        	sd	a0, 0(sp)
   139fe: 2e e4        	sd	a1, 8(sp)
   13a00: 32 e8        	sd	a2, 16(sp)
   13a02: 2e ec        	sd	a1, 24(sp)
   13a04: 32 f0        	sd	a2, 32(sp)
   13a06: 93 08 00 04  	li	a7, 64
   13a0a: 46 f8        	sd	a7, 48(sp)
   13a0c: 2a fc        	sd	a0, 56(sp)
   13a0e: ae e0        	sd	a1, 64(sp)
   13a10: b2 e4        	sd	a2, 72(sp)
;         asm!("ecall",
   13a12: 73 00 00 00  	ecall
   13a16: 2a f4        	sd	a0, 40(sp)
;         ret
   13a18: 22 75        	ld	a0, 40(sp)
; }
   13a1a: 61 61        	addi	sp, sp, 80
   13a1c: 82 80        	ret

0000000000013a1e <_ZN4core4sync6atomic11AtomicUsize4load17h69e87a65bff465baE>:
   13a1e: 01 11        	addi	sp, sp, -32
   13a20: 06 ec        	sd	ra, 24(sp)
   13a22: 2a e0        	sd	a0, 0(sp)
   13a24: a3 07 b1 00  	sb	a1, 15(sp)
   13a28: 2a e8        	sd	a0, 16(sp)
   13a2a: 97 30 00 00  	auipc	ra, 3
   13a2e: e7 80 e0 f1  	jalr	-226(ra)
   13a32: e2 60        	ld	ra, 24(sp)
   13a34: 05 61        	addi	sp, sp, 32
   13a36: 82 80        	ret

0000000000013a38 <_ZN4core5panic8location8Location4file17hf9bdb41d328e0945E>:
   13a38: 41 11        	addi	sp, sp, -16
   13a3a: aa 85        	mv	a1, a0
   13a3c: 2e e4        	sd	a1, 8(sp)
   13a3e: 88 61        	ld	a0, 0(a1)
   13a40: 8c 65        	ld	a1, 8(a1)
   13a42: 41 01        	addi	sp, sp, 16
   13a44: 82 80        	ret

0000000000013a46 <_ZN4core5panic8location8Location4line17h5eb22488c34bd2b4E>:
   13a46: 41 11        	addi	sp, sp, -16
   13a48: 2a e4        	sd	a0, 8(sp)
   13a4a: 08 49        	lw	a0, 16(a0)
   13a4c: 41 01        	addi	sp, sp, 16
   13a4e: 82 80        	ret

0000000000013a50 <_ZN4core3ptr8non_null16NonNull$LT$T$GT$13new_unchecked17h32f3888e5f9dd419E>:
   13a50: 41 11        	addi	sp, sp, -16
   13a52: 2a e4        	sd	a0, 8(sp)
   13a54: 2a e0        	sd	a0, 0(sp)
   13a56: 02 65        	ld	a0, 0(sp)
   13a58: 41 01        	addi	sp, sp, 16
   13a5a: 82 80        	ret

0000000000013a5c <_ZN4core3ptr8non_null16NonNull$LT$T$GT$3new17h7cec49c8f552e2a9E>:
   13a5c: 79 71        	addi	sp, sp, -48
   13a5e: 2a e4        	sd	a0, 8(sp)
   13a60: 2a f0        	sd	a0, 32(sp)
   13a62: 2a f4        	sd	a0, 40(sp)
   13a64: 09 e5        	bnez	a0, 0x13a6e <_ZN4core3ptr8non_null16NonNull$LT$T$GT$3new17h7cec49c8f552e2a9E+0x12>
   13a66: 09 a0        	j	0x13a68 <_ZN4core3ptr8non_null16NonNull$LT$T$GT$3new17h7cec49c8f552e2a9E+0xc>
   13a68: 01 45        	li	a0, 0
   13a6a: 2a e8        	sd	a0, 16(sp)
   13a6c: 31 a0        	j	0x13a78 <_ZN4core3ptr8non_null16NonNull$LT$T$GT$3new17h7cec49c8f552e2a9E+0x1c>
   13a6e: 22 65        	ld	a0, 8(sp)
   13a70: 2a ec        	sd	a0, 24(sp)
   13a72: 62 65        	ld	a0, 24(sp)
   13a74: 2a e8        	sd	a0, 16(sp)
   13a76: 09 a0        	j	0x13a78 <_ZN4core3ptr8non_null16NonNull$LT$T$GT$3new17h7cec49c8f552e2a9E+0x1c>
   13a78: 42 65        	ld	a0, 16(sp)
   13a7a: 45 61        	addi	sp, sp, 48
   13a7c: 82 80        	ret

0000000000013a7e <_ZN4core3cmp5impls48_$LT$impl$u20$core..cmp..Ord$u20$for$u20$u32$GT$3cmp17hebdbf660fd646252E>:
   13a7e: 79 71        	addi	sp, sp, -48
   13a80: 2e e4        	sd	a1, 8(sp)
   13a82: 2a e8        	sd	a0, 16(sp)
   13a84: 2a f0        	sd	a0, 32(sp)
   13a86: 2e f4        	sd	a1, 40(sp)
   13a88: 08 41        	lw	a0, 0(a0)
   13a8a: 8c 41        	lw	a1, 0(a1)
   13a8c: 63 6a b5 00  	bltu	a0, a1, 0x13aa0 <_ZN4core3cmp5impls48_$LT$impl$u20$core..cmp..Ord$u20$for$u20$u32$GT$3cmp17hebdbf660fd646252E+0x22>
   13a90: 09 a0        	j	0x13a92 <_ZN4core3cmp5impls48_$LT$impl$u20$core..cmp..Ord$u20$for$u20$u32$GT$3cmp17hebdbf660fd646252E+0x14>
   13a92: a2 65        	ld	a1, 8(sp)
   13a94: 42 65        	ld	a0, 16(sp)
   13a96: 08 41        	lw	a0, 0(a0)
   13a98: 8c 41        	lw	a1, 0(a1)
   13a9a: 63 0c b5 00  	beq	a0, a1, 0x13ab2 <_ZN4core3cmp5impls48_$LT$impl$u20$core..cmp..Ord$u20$for$u20$u32$GT$3cmp17hebdbf660fd646252E+0x34>
   13a9e: 31 a0        	j	0x13aaa <_ZN4core3cmp5impls48_$LT$impl$u20$core..cmp..Ord$u20$for$u20$u32$GT$3cmp17hebdbf660fd646252E+0x2c>
   13aa0: 13 05 f0 0f  	li	a0, 255
   13aa4: a3 0f a1 00  	sb	a0, 31(sp)
   13aa8: 11 a8        	j	0x13abc <_ZN4core3cmp5impls48_$LT$impl$u20$core..cmp..Ord$u20$for$u20$u32$GT$3cmp17hebdbf660fd646252E+0x3e>
   13aaa: 05 45        	li	a0, 1
   13aac: a3 0f a1 00  	sb	a0, 31(sp)
   13ab0: 29 a0        	j	0x13aba <_ZN4core3cmp5impls48_$LT$impl$u20$core..cmp..Ord$u20$for$u20$u32$GT$3cmp17hebdbf660fd646252E+0x3c>
   13ab2: 01 45        	li	a0, 0
   13ab4: a3 0f a1 00  	sb	a0, 31(sp)
   13ab8: 09 a0        	j	0x13aba <_ZN4core3cmp5impls48_$LT$impl$u20$core..cmp..Ord$u20$for$u20$u32$GT$3cmp17hebdbf660fd646252E+0x3c>
   13aba: 09 a0        	j	0x13abc <_ZN4core3cmp5impls48_$LT$impl$u20$core..cmp..Ord$u20$for$u20$u32$GT$3cmp17hebdbf660fd646252E+0x3e>
   13abc: 03 45 f1 01  	lbu	a0, 31(sp)
   13ac0: 45 61        	addi	sp, sp, 48
   13ac2: 82 80        	ret

0000000000013ac4 <_ZN18customizable_buddy31BuddyAllocator$LT$_$C$O$C$B$GT$10deallocate17h15bc6f7bd1ee8a32E>:
;     pub fn deallocate<T>(&mut self, ptr: NonNull<T>, size: usize) {
   13ac4: 13 01 01 da  	addi	sp, sp, -608
   13ac8: 23 3c 11 24  	sd	ra, 600(sp)
   13acc: 32 fd        	sd	a2, 184(sp)
   13ace: ae e1        	sd	a1, 192(sp)
   13ad0: aa e5        	sd	a0, 200(sp)
   13ad2: 2a f3        	sd	a0, 416(sp)
   13ad4: 2e f7        	sd	a1, 424(sp)
   13ad6: 32 fb        	sd	a2, 432(sp)
   13ad8: 05 45        	li	a0, 1
;         debug_assert!(
   13ada: 15 e5        	bnez	a0, 0x13b06 <_ZN18customizable_buddy31BuddyAllocator$LT$_$C$O$C$B$GT$10deallocate17h15bc6f7bd1ee8a32E+0x42>
   13adc: 09 a0        	j	0x13ade <_ZN18customizable_buddy31BuddyAllocator$LT$_$C$O$C$B$GT$10deallocate17h15bc6f7bd1ee8a32E+0x1a>
;         let max_order = self.max_order();
   13ade: 2e 65        	ld	a0, 200(sp)
   13ae0: 97 00 00 00  	auipc	ra, 0
   13ae4: e7 80 00 74  	jalr	1856(ra)
   13ae8: 8e 65        	ld	a1, 192(sp)
   13aea: 2a 86        	mv	a2, a0
   13aec: 6a 75        	ld	a0, 184(sp)
   13aee: b2 86        	mv	a3, a2
   13af0: 36 f5        	sd	a3, 168(sp)
   13af2: 32 ff        	sd	a2, 440(sp)
   13af4: 23 38 b1 24  	sd	a1, 592(sp)
;         let mut ptr = ptr.as_ptr() as usize;
   13af8: 2e e2        	sd	a1, 256(sp)
;         let end = ptr + size;
   13afa: 92 65        	ld	a1, 256(sp)
   13afc: 2e 95        	add	a0, a0, a1
   13afe: 2a f9        	sd	a0, 176(sp)
   13b00: 63 63 b5 08  	bltu	a0, a1, 0x13b86 <.Lpcrel_hi4>
   13b04: b5 a8        	j	0x13b80 <.Lpcrel_hi3+0x12>
   13b06: 6a 75        	ld	a0, 184(sp)
   13b08: 23 30 a1 24  	sd	a0, 576(sp)
   13b0c: 81 45        	li	a1, 0
   13b0e: 89 8d        	sub	a1, a1, a0
   13b10: e9 8d        	and	a1, a1, a0

0000000000013b12 <.Lpcrel_hi0>:
   13b12: 17 66 00 00  	auipc	a2, 6
   13b16: 13 06 e6 5a  	addi	a2, a2, 1454
   13b1a: 10 62        	ld	a2, 0(a2)
   13b1c: b3 85 c5 02  	mul	a1, a1, a2
   13b20: 13 d6 a5 03  	srli	a2, a1, 58

0000000000013b24 <.Lpcrel_hi1>:
   13b24: 97 d5 ff ff  	auipc	a1, 1048573
   13b28: 93 85 c5 92  	addi	a1, a1, -1748
   13b2c: b2 95        	add	a1, a1, a2
   13b2e: 83 c5 05 00  	lbu	a1, 0(a1)
   13b32: 13 06 00 04  	li	a2, 64
   13b36: 32 ed        	sd	a2, 152(sp)
   13b38: 2e f1        	sd	a1, 160(sp)
   13b3a: 19 e1        	bnez	a0, 0x13b40 <.Lpcrel_hi1+0x1c>
   13b3c: 6a 65        	ld	a0, 152(sp)
   13b3e: 2a f1        	sd	a0, 160(sp)
   13b40: ae 65        	ld	a1, 200(sp)
   13b42: 0a 75        	ld	a0, 160(sp)
   13b44: 23 34 a1 24  	sd	a0, 584(sp)
   13b48: 03 65 81 24  	lwu	a0, 584(sp)
;             size.trailing_zeros() as usize >= self.min_order,
   13b4c: 83 b5 05 21  	ld	a1, 528(a1)
   13b50: e3 77 b5 f8  	bgeu	a0, a1, 0x13ade <_ZN18customizable_buddy31BuddyAllocator$LT$_$C$O$C$B$GT$10deallocate17h15bc6f7bd1ee8a32E+0x1a>
   13b54: 09 a0        	j	0x13b56 <.Lpcrel_hi2>

0000000000013b56 <.Lpcrel_hi2>:
;         debug_assert!(
   13b56: 17 d5 ff ff  	auipc	a0, 1048573
   13b5a: 93 05 a5 9d  	addi	a1, a0, -1574
   13b5e: 88 09        	addi	a0, sp, 208
   13b60: 2a e9        	sd	a0, 144(sp)
   13b62: 05 46        	li	a2, 1
   13b64: 97 10 00 00  	auipc	ra, 1
   13b68: e7 80 60 c6  	jalr	-922(ra)
   13b6c: 4a 65        	ld	a0, 144(sp)

0000000000013b6e <.Lpcrel_hi3>:
   13b6e: 97 d5 ff ff  	auipc	a1, 1048573
   13b72: 93 85 a5 a3  	addi	a1, a1, -1478
   13b76: 97 40 00 00  	auipc	ra, 4
   13b7a: e7 80 e0 33  	jalr	830(ra)
   13b7e: 00 00        	unimp
;         let end = ptr + size;
   13b80: 4a 75        	ld	a0, 176(sp)
   13b82: aa e3        	sd	a0, 448(sp)
;         while ptr < end {
   13b84: 39 a8        	j	0x13ba2 <.Lpcrel_hi5+0x14>

0000000000013b86 <.Lpcrel_hi4>:
;         let end = ptr + size;
   13b86: 17 d5 ff ff  	auipc	a0, 1048573
   13b8a: 13 05 a5 a5  	addi	a0, a0, -1446

0000000000013b8e <.Lpcrel_hi5>:
   13b8e: 97 d5 ff ff  	auipc	a1, 1048573
   13b92: 13 86 25 a3  	addi	a2, a1, -1486
   13b96: f1 45        	li	a1, 28
   13b98: 97 40 00 00  	auipc	ra, 4
   13b9c: e7 80 a0 34  	jalr	842(ra)
   13ba0: 00 00        	unimp
;         while ptr < end {
   13ba2: ca 75        	ld	a1, 176(sp)
   13ba4: 12 65        	ld	a0, 256(sp)
   13ba6: 63 6c b5 00  	bltu	a0, a1, 0x13bbe <.Lpcrel_hi5+0x30>
   13baa: 09 a0        	j	0x13bac <.Lpcrel_hi5+0x1e>
;         self.free += size;
   13bac: 6a 75        	ld	a0, 184(sp)
   13bae: ae 65        	ld	a1, 200(sp)
   13bb0: 83 b5 85 21  	ld	a1, 536(a1)
   13bb4: 2e 95        	add	a0, a0, a1
   13bb6: 2a e5        	sd	a0, 136(sp)
   13bb8: 63 66 b5 02  	bltu	a0, a1, 0x13be4 <.Lpcrel_hi6>
   13bbc: 09 a8        	j	0x13bce <.Lpcrel_hi5+0x40>
;             let len = nonzero(end - ptr);
   13bbe: 4a 75        	ld	a0, 176(sp)
   13bc0: 92 65        	ld	a1, 256(sp)
   13bc2: 33 06 b5 40  	sub	a2, a0, a1
   13bc6: 32 e1        	sd	a2, 128(sp)
   13bc8: 63 64 b5 10  	bltu	a0, a1, 0x13cd0 <.Lpcrel_hi11>
   13bcc: 5d a8        	j	0x13c82 <.Lpcrel_hi10+0x1c>
;         self.free += size;
   13bce: 2e 65        	ld	a0, 200(sp)
   13bd0: aa 65        	ld	a1, 136(sp)
   13bd2: 23 3c b5 20  	sd	a1, 536(a0)
;             self.free <= self.capacity,
   13bd6: 83 35 85 21  	ld	a1, 536(a0)
   13bda: 03 35 05 22  	ld	a0, 544(a0)
   13bde: 63 7d b5 08  	bgeu	a0, a1, 0x13c78 <.Lpcrel_hi10+0x12>
   13be2: 39 a8        	j	0x13c00 <.Lpcrel_hi7+0x14>

0000000000013be4 <.Lpcrel_hi6>:
;         self.free += size;
   13be4: 17 d5 ff ff  	auipc	a0, 1048573
   13be8: 13 05 c5 9f  	addi	a0, a0, -1540

0000000000013bec <.Lpcrel_hi7>:
   13bec: 97 d5 ff ff  	auipc	a1, 1048573
   13bf0: 13 86 45 a1  	addi	a2, a1, -1516
   13bf4: f1 45        	li	a1, 28
   13bf6: 97 40 00 00  	auipc	ra, 4
   13bfa: e7 80 c0 2e  	jalr	748(ra)
   13bfe: 00 00        	unimp
;         assert!(
   13c00: ae 65        	ld	a1, 200(sp)
   13c02: 13 86 85 21  	addi	a2, a1, 536
   13c06: 23 38 c1 22  	sd	a2, 560(sp)

0000000000013c0a <.Lpcrel_hi8>:
   13c0a: 17 55 00 00  	auipc	a0, 5
   13c0e: 13 05 25 3c  	addi	a0, a0, 962
   13c12: 23 3c a1 22  	sd	a0, 568(sp)
   13c16: 23 30 c1 22  	sd	a2, 544(sp)
   13c1a: 23 34 a1 22  	sd	a0, 552(sp)
   13c1e: 83 36 01 22  	ld	a3, 544(sp)
   13c22: 03 36 81 22  	ld	a2, 552(sp)
;         assert!(
   13c26: 93 85 05 22  	addi	a1, a1, 544
   13c2a: 23 38 b1 20  	sd	a1, 528(sp)
   13c2e: 23 3c a1 20  	sd	a0, 536(sp)
   13c32: 23 30 b1 20  	sd	a1, 512(sp)
   13c36: 23 34 a1 20  	sd	a0, 520(sp)
   13c3a: 83 35 01 20  	ld	a1, 512(sp)
   13c3e: 03 35 81 20  	ld	a0, 520(sp)
;         assert!(
   13c42: 36 e3        	sd	a3, 384(sp)
   13c44: 32 e7        	sd	a2, 392(sp)
   13c46: 2e eb        	sd	a1, 400(sp)
   13c48: 2a ef        	sd	a0, 408(sp)

0000000000013c4a <.Lpcrel_hi9>:
   13c4a: 17 d5 ff ff  	auipc	a0, 1048573
   13c4e: 93 05 65 a1  	addi	a1, a0, -1514
   13c52: 88 0a        	addi	a0, sp, 336
   13c54: aa fc        	sd	a0, 120(sp)
   13c56: 14 03        	addi	a3, sp, 384
   13c58: 09 47        	li	a4, 2
   13c5a: 3a 86        	mv	a2, a4
   13c5c: 97 10 00 00  	auipc	ra, 1
   13c60: e7 80 60 ae  	jalr	-1306(ra)
   13c64: 66 75        	ld	a0, 120(sp)

0000000000013c66 <.Lpcrel_hi10>:
   13c66: 97 d5 ff ff  	auipc	a1, 1048573
   13c6a: 93 85 a5 a1  	addi	a1, a1, -1510
   13c6e: 97 40 00 00  	auipc	ra, 4
   13c72: e7 80 60 24  	jalr	582(ra)
   13c76: 00 00        	unimp
;     }
   13c78: 83 30 81 25  	ld	ra, 600(sp)
   13c7c: 13 01 01 26  	addi	sp, sp, 608
   13c80: 82 80        	ret
;             let len = nonzero(end - ptr);
   13c82: 0a 65        	ld	a0, 128(sp)
   13c84: 97 10 00 00  	auipc	ra, 1
   13c88: e7 80 40 d9  	jalr	-620(ra)
   13c8c: aa f0        	sd	a0, 96(sp)
   13c8e: aa 85        	mv	a1, a0
   13c90: ae ec        	sd	a1, 88(sp)
   13c92: aa e7        	sd	a0, 456(sp)
;             let order_ptr = nonzero(ptr).trailing_zeros();
   13c94: 12 65        	ld	a0, 256(sp)
   13c96: 97 10 00 00  	auipc	ra, 1
   13c9a: e7 80 20 d8  	jalr	-638(ra)
   13c9e: 97 00 00 00  	auipc	ra, 0
   13ca2: e7 80 20 65  	jalr	1618(ra)
   13ca6: aa 85        	mv	a1, a0
   13ca8: 06 75        	ld	a0, 96(sp)
   13caa: 2e 86        	mv	a2, a1
   13cac: b2 f4        	sd	a2, 104(sp)
   13cae: 23 28 b1 1c  	sw	a1, 464(sp)
;             let order_len = usize::BITS - len.leading_zeros() - 1;
   13cb2: 97 00 00 00  	auipc	ra, 0
   13cb6: e7 80 40 5a  	jalr	1444(ra)
   13cba: 2a 86        	mv	a2, a0
   13cbc: 9b 05 06 00  	sext.w	a1, a2
   13cc0: 13 05 00 04  	li	a0, 64
   13cc4: 3b 06 c5 40  	subw	a2, a0, a2
   13cc8: b2 f8        	sd	a2, 112(sp)
   13cca: 63 69 b5 02  	bltu	a0, a1, 0x13cfc <.Lpcrel_hi13>
   13cce: 05 a0        	j	0x13cee <.Lpcrel_hi12+0x16>

0000000000013cd0 <.Lpcrel_hi11>:
;             let len = nonzero(end - ptr);
   13cd0: 17 d5 ff ff  	auipc	a0, 1048573
   13cd4: 13 05 05 9e  	addi	a0, a0, -1568

0000000000013cd8 <.Lpcrel_hi12>:
   13cd8: 97 d5 ff ff  	auipc	a1, 1048573
   13cdc: 13 86 05 9c  	addi	a2, a1, -1600
   13ce0: 93 05 10 02  	li	a1, 33
   13ce4: 97 40 00 00  	auipc	ra, 4
   13ce8: e7 80 e0 1f  	jalr	510(ra)
   13cec: 00 00        	unimp
;             let order_len = usize::BITS - len.leading_zeros() - 1;
   13cee: 46 75        	ld	a0, 112(sp)
   13cf0: 9b 05 f5 ff  	addiw	a1, a0, -1
   13cf4: ae e8        	sd	a1, 80(sp)
   13cf6: 01 25        	sext.w	a0, a0
   13cf8: 29 c1        	beqz	a0, 0x13d3a <.Lpcrel_hi15>
   13cfa: 05 a0        	j	0x13d1a <.Lpcrel_hi14+0x16>

0000000000013cfc <.Lpcrel_hi13>:
   13cfc: 17 d5 ff ff  	auipc	a0, 1048573
   13d00: 13 05 45 9b  	addi	a0, a0, -1612

0000000000013d04 <.Lpcrel_hi14>:
   13d04: 97 d5 ff ff  	auipc	a1, 1048573
   13d08: 13 86 45 9d  	addi	a2, a1, -1580
   13d0c: 93 05 10 02  	li	a1, 33
   13d10: 97 40 00 00  	auipc	ra, 4
   13d14: e7 80 20 1d  	jalr	466(ra)
   13d18: 00 00        	unimp
   13d1a: c6 65        	ld	a1, 80(sp)
   13d1c: 26 75        	ld	a0, 104(sp)
   13d1e: 23 2a b1 1c  	sw	a1, 468(sp)
;             let order = order_ptr.min(order_len) as usize;
   13d22: 97 10 00 00  	auipc	ra, 1
   13d26: e7 80 00 b1  	jalr	-1264(ra)
   13d2a: aa 75        	ld	a1, 168(sp)
   13d2c: 02 15        	slli	a0, a0, 32
   13d2e: 01 91        	srli	a0, a0, 32
   13d30: aa e4        	sd	a0, 72(sp)
   13d32: aa ef        	sd	a0, 472(sp)
;             if order >= max_order {
   13d34: 63 7a b5 02  	bgeu	a0, a1, 0x13d68 <.Lpcrel_hi16+0x26>
   13d38: 05 a0        	j	0x13d58 <.Lpcrel_hi16+0x16>

0000000000013d3a <.Lpcrel_hi15>:
;             let order_len = usize::BITS - len.leading_zeros() - 1;
   13d3a: 17 d5 ff ff  	auipc	a0, 1048573
   13d3e: 13 05 65 97  	addi	a0, a0, -1674

0000000000013d42 <.Lpcrel_hi16>:
   13d42: 97 d5 ff ff  	auipc	a1, 1048573
   13d46: 13 86 65 99  	addi	a2, a1, -1642
   13d4a: 93 05 10 02  	li	a1, 33
   13d4e: 97 40 00 00  	auipc	ra, 4
   13d52: e7 80 40 19  	jalr	404(ra)
   13d56: 00 00        	unimp
;                 let mut idx = ptr >> order;
   13d58: 26 65        	ld	a0, 72(sp)
   13d5a: 92 65        	ld	a1, 256(sp)
   13d5c: ae e0        	sd	a1, 64(sp)
   13d5e: 93 05 00 04  	li	a1, 64
   13d62: 63 6b b5 00  	bltu	a0, a1, 0x13d78 <.Lpcrel_hi16+0x36>
   13d66: 1d a0        	j	0x13d8c <.Lpcrel_hi17>
;                 let idx = ptr >> max_order;
   13d68: 2a 75        	ld	a0, 168(sp)
   13d6a: 92 65        	ld	a1, 256(sp)
   13d6c: 2e fc        	sd	a1, 56(sp)
   13d6e: 93 05 00 04  	li	a1, 64
   13d72: 63 68 b5 14  	bltu	a0, a1, 0x13ec2 <.Lpcrel_hi25+0x1e>
   13d76: 8d aa        	j	0x13ee8 <.Lpcrel_hi26>
;                 let mut idx = ptr >> order;
   13d78: 26 65        	ld	a0, 72(sp)
   13d7a: 86 65        	ld	a1, 64(sp)
   13d7c: b3 d5 a5 00  	srl	a1, a1, a0
   13d80: 2e ee        	sd	a1, 280(sp)
   13d82: 93 05 00 04  	li	a1, 64
;                 ptr += 1 << order;
   13d86: 63 62 b5 02  	bltu	a0, a1, 0x13daa <.Lpcrel_hi18+0x16>
   13d8a: 15 a8        	j	0x13dbe <.Lpcrel_hi19>

0000000000013d8c <.Lpcrel_hi17>:
;                 let mut idx = ptr >> order;
   13d8c: 17 d5 ff ff  	auipc	a0, 1048573
   13d90: 13 05 45 98  	addi	a0, a0, -1660

0000000000013d94 <.Lpcrel_hi18>:
   13d94: 97 d5 ff ff  	auipc	a1, 1048573
   13d98: 13 86 c5 95  	addi	a2, a1, -1700
   13d9c: 93 05 40 02  	li	a1, 36
   13da0: 97 40 00 00  	auipc	ra, 4
   13da4: e7 80 20 14  	jalr	322(ra)
   13da8: 00 00        	unimp
   13daa: a6 65        	ld	a1, 72(sp)
   13dac: 05 45        	li	a0, 1
;                 ptr += 1 << order;
   13dae: 33 15 b5 00  	sll	a0, a0, a1
   13db2: 92 65        	ld	a1, 256(sp)
   13db4: 2e 95        	add	a0, a0, a1
   13db6: 2a f8        	sd	a0, 48(sp)
   13db8: 63 6e b5 02  	bltu	a0, a1, 0x13df4 <.Lpcrel_hi21>
   13dbc: 05 a0        	j	0x13ddc <.Lpcrel_hi20+0x16>

0000000000013dbe <.Lpcrel_hi19>:
   13dbe: 17 d5 ff ff  	auipc	a0, 1048573
   13dc2: 13 05 25 99  	addi	a0, a0, -1646

0000000000013dc6 <.Lpcrel_hi20>:
   13dc6: 97 d5 ff ff  	auipc	a1, 1048573
   13dca: 13 86 25 97  	addi	a2, a1, -1678
   13dce: 93 05 30 02  	li	a1, 35
   13dd2: 97 40 00 00  	auipc	ra, 4
   13dd6: e7 80 00 11  	jalr	272(ra)
   13dda: 00 00        	unimp
   13ddc: 26 65        	ld	a0, 72(sp)
   13dde: ae 65        	ld	a1, 200(sp)
   13de0: 42 76        	ld	a2, 48(sp)
   13de2: 32 e2        	sd	a2, 256(sp)
;                 for layer in (order - self.min_order).. {
   13de4: 83 b5 05 21  	ld	a1, 528(a1)
   13de8: 33 06 b5 40  	sub	a2, a0, a1
   13dec: 32 f4        	sd	a2, 40(sp)
   13dee: 63 6a b5 02  	bltu	a0, a1, 0x13e22 <.Lpcrel_hi23>
   13df2: 39 a8        	j	0x13e10 <.Lpcrel_hi22+0x14>

0000000000013df4 <.Lpcrel_hi21>:
;                 ptr += 1 << order;
   13df4: 17 c5 ff ff  	auipc	a0, 1048572
   13df8: 13 05 c5 7e  	addi	a0, a0, 2028

0000000000013dfc <.Lpcrel_hi22>:
   13dfc: 97 d5 ff ff  	auipc	a1, 1048573
   13e00: 13 86 c5 97  	addi	a2, a1, -1668
   13e04: f1 45        	li	a1, 28
   13e06: 97 40 00 00  	auipc	ra, 4
   13e0a: e7 80 c0 0d  	jalr	220(ra)
   13e0e: 00 00        	unimp
;                 for layer in (order - self.min_order).. {
   13e10: 22 75        	ld	a0, 40(sp)
   13e12: 2a f2        	sd	a0, 288(sp)
   13e14: 12 75        	ld	a0, 288(sp)
   13e16: 97 00 00 00  	auipc	ra, 0
   13e1a: e7 80 a0 5d  	jalr	1498(ra)
   13e1e: 2a f6        	sd	a0, 296(sp)
   13e20: 05 a0        	j	0x13e40 <.Lpcrel_hi24+0x16>

0000000000013e22 <.Lpcrel_hi23>:
   13e22: 17 d5 ff ff  	auipc	a0, 1048573
   13e26: 13 05 e5 88  	addi	a0, a0, -1906

0000000000013e2a <.Lpcrel_hi24>:
   13e2a: 97 d5 ff ff  	auipc	a1, 1048573
   13e2e: 13 86 65 96  	addi	a2, a1, -1690
   13e32: 93 05 10 02  	li	a1, 33
   13e36: 97 40 00 00  	auipc	ra, 4
   13e3a: e7 80 c0 0a  	jalr	172(ra)
   13e3e: 00 00        	unimp
   13e40: 28 12        	addi	a0, sp, 296
;                 for layer in (order - self.min_order).. {
   13e42: 97 00 00 00  	auipc	ra, 0
   13e46: e7 80 80 4e  	jalr	1256(ra)
   13e4a: 2e fe        	sd	a1, 312(sp)
   13e4c: 2a fa        	sd	a0, 304(sp)
   13e4e: 52 75        	ld	a0, 304(sp)
   13e50: e3 09 05 d4  	beqz	a0, 0x13ba2 <.Lpcrel_hi5+0x14>
   13e54: 09 a0        	j	0x13e56 <.Lpcrel_hi24+0x2c>
   13e56: 72 75        	ld	a0, 312(sp)
   13e58: 2a f0        	sd	a0, 32(sp)
   13e5a: aa f3        	sd	a0, 480(sp)
   13e5c: 93 05 00 02  	li	a1, 32
;                     if layer == Self::MAX_LAYER {
   13e60: 63 09 b5 00  	beq	a0, a1, 0x13e72 <.Lpcrel_hi24+0x48>
   13e64: 09 a0        	j	0x13e66 <.Lpcrel_hi24+0x3c>
   13e66: 02 75        	ld	a0, 32(sp)
   13e68: 93 05 00 02  	li	a1, 32
;                     match self.buddies[layer].put(idx) {
   13e6c: 63 6c b5 00  	bltu	a0, a1, 0x13e84 <.Lpcrel_hi24+0x5a>
   13e70: 0d a8        	j	0x13ea2 <.Lpcrel_hi24+0x78>
;                         self.oligarchy.put(idx);
   13e72: 2e 65        	ld	a0, 200(sp)
   13e74: 13 05 05 20  	addi	a0, a0, 512
   13e78: f2 65        	ld	a1, 280(sp)
   13e7a: 97 10 00 00  	auipc	ra, 1
   13e7e: e7 80 60 85  	jalr	-1962(ra)
   13e82: 05 b3        	j	0x13ba2 <.Lpcrel_hi5+0x14>
;                     match self.buddies[layer].put(idx) {
   13e84: 2e 65        	ld	a0, 200(sp)
   13e86: 82 75        	ld	a1, 32(sp)
   13e88: 92 05        	slli	a1, a1, 4
   13e8a: 2e 95        	add	a0, a0, a1
   13e8c: f2 65        	ld	a1, 280(sp)
   13e8e: 97 40 00 00  	auipc	ra, 4
   13e92: e7 80 80 e9  	jalr	-360(ra)
   13e96: ae e6        	sd	a1, 328(sp)
   13e98: aa e2        	sd	a0, 320(sp)
   13e9a: 16 65        	ld	a0, 320(sp)
   13e9c: e3 03 05 d0  	beqz	a0, 0x13ba2 <.Lpcrel_hi5+0x14>
   13ea0: 29 a8        	j	0x13eba <.Lpcrel_hi25+0x16>
   13ea2: 02 75        	ld	a0, 32(sp)

0000000000013ea4 <.Lpcrel_hi25>:
   13ea4: 97 d5 ff ff  	auipc	a1, 1048573
   13ea8: 13 86 45 90  	addi	a2, a1, -1788
   13eac: 93 05 00 02  	li	a1, 32
   13eb0: 97 40 00 00  	auipc	ra, 4
   13eb4: e7 80 e0 05  	jalr	94(ra)
   13eb8: 00 00        	unimp
;                         Some(parent) => idx = parent,
   13eba: 36 65        	ld	a0, 328(sp)
   13ebc: aa f7        	sd	a0, 488(sp)
   13ebe: 2a ee        	sd	a0, 280(sp)
;                 for layer in (order - self.min_order).. {
   13ec0: 41 b7        	j	0x13e40 <.Lpcrel_hi24+0x16>
;                 let idx = ptr >> max_order;
   13ec2: 2a 76        	ld	a2, 168(sp)
   13ec4: 66 65        	ld	a0, 88(sp)
   13ec6: e2 75        	ld	a1, 56(sp)
   13ec8: b3 d5 c5 00  	srl	a1, a1, a2
   13ecc: 2e e8        	sd	a1, 16(sp)
   13ece: ae fb        	sd	a1, 496(sp)
;                 let count = len.get() >> max_order;
   13ed0: 97 00 00 00  	auipc	ra, 0
   13ed4: e7 80 20 45  	jalr	1106(ra)
   13ed8: aa 85        	mv	a1, a0
   13eda: 2a 75        	ld	a0, 168(sp)
   13edc: 2e ec        	sd	a1, 24(sp)
   13ede: 93 05 00 04  	li	a1, 64
   13ee2: 63 62 b5 02  	bltu	a0, a1, 0x13f06 <.Lpcrel_hi27+0x16>
   13ee6: 1d a8        	j	0x13f1c <.Lpcrel_hi28>

0000000000013ee8 <.Lpcrel_hi26>:
;                 let idx = ptr >> max_order;
   13ee8: 17 d5 ff ff  	auipc	a0, 1048573
   13eec: 13 05 85 82  	addi	a0, a0, -2008

0000000000013ef0 <.Lpcrel_hi27>:
   13ef0: 97 d5 ff ff  	auipc	a1, 1048573
   13ef4: 13 86 05 8d  	addi	a2, a1, -1840
   13ef8: 93 05 40 02  	li	a1, 36
   13efc: 97 40 00 00  	auipc	ra, 4
   13f00: e7 80 60 fe  	jalr	-26(ra)
   13f04: 00 00        	unimp
;                 let count = len.get() >> max_order;
   13f06: 2a 75        	ld	a0, 168(sp)
   13f08: e2 65        	ld	a1, 24(sp)
   13f0a: b3 d5 a5 00  	srl	a1, a1, a0
   13f0e: 2e e4        	sd	a1, 8(sp)
   13f10: ae ff        	sd	a1, 504(sp)
   13f12: 93 05 00 04  	li	a1, 64
;                 ptr += count << max_order;
   13f16: 63 62 b5 02  	bltu	a0, a1, 0x13f3a <.Lpcrel_hi29+0x16>
   13f1a: 15 a8        	j	0x13f4e <.Lpcrel_hi30>

0000000000013f1c <.Lpcrel_hi28>:
;                 let count = len.get() >> max_order;
   13f1c: 17 c5 ff ff  	auipc	a0, 1048572
   13f20: 13 05 45 7f  	addi	a0, a0, 2036

0000000000013f24 <.Lpcrel_hi29>:
   13f24: 97 d5 ff ff  	auipc	a1, 1048573
   13f28: 13 86 45 8b  	addi	a2, a1, -1868
   13f2c: 93 05 40 02  	li	a1, 36
   13f30: 97 40 00 00  	auipc	ra, 4
   13f34: e7 80 20 fb  	jalr	-78(ra)
   13f38: 00 00        	unimp
;                 ptr += count << max_order;
   13f3a: 22 65        	ld	a0, 8(sp)
   13f3c: aa 75        	ld	a1, 168(sp)
   13f3e: 33 15 b5 00  	sll	a0, a0, a1
   13f42: 92 65        	ld	a1, 256(sp)
   13f44: 2e 95        	add	a0, a0, a1
   13f46: 2a e0        	sd	a0, 0(sp)
   13f48: 63 66 b5 04  	bltu	a0, a1, 0x13f94 <.Lpcrel_hi32>
   13f4c: 05 a0        	j	0x13f6c <.Lpcrel_hi31+0x16>

0000000000013f4e <.Lpcrel_hi30>:
   13f4e: 17 d5 ff ff  	auipc	a0, 1048573
   13f52: 13 05 25 80  	addi	a0, a0, -2046

0000000000013f56 <.Lpcrel_hi31>:
   13f56: 97 d5 ff ff  	auipc	a1, 1048573
   13f5a: 13 86 a5 89  	addi	a2, a1, -1894
   13f5e: 93 05 30 02  	li	a1, 35
   13f62: 97 40 00 00  	auipc	ra, 4
   13f66: e7 80 00 f8  	jalr	-128(ra)
   13f6a: 00 00        	unimp
   13f6c: a2 65        	ld	a1, 8(sp)
   13f6e: 42 65        	ld	a0, 16(sp)
   13f70: 02 66        	ld	a2, 0(sp)
   13f72: 32 e2        	sd	a2, 256(sp)
;                 (idx..).take(count).for_each(|idx| self.oligarchy.put(idx));
   13f74: 2a e6        	sd	a0, 264(sp)
   13f76: 32 65        	ld	a0, 264(sp)
   13f78: 97 00 00 00  	auipc	ra, 0
   13f7c: e7 80 80 3e  	jalr	1000(ra)
   13f80: 2e 66        	ld	a2, 200(sp)
   13f82: 13 06 06 20  	addi	a2, a2, 512
   13f86: 32 ea        	sd	a2, 272(sp)
   13f88: 52 66        	ld	a2, 272(sp)
   13f8a: 97 00 00 00  	auipc	ra, 0
   13f8e: e7 80 e0 46  	jalr	1134(ra)
   13f92: 01 b9        	j	0x13ba2 <.Lpcrel_hi5+0x14>

0000000000013f94 <.Lpcrel_hi32>:
;                 ptr += count << max_order;
   13f94: 17 c5 ff ff  	auipc	a0, 1048572
   13f98: 13 05 c5 64  	addi	a0, a0, 1612

0000000000013f9c <.Lpcrel_hi33>:
   13f9c: 97 d5 ff ff  	auipc	a1, 1048573
   13fa0: 13 86 c5 86  	addi	a2, a1, -1940
   13fa4: f1 45        	li	a1, 28
   13fa6: 97 40 00 00  	auipc	ra, 4
   13faa: e7 80 c0 f3  	jalr	-196(ra)
   13fae: 00 00        	unimp

0000000000013fb0 <_ZN18customizable_buddy31BuddyAllocator$LT$_$C$O$C$B$GT$10deallocate28_$u7b$$u7b$closure$u7d$$u7d$17h2a5365ef5b268229E>:
;                 (idx..).take(count).for_each(|idx| self.oligarchy.put(idx));
   13fb0: 01 11        	addi	sp, sp, -32
   13fb2: 06 ec        	sd	ra, 24(sp)
   13fb4: 2a e4        	sd	a0, 8(sp)
   13fb6: 2e e8        	sd	a1, 16(sp)
   13fb8: 08 61        	ld	a0, 0(a0)
   13fba: 97 00 00 00  	auipc	ra, 0
   13fbe: e7 80 60 71  	jalr	1814(ra)
   13fc2: e2 60        	ld	ra, 24(sp)
   13fc4: 05 61        	addi	sp, sp, 32
   13fc6: 82 80        	ret

0000000000013fc8 <_ZN18customizable_buddy31BuddyAllocator$LT$_$C$O$C$B$GT$4init17h66de7a45ccfdddecE>:
;     pub fn init<T>(&mut self, min_order: usize, base: NonNull<T>) {
   13fc8: 29 71        	addi	sp, sp, -320
   13fca: 06 fe        	sd	ra, 312(sp)
   13fcc: 32 f8        	sd	a2, 48(sp)
   13fce: 2e fc        	sd	a1, 56(sp)
   13fd0: aa e0        	sd	a0, 64(sp)
   13fd2: 2a e2        	sd	a0, 256(sp)
   13fd4: 2e e6        	sd	a1, 264(sp)
   13fd6: 32 ea        	sd	a2, 272(sp)
;         assert_eq!(
   13fd8: 13 05 05 22  	addi	a0, a0, 544

0000000000013fdc <.Lpcrel_hi48>:
   13fdc: 97 c5 ff ff  	auipc	a1, 1048572
   13fe0: 93 85 c5 3b  	addi	a1, a1, 956
   13fe4: ae ec        	sd	a1, 88(sp)
   13fe6: aa f0        	sd	a0, 96(sp)
   13fe8: 66 65        	ld	a0, 88(sp)
   13fea: aa e4        	sd	a0, 72(sp)
   13fec: 2a ee        	sd	a0, 280(sp)
   13fee: 86 75        	ld	a1, 96(sp)
   13ff0: ae e8        	sd	a1, 80(sp)
   13ff2: 2e f2        	sd	a1, 288(sp)
   13ff4: 08 61        	ld	a0, 0(a0)
   13ff6: 8c 61        	ld	a1, 0(a1)
   13ff8: 63 0a b5 04  	beq	a0, a1, 0x1404c <.Lpcrel_hi50+0x14>
   13ffc: 09 a0        	j	0x13ffe <.Lpcrel_hi48+0x22>
   13ffe: 01 45        	li	a0, 0
;         assert_eq!(
   14000: a3 07 a1 06  	sb	a0, 111(sp)

0000000000014004 <.Lpcrel_hi49>:
   14004: 17 d5 ff ff  	auipc	a0, 1048573
   14008: 93 05 c5 84  	addi	a1, a0, -1972
   1400c: 08 11        	addi	a0, sp, 160
   1400e: 05 46        	li	a2, 1
   14010: 97 00 00 00  	auipc	ra, 0
   14014: e7 80 a0 7b  	jalr	1978(ra)
   14018: a6 65        	ld	a1, 72(sp)
   1401a: 46 66        	ld	a2, 80(sp)
   1401c: 2e 65        	ld	a0, 200(sp)
   1401e: 2a ed        	sd	a0, 152(sp)
   14020: 0e 65        	ld	a0, 192(sp)
   14022: 2a e9        	sd	a0, 144(sp)
   14024: 6a 75        	ld	a0, 184(sp)
   14026: 2a e5        	sd	a0, 136(sp)
   14028: 4a 75        	ld	a0, 176(sp)
   1402a: 2a e1        	sd	a0, 128(sp)
   1402c: 2a 75        	ld	a0, 168(sp)
   1402e: aa fc        	sd	a0, 120(sp)
   14030: 0a 75        	ld	a0, 160(sp)
   14032: aa f8        	sd	a0, 112(sp)
   14034: 03 45 f1 06  	lbu	a0, 111(sp)

0000000000014038 <.Lpcrel_hi50>:
   14038: 97 d6 ff ff  	auipc	a3, 1048573
   1403c: 13 87 86 82  	addi	a4, a3, -2008
   14040: 94 18        	addi	a3, sp, 112
   14042: 97 00 00 00  	auipc	ra, 0
   14046: e7 80 40 47  	jalr	1140(ra)
   1404a: 00 00        	unimp
;         self.min_order = min_order;
   1404c: 06 65        	ld	a0, 64(sp)
   1404e: e2 75        	ld	a1, 56(sp)
   14050: 23 38 b5 20  	sd	a1, 528(a0)
;         let max_order = self.max_order();
   14054: 97 00 00 00  	auipc	ra, 0
   14058: e7 80 c0 1c  	jalr	460(ra)
   1405c: aa 85        	mv	a1, a0
   1405e: 2e f4        	sd	a1, 40(sp)
   14060: 2a f6        	sd	a0, 296(sp)
   14062: 05 45        	li	a0, 1
;         assert!(Self::O_MIN_ORDER <= max_order);
   14064: 0d e1        	bnez	a0, 0x14086 <.Lpcrel_hi52+0x16>
   14066: 09 a0        	j	0x14068 <.Lpcrel_hi51>

0000000000014068 <.Lpcrel_hi51>:
   14068: 17 d5 ff ff  	auipc	a0, 1048573
   1406c: 13 05 05 81  	addi	a0, a0, -2032

0000000000014070 <.Lpcrel_hi52>:
   14070: 97 d5 ff ff  	auipc	a1, 1048573
   14074: 13 86 85 83  	addi	a2, a1, -1992
   14078: 93 05 00 03  	li	a1, 48
   1407c: 97 40 00 00  	auipc	ra, 4
   14080: e7 80 60 e6  	jalr	-410(ra)
   14084: 00 00        	unimp
   14086: e2 75        	ld	a1, 56(sp)
   14088: 09 45        	li	a0, 2
;         assert!(Self::B_MIN_ORDER <= min_order);
   1408a: 63 62 b5 02  	bltu	a0, a1, 0x140ae <.Lpcrel_hi54+0x16>
   1408e: 09 a0        	j	0x14090 <.Lpcrel_hi53>

0000000000014090 <.Lpcrel_hi53>:
   14090: 17 d5 ff ff  	auipc	a0, 1048573
   14094: 13 05 05 83  	addi	a0, a0, -2000

0000000000014098 <.Lpcrel_hi54>:
   14098: 97 d5 ff ff  	auipc	a1, 1048573
   1409c: 13 86 85 85  	addi	a2, a1, -1960
   140a0: 93 05 00 03  	li	a1, 48
   140a4: 97 40 00 00  	auipc	ra, 4
   140a8: e7 80 e0 e3  	jalr	-450(ra)
   140ac: 00 00        	unimp
   140ae: 06 65        	ld	a0, 64(sp)
   140b0: c2 75        	ld	a1, 48(sp)
   140b2: 2e fa        	sd	a1, 304(sp)
;         let base = base.as_ptr() as usize;
   140b4: ae e9        	sd	a1, 208(sp)
   140b6: 93 05 00 02  	li	a1, 32
;         self.buddies.iter_mut().enumerate().for_each(|(i, c)| {
   140ba: 97 00 00 00  	auipc	ra, 0
   140be: e7 80 20 42  	jalr	1058(ra)
   140c2: 2a e4        	sd	a0, 8(sp)
   140c4: 2e 86        	mv	a2, a1
   140c6: a2 65        	ld	a1, 8(sp)
   140c8: a8 09        	addi	a0, sp, 216
   140ca: 2a e8        	sd	a0, 16(sp)
   140cc: 97 00 00 00  	auipc	ra, 0
   140d0: e7 80 c0 44  	jalr	1100(ra)
   140d4: 42 65        	ld	a0, 16(sp)
   140d6: 86 65        	ld	a1, 64(sp)
   140d8: 93 85 05 21  	addi	a1, a1, 528
   140dc: ae f9        	sd	a1, 240(sp)
   140de: 8c 09        	addi	a1, sp, 208
   140e0: ae fd        	sd	a1, 248(sp)
   140e2: ce 75        	ld	a1, 240(sp)
   140e4: 6e 76        	ld	a2, 248(sp)
   140e6: 97 00 00 00  	auipc	ra, 0
   140ea: e7 80 e0 5b  	jalr	1470(ra)
   140ee: 06 65        	ld	a0, 64(sp)
   140f0: a2 75        	ld	a1, 40(sp)
;         self.oligarchy.init(max_order, base >> max_order);
   140f2: 13 05 05 20  	addi	a0, a0, 512
   140f6: 2a ec        	sd	a0, 24(sp)
   140f8: 4e 65        	ld	a0, 208(sp)
   140fa: 2a f0        	sd	a0, 32(sp)
   140fc: 13 05 f0 03  	li	a0, 63
   14100: 63 6f b5 00  	bltu	a0, a1, 0x1411e <.Lpcrel_hi55>
   14104: 09 a0        	j	0x14106 <.Lpcrel_hi54+0x6e>
   14106: a2 75        	ld	a1, 40(sp)
   14108: 62 65        	ld	a0, 24(sp)
   1410a: 02 76        	ld	a2, 32(sp)
   1410c: 33 56 b6 00  	srl	a2, a2, a1
   14110: 97 00 00 00  	auipc	ra, 0
   14114: e7 80 20 5b  	jalr	1458(ra)
;     }
   14118: f2 70        	ld	ra, 312(sp)
   1411a: 31 61        	addi	sp, sp, 320
   1411c: 82 80        	ret

000000000001411e <.Lpcrel_hi55>:
;         self.oligarchy.init(max_order, base >> max_order);
   1411e: 17 c5 ff ff  	auipc	a0, 1048572
   14122: 13 05 25 5f  	addi	a0, a0, 1522

0000000000014126 <.Lpcrel_hi56>:
   14126: 97 c5 ff ff  	auipc	a1, 1048572
   1412a: 13 86 25 7e  	addi	a2, a1, 2018
   1412e: 93 05 40 02  	li	a1, 36
   14132: 97 40 00 00  	auipc	ra, 4
   14136: e7 80 00 db  	jalr	-592(ra)
   1413a: 00 00        	unimp

000000000001413c <_ZN18customizable_buddy31BuddyAllocator$LT$_$C$O$C$B$GT$4init28_$u7b$$u7b$closure$u7d$$u7d$17hcad24c1f1b55ac27E>:
;         self.buddies.iter_mut().enumerate().for_each(|(i, c)| {
   1413c: 1d 71        	addi	sp, sp, -96
   1413e: 86 ec        	sd	ra, 88(sp)
   14140: 32 e4        	sd	a2, 8(sp)
   14142: 2e e8        	sd	a1, 16(sp)
   14144: aa 85        	mv	a1, a0
   14146: 42 65        	ld	a0, 16(sp)
   14148: 2e ec        	sd	a1, 24(sp)
   1414a: 2e f4        	sd	a1, 40(sp)
   1414c: 2a f8        	sd	a0, 48(sp)
   1414e: 32 fc        	sd	a2, 56(sp)
   14150: aa e0        	sd	a0, 64(sp)
   14152: b2 e4        	sd	a2, 72(sp)
;             let o = self.min_order + i;
   14154: 8c 61        	ld	a1, 0(a1)
   14156: 8c 61        	ld	a1, 0(a1)
   14158: 2e 95        	add	a0, a0, a1
   1415a: 2a f0        	sd	a0, 32(sp)
   1415c: 63 6e b5 00  	bltu	a0, a1, 0x14178 <.Lpcrel_hi57>
   14160: 09 a0        	j	0x14162 <_ZN18customizable_buddy31BuddyAllocator$LT$_$C$O$C$B$GT$4init28_$u7b$$u7b$closure$u7d$$u7d$17hcad24c1f1b55ac27E+0x26>
   14162: 02 75        	ld	a0, 32(sp)
   14164: e2 65        	ld	a1, 24(sp)
   14166: aa e8        	sd	a0, 80(sp)
;             c.init(o, base >> o)
   14168: 8c 65        	ld	a1, 8(a1)
   1416a: 8c 61        	ld	a1, 0(a1)
   1416c: 2e e0        	sd	a1, 0(sp)
   1416e: 93 05 00 04  	li	a1, 64
   14172: 63 61 b5 02  	bltu	a0, a1, 0x14194 <.Lpcrel_hi58+0x14>
   14176: 1d a8        	j	0x141ac <.Lpcrel_hi59>

0000000000014178 <.Lpcrel_hi57>:
;             let o = self.min_order + i;
   14178: 17 c5 ff ff  	auipc	a0, 1048572
   1417c: 13 05 85 46  	addi	a0, a0, 1128

0000000000014180 <.Lpcrel_hi58>:
   14180: 97 c5 ff ff  	auipc	a1, 1048572
   14184: 13 86 05 7a  	addi	a2, a1, 1952
   14188: f1 45        	li	a1, 28
   1418a: 97 40 00 00  	auipc	ra, 4
   1418e: e7 80 80 d5  	jalr	-680(ra)
   14192: 00 00        	unimp
;             c.init(o, base >> o)
   14194: 82 75        	ld	a1, 32(sp)
   14196: 22 65        	ld	a0, 8(sp)
   14198: 02 66        	ld	a2, 0(sp)
   1419a: 33 56 b6 00  	srl	a2, a2, a1
   1419e: 97 10 00 00  	auipc	ra, 1
   141a2: e7 80 40 8c  	jalr	-1852(ra)
;         });
   141a6: e6 60        	ld	ra, 88(sp)
   141a8: 25 61        	addi	sp, sp, 96
   141aa: 82 80        	ret

00000000000141ac <.Lpcrel_hi59>:
;             c.init(o, base >> o)
   141ac: 17 c5 ff ff  	auipc	a0, 1048572
   141b0: 13 05 45 56  	addi	a0, a0, 1380

00000000000141b4 <.Lpcrel_hi60>:
   141b4: 97 c5 ff ff  	auipc	a1, 1048572
   141b8: 13 86 45 78  	addi	a2, a1, 1924
   141bc: 93 05 40 02  	li	a1, 36
   141c0: 97 40 00 00  	auipc	ra, 4
   141c4: e7 80 20 d2  	jalr	-734(ra)
   141c8: 00 00        	unimp

00000000000141ca <_ZN18customizable_buddy31BuddyAllocator$LT$_$C$O$C$B$GT$8transfer17h01b39a1666d4f4c0E>:
;     pub unsafe fn transfer<T>(&mut self, ptr: NonNull<T>, size: usize) {
   141ca: 39 71        	addi	sp, sp, -64
   141cc: 06 fc        	sd	ra, 56(sp)
   141ce: 32 e0        	sd	a2, 0(sp)
   141d0: 2e e4        	sd	a1, 8(sp)
   141d2: 2a e8        	sd	a0, 16(sp)
   141d4: 2a f0        	sd	a0, 32(sp)
   141d6: 2e f4        	sd	a1, 40(sp)
   141d8: 32 f8        	sd	a2, 48(sp)
;         self.capacity += size;
   141da: 83 35 05 22  	ld	a1, 544(a0)
   141de: 33 85 c5 00  	add	a0, a1, a2
   141e2: 2a ec        	sd	a0, 24(sp)
   141e4: 63 60 b5 02  	bltu	a0, a1, 0x14204 <.Lpcrel_hi107>
   141e8: 09 a0        	j	0x141ea <_ZN18customizable_buddy31BuddyAllocator$LT$_$C$O$C$B$GT$8transfer17h01b39a1666d4f4c0E+0x20>
   141ea: 02 66        	ld	a2, 0(sp)
   141ec: a2 65        	ld	a1, 8(sp)
   141ee: 42 65        	ld	a0, 16(sp)
   141f0: e2 66        	ld	a3, 24(sp)
   141f2: 23 30 d5 22  	sd	a3, 544(a0)
;         self.deallocate(ptr, size)
   141f6: 97 00 00 00  	auipc	ra, 0
   141fa: e7 80 e0 8c  	jalr	-1842(ra)
;     }
   141fe: e2 70        	ld	ra, 56(sp)
   14200: 21 61        	addi	sp, sp, 64
   14202: 82 80        	ret

0000000000014204 <.Lpcrel_hi107>:
;         self.capacity += size;
   14204: 17 c5 ff ff  	auipc	a0, 1048572
   14208: 13 05 c5 3d  	addi	a0, a0, 988

000000000001420c <.Lpcrel_hi108>:
   1420c: 97 c5 ff ff  	auipc	a1, 1048572
   14210: 13 86 45 74  	addi	a2, a1, 1860
   14214: f1 45        	li	a1, 28
   14216: 97 40 00 00  	auipc	ra, 4
   1421a: e7 80 c0 cc  	jalr	-820(ra)
   1421e: 00 00        	unimp

0000000000014220 <_ZN18customizable_buddy31BuddyAllocator$LT$_$C$O$C$B$GT$9max_order17hf442ee7699f423bfE>:
;     const fn max_order(&self) -> usize {
   14220: 41 11        	addi	sp, sp, -16
   14222: 2a e4        	sd	a0, 8(sp)
;         self.min_order + Self::MAX_LAYER
   14224: 83 35 05 21  	ld	a1, 528(a0)
   14228: 13 85 05 02  	addi	a0, a1, 32
   1422c: 2a e0        	sd	a0, 0(sp)
   1422e: 63 66 b5 00  	bltu	a0, a1, 0x1423a <.Lpcrel_hi109>
   14232: 09 a0        	j	0x14234 <_ZN18customizable_buddy31BuddyAllocator$LT$_$C$O$C$B$GT$9max_order17hf442ee7699f423bfE+0x14>
;     }
   14234: 02 65        	ld	a0, 0(sp)
   14236: 41 01        	addi	sp, sp, 16
   14238: 82 80        	ret

000000000001423a <.Lpcrel_hi109>:
;         self.min_order + Self::MAX_LAYER
   1423a: 17 c5 ff ff  	auipc	a0, 1048572
   1423e: 13 05 65 3a  	addi	a0, a0, 934

0000000000014242 <.Lpcrel_hi110>:
   14242: 97 c5 ff ff  	auipc	a1, 1048572
   14246: 13 86 65 72  	addi	a2, a1, 1830
   1424a: f1 45        	li	a1, 28
   1424c: 97 40 00 00  	auipc	ra, 4
   14250: e7 80 60 c9  	jalr	-874(ra)
   14254: 00 00        	unimp

0000000000014256 <_ZN4core3num7nonzero12NonZeroUsize13leading_zeros17h7bd76dcad5e33323E>:
   14256: 41 11        	addi	sp, sp, -16
   14258: 2a e0        	sd	a0, 0(sp)
   1425a: 93 55 15 00  	srli	a1, a0, 1
   1425e: 4d 8d        	or	a0, a0, a1
   14260: 93 55 25 00  	srli	a1, a0, 2
   14264: 4d 8d        	or	a0, a0, a1
   14266: 93 55 45 00  	srli	a1, a0, 4
   1426a: 4d 8d        	or	a0, a0, a1
   1426c: 93 55 85 00  	srli	a1, a0, 8
   14270: 4d 8d        	or	a0, a0, a1
   14272: 93 55 05 01  	srli	a1, a0, 16
   14276: 4d 8d        	or	a0, a0, a1
   14278: 93 55 05 02  	srli	a1, a0, 32
   1427c: 4d 8d        	or	a0, a0, a1
   1427e: 13 45 f5 ff  	not	a0, a0
   14282: 93 55 15 00  	srli	a1, a0, 1
   14286: 37 56 55 55  	lui	a2, 349525
   1428a: 1b 06 56 55  	addiw	a2, a2, 1365
   1428e: 93 16 06 02  	slli	a3, a2, 32
   14292: 36 96        	add	a2, a2, a3
   14294: f1 8d        	and	a1, a1, a2
   14296: b3 05 b5 40  	sub	a1, a0, a1
   1429a: 37 35 33 33  	lui	a0, 209715
   1429e: 1b 05 35 33  	addiw	a0, a0, 819
   142a2: 13 16 05 02  	slli	a2, a0, 32
   142a6: 2a 96        	add	a2, a2, a0
   142a8: 33 f5 c5 00  	and	a0, a1, a2
   142ac: 89 81        	srli	a1, a1, 2
   142ae: f1 8d        	and	a1, a1, a2
   142b0: 2e 95        	add	a0, a0, a1
   142b2: 93 55 45 00  	srli	a1, a0, 4
   142b6: 2e 95        	add	a0, a0, a1
   142b8: b7 15 0f 0f  	lui	a1, 61681
   142bc: 9b 85 f5 f0  	addiw	a1, a1, -241
   142c0: 13 96 05 02  	slli	a2, a1, 32
   142c4: b2 95        	add	a1, a1, a2
   142c6: 6d 8d        	and	a0, a0, a1
   142c8: b7 05 01 01  	lui	a1, 4112
   142cc: 9b 85 15 10  	addiw	a1, a1, 257
   142d0: 13 96 05 02  	slli	a2, a1, 32
   142d4: b2 95        	add	a1, a1, a2
   142d6: 33 05 b5 02  	mul	a0, a0, a1
   142da: 61 91        	srli	a0, a0, 56
   142dc: 2a e4        	sd	a0, 8(sp)
   142de: 22 65        	ld	a0, 8(sp)
   142e0: 41 01        	addi	sp, sp, 16
   142e2: 82 80        	ret

00000000000142e4 <_ZN4core3num7nonzero12NonZeroUsize13new_unchecked17h52d6b14a71023a77E>:
   142e4: 41 11        	addi	sp, sp, -16
   142e6: 2a e4        	sd	a0, 8(sp)
   142e8: 2a e0        	sd	a0, 0(sp)
   142ea: 02 65        	ld	a0, 0(sp)
   142ec: 41 01        	addi	sp, sp, 16
   142ee: 82 80        	ret

00000000000142f0 <_ZN4core3num7nonzero12NonZeroUsize14trailing_zeros17h56c50fa8965b4dffE>:
   142f0: 41 11        	addi	sp, sp, -16
   142f2: 2a e0        	sd	a0, 0(sp)
   142f4: 81 45        	li	a1, 0
   142f6: 89 8d        	sub	a1, a1, a0
   142f8: 6d 8d        	and	a0, a0, a1

00000000000142fa <.Lpcrel_hi0>:
   142fa: 97 65 00 00  	auipc	a1, 6
   142fe: 93 85 e5 dd  	addi	a1, a1, -546
   14302: 8c 61        	ld	a1, 0(a1)
   14304: 33 05 b5 02  	mul	a0, a0, a1
   14308: 93 55 a5 03  	srli	a1, a0, 58

000000000001430c <.Lpcrel_hi1>:
   1430c: 17 c5 ff ff  	auipc	a0, 1048572
   14310: 13 05 45 67  	addi	a0, a0, 1652
   14314: 2e 95        	add	a0, a0, a1
   14316: 03 45 05 00  	lbu	a0, 0(a0)
   1431a: 2a e4        	sd	a0, 8(sp)
   1431c: 22 65        	ld	a0, 8(sp)
   1431e: 41 01        	addi	sp, sp, 16
   14320: 82 80        	ret

0000000000014322 <_ZN4core3num7nonzero12NonZeroUsize3get17h1150726c44d861d6E>:
   14322: 41 11        	addi	sp, sp, -16
   14324: 2a e4        	sd	a0, 8(sp)
   14326: 41 01        	addi	sp, sp, 16
   14328: 82 80        	ret

000000000001432a <_ZN4core4iter5range105_$LT$impl$u20$core..iter..traits..iterator..Iterator$u20$for$u20$core..ops..range..RangeFrom$LT$A$GT$$GT$4next17h512b7457b60e5aa9E>:
   1432a: 5d 71        	addi	sp, sp, -80
   1432c: 86 e4        	sd	ra, 72(sp)
   1432e: 2a e0        	sd	a0, 0(sp)
   14330: 2a f0        	sd	a0, 32(sp)
   14332: aa e0        	sd	a0, 64(sp)
   14334: 08 61        	ld	a0, 0(a0)
   14336: 85 45        	li	a1, 1
   14338: 2e e4        	sd	a1, 8(sp)
   1433a: 97 00 00 00  	auipc	ra, 0
   1433e: e7 80 e0 59  	jalr	1438(ra)
   14342: 82 66        	ld	a3, 0(sp)
   14344: 2a 86        	mv	a2, a0
   14346: 22 65        	ld	a0, 8(sp)
   14348: 32 f4        	sd	a2, 40(sp)
   1434a: 36 f8        	sd	a3, 48(sp)
   1434c: 8c 62        	ld	a1, 0(a3)
   1434e: 2e fc        	sd	a1, 56(sp)
   14350: 90 e2        	sd	a2, 0(a3)
   14352: 2e ec        	sd	a1, 24(sp)
   14354: 2a e8        	sd	a0, 16(sp)
   14356: 42 65        	ld	a0, 16(sp)
   14358: e2 65        	ld	a1, 24(sp)
   1435a: a6 60        	ld	ra, 72(sp)
   1435c: 61 61        	addi	sp, sp, 80
   1435e: 82 80        	ret

0000000000014360 <_ZN4core4iter6traits8iterator8Iterator4take17h029f856e50d462cdE>:
   14360: 01 11        	addi	sp, sp, -32
   14362: 2a e8        	sd	a0, 16(sp)
   14364: 2e ec        	sd	a1, 24(sp)
   14366: 2a e0        	sd	a0, 0(sp)
   14368: 2e e4        	sd	a1, 8(sp)
   1436a: 02 65        	ld	a0, 0(sp)
   1436c: a2 65        	ld	a1, 8(sp)
   1436e: 05 61        	addi	sp, sp, 32
   14370: 82 80        	ret

0000000000014372 <_ZN4core4iter6traits8iterator8Iterator8try_fold17h48149f5b7a920511E>:
   14372: 75 71        	addi	sp, sp, -144
   14374: 06 e5        	sd	ra, 136(sp)
   14376: 2a e4        	sd	a0, 8(sp)
   14378: 32 e8        	sd	a2, 16(sp)
   1437a: aa f0        	sd	a0, 96(sp)
   1437c: ae f4        	sd	a1, 104(sp)
   1437e: 2e f4        	sd	a1, 40(sp)
   14380: 09 a0        	j	0x14382 <_ZN4core4iter6traits8iterator8Iterator8try_fold17h48149f5b7a920511E+0x10>
   14382: 22 65        	ld	a0, 8(sp)
   14384: 97 00 00 00  	auipc	ra, 0
   14388: e7 80 60 fa  	jalr	-90(ra)
   1438c: 2e fc        	sd	a1, 56(sp)
   1438e: 2a f8        	sd	a0, 48(sp)
   14390: 42 75        	ld	a0, 48(sp)
   14392: 1d c5        	beqz	a0, 0x143c0 <_ZN4core4iter6traits8iterator8Iterator8try_fold17h48149f5b7a920511E+0x4e>
   14394: 09 a0        	j	0x14396 <_ZN4core4iter6traits8iterator8Iterator8try_fold17h48149f5b7a920511E+0x24>
   14396: 62 75        	ld	a0, 56(sp)
   14398: aa fc        	sd	a0, 120(sp)
   1439a: a2 75        	ld	a1, 40(sp)
   1439c: ae e8        	sd	a1, 80(sp)
   1439e: aa ec        	sd	a0, 88(sp)
   143a0: c6 65        	ld	a1, 80(sp)
   143a2: 66 66        	ld	a2, 88(sp)
   143a4: 08 08        	addi	a0, sp, 16
   143a6: 97 00 00 00  	auipc	ra, 0
   143aa: e7 80 60 0b  	jalr	182(ra)
   143ae: 97 00 00 00  	auipc	ra, 0
   143b2: e7 80 a0 62  	jalr	1578(ra)
   143b6: ae e4        	sd	a1, 72(sp)
   143b8: aa e0        	sd	a0, 64(sp)
   143ba: 06 65        	ld	a0, 64(sp)
   143bc: 11 c9        	beqz	a0, 0x143d0 <_ZN4core4iter6traits8iterator8Iterator8try_fold17h48149f5b7a920511E+0x5e>
   143be: 29 a8        	j	0x143d8 <_ZN4core4iter6traits8iterator8Iterator8try_fold17h48149f5b7a920511E+0x66>
   143c0: 22 75        	ld	a0, 40(sp)
   143c2: 97 00 00 00  	auipc	ra, 0
   143c6: e7 80 40 60  	jalr	1540(ra)
   143ca: 2e f0        	sd	a1, 32(sp)
   143cc: 2a ec        	sd	a0, 24(sp)
   143ce: 21 a8        	j	0x143e6 <_ZN4core4iter6traits8iterator8Iterator8try_fold17h48149f5b7a920511E+0x74>
   143d0: 26 65        	ld	a0, 72(sp)
   143d2: 2a e1        	sd	a0, 128(sp)
   143d4: 2a f4        	sd	a0, 40(sp)
   143d6: 75 b7        	j	0x14382 <_ZN4core4iter6traits8iterator8Iterator8try_fold17h48149f5b7a920511E+0x10>
   143d8: 97 00 00 00  	auipc	ra, 0
   143dc: e7 80 60 62  	jalr	1574(ra)
   143e0: 2e f0        	sd	a1, 32(sp)
   143e2: 2a ec        	sd	a0, 24(sp)
   143e4: 09 a0        	j	0x143e6 <_ZN4core4iter6traits8iterator8Iterator8try_fold17h48149f5b7a920511E+0x74>
   143e6: 62 65        	ld	a0, 24(sp)
   143e8: 82 75        	ld	a1, 32(sp)
   143ea: aa 60        	ld	ra, 136(sp)
   143ec: 49 61        	addi	sp, sp, 144
   143ee: 82 80        	ret

00000000000143f0 <_ZN63_$LT$I$u20$as$u20$core..iter..traits..collect..IntoIterator$GT$9into_iter17h584a7d9015d0ed5aE>:
   143f0: 41 11        	addi	sp, sp, -16
   143f2: 2a e4        	sd	a0, 8(sp)
   143f4: 41 01        	addi	sp, sp, 16
   143f6: 82 80        	ret

00000000000143f8 <_ZN100_$LT$core..iter..adapters..take..Take$LT$I$GT$$u20$as$u20$core..iter..traits..iterator..Iterator$GT$8for_each17h7a47cbde7c1f70e1E>:
   143f8: 01 11        	addi	sp, sp, -32
   143fa: 06 ec        	sd	ra, 24(sp)
   143fc: 2a e0        	sd	a0, 0(sp)
   143fe: 2e e4        	sd	a1, 8(sp)
   14400: 32 e8        	sd	a2, 16(sp)
   14402: 97 00 00 00  	auipc	ra, 0
   14406: e7 80 e0 00  	jalr	14(ra)
   1440a: e2 60        	ld	ra, 24(sp)
   1440c: 05 61        	addi	sp, sp, 32
   1440e: 82 80        	ret

0000000000014410 <_ZN98_$LT$core..iter..adapters..take..Take$LT$I$GT$$u20$as$u20$core..iter..adapters..take..SpecTake$GT$13spec_for_each17h8779507ceaa811e7E>:
   14410: 5d 71        	addi	sp, sp, -80
   14412: 86 e4        	sd	ra, 72(sp)
   14414: 32 e0        	sd	a2, 0(sp)
   14416: 2a e8        	sd	a0, 16(sp)
   14418: 2e ec        	sd	a1, 24(sp)
   1441a: 32 f8        	sd	a2, 48(sp)
   1441c: 05 45        	li	a0, 1
   1441e: a3 07 a1 02  	sb	a0, 47(sp)
   14422: 62 65        	ld	a0, 24(sp)
   14424: 2a e4        	sd	a0, 8(sp)
   14426: 2a fc        	sd	a0, 56(sp)
   14428: 19 e5        	bnez	a0, 0x14436 <_ZN98_$LT$core..iter..adapters..take..Take$LT$I$GT$$u20$as$u20$core..iter..adapters..take..SpecTake$GT$13spec_for_each17h8779507ceaa811e7E+0x26>
   1442a: 09 a0        	j	0x1442c <_ZN98_$LT$core..iter..adapters..take..Take$LT$I$GT$$u20$as$u20$core..iter..adapters..take..SpecTake$GT$13spec_for_each17h8779507ceaa811e7E+0x1c>
   1442c: 03 45 f1 02  	lbu	a0, 47(sp)
   14430: 05 89        	andi	a0, a0, 1
   14432: 05 e5        	bnez	a0, 0x1445a <_ZN98_$LT$core..iter..adapters..take..Take$LT$I$GT$$u20$as$u20$core..iter..adapters..take..SpecTake$GT$13spec_for_each17h8779507ceaa811e7E+0x4a>
   14434: 05 a0        	j	0x14454 <_ZN98_$LT$core..iter..adapters..take..Take$LT$I$GT$$u20$as$u20$core..iter..adapters..take..SpecTake$GT$13spec_for_each17h8779507ceaa811e7E+0x44>
   14436: 02 65        	ld	a0, 0(sp)
   14438: a2 65        	ld	a1, 8(sp)
   1443a: fd 15        	addi	a1, a1, -1
   1443c: 01 46        	li	a2, 0
   1443e: a3 07 c1 02  	sb	a2, 47(sp)
   14442: aa e0        	sd	a0, 64(sp)
   14444: 2a f0        	sd	a0, 32(sp)
   14446: 02 76        	ld	a2, 32(sp)
   14448: 08 08        	addi	a0, sp, 16
   1444a: 97 00 00 00  	auipc	ra, 0
   1444e: e7 80 80 f2  	jalr	-216(ra)
   14452: e9 bf        	j	0x1442c <_ZN98_$LT$core..iter..adapters..take..Take$LT$I$GT$$u20$as$u20$core..iter..adapters..take..SpecTake$GT$13spec_for_each17h8779507ceaa811e7E+0x1c>
   14454: a6 60        	ld	ra, 72(sp)
   14456: 61 61        	addi	sp, sp, 80
   14458: 82 80        	ret
   1445a: ed bf        	j	0x14454 <_ZN98_$LT$core..iter..adapters..take..Take$LT$I$GT$$u20$as$u20$core..iter..adapters..take..SpecTake$GT$13spec_for_each17h8779507ceaa811e7E+0x44>

000000000001445c <_ZN98_$LT$core..iter..adapters..take..Take$LT$I$GT$$u20$as$u20$core..iter..adapters..take..SpecTake$GT$13spec_for_each5check28_$u7b$$u7b$closure$u7d$$u7d$17hc8ba3c348e21d15aE>:
   1445c: 19 71        	addi	sp, sp, -128
   1445e: 86 fc        	sd	ra, 120(sp)
   14460: 2e e4        	sd	a1, 8(sp)
   14462: 85 46        	li	a3, 1
   14464: 36 ec        	sd	a3, 24(sp)
   14466: 36 f0        	sd	a3, 32(sp)
   14468: aa e0        	sd	a0, 64(sp)
   1446a: ae e4        	sd	a1, 72(sp)
   1446c: b2 e8        	sd	a2, 80(sp)
   1446e: 32 fc        	sd	a2, 56(sp)
   14470: e2 75        	ld	a1, 56(sp)
   14472: 97 00 00 00  	auipc	ra, 0
   14476: e7 80 e0 b3  	jalr	-1218(ra)
   1447a: 22 65        	ld	a0, 8(sp)
   1447c: 93 05 f5 ff  	addi	a1, a0, -1
   14480: 2e e8        	sd	a1, 16(sp)
   14482: 13 35 15 00  	seqz	a0, a0
   14486: ae ec        	sd	a1, 88(sp)
   14488: a3 03 a1 06  	sb	a0, 103(sp)
   1448c: ae f4        	sd	a1, 104(sp)
   1448e: a3 0b a1 06  	sb	a0, 119(sp)
   14492: 03 45 71 07  	lbu	a0, 119(sp)
   14496: 05 89        	andi	a0, a0, 1
   14498: 19 e5        	bnez	a0, 0x144a6 <_ZN98_$LT$core..iter..adapters..take..Take$LT$I$GT$$u20$as$u20$core..iter..adapters..take..SpecTake$GT$13spec_for_each5check28_$u7b$$u7b$closure$u7d$$u7d$17hc8ba3c348e21d15aE+0x4a>
   1449a: 09 a0        	j	0x1449c <_ZN98_$LT$core..iter..adapters..take..Take$LT$I$GT$$u20$as$u20$core..iter..adapters..take..SpecTake$GT$13spec_for_each5check28_$u7b$$u7b$closure$u7d$$u7d$17hc8ba3c348e21d15aE+0x40>
   1449c: 42 65        	ld	a0, 16(sp)
   1449e: 2a f8        	sd	a0, 48(sp)
   144a0: 05 45        	li	a0, 1
   144a2: 2a f4        	sd	a0, 40(sp)
   144a4: 21 a0        	j	0x144ac <_ZN98_$LT$core..iter..adapters..take..Take$LT$I$GT$$u20$as$u20$core..iter..adapters..take..SpecTake$GT$13spec_for_each5check28_$u7b$$u7b$closure$u7d$$u7d$17hc8ba3c348e21d15aE+0x50>
   144a6: 01 45        	li	a0, 0
   144a8: 2a f4        	sd	a0, 40(sp)
   144aa: 09 a0        	j	0x144ac <_ZN98_$LT$core..iter..adapters..take..Take$LT$I$GT$$u20$as$u20$core..iter..adapters..take..SpecTake$GT$13spec_for_each5check28_$u7b$$u7b$closure$u7d$$u7d$17hc8ba3c348e21d15aE+0x50>
   144ac: 22 75        	ld	a0, 40(sp)
   144ae: c2 75        	ld	a1, 48(sp)
   144b0: e6 70        	ld	ra, 120(sp)
   144b2: 09 61        	addi	sp, sp, 128
   144b4: 82 80        	ret

00000000000144b6 <_ZN4core9panicking13assert_failed17hdb95cdeadb9ada2cE>:
   144b6: 01 11        	addi	sp, sp, -32
   144b8: 3a 88        	mv	a6, a4
   144ba: b6 87        	mv	a5, a3
   144bc: 2e e4        	sd	a1, 8(sp)
   144be: 32 e8        	sd	a2, 16(sp)
   144c0: a3 0f a1 00  	sb	a0, 31(sp)

00000000000144c4 <.Lpcrel_hi0>:
   144c4: 97 c5 ff ff  	auipc	a1, 1048572
   144c8: 13 87 c5 4f  	addi	a4, a1, 1276
   144cc: 2c 00        	addi	a1, sp, 8
   144ce: 14 08        	addi	a3, sp, 16
   144d0: 3a 86        	mv	a2, a4
   144d2: 97 40 00 00  	auipc	ra, 4
   144d6: e7 80 c0 a7  	jalr	-1412(ra)
   144da: 00 00        	unimp

00000000000144dc <_ZN4core5slice29_$LT$impl$u20$$u5b$T$u5d$$GT$8iter_mut17h310815d697b6952fE>:
   144dc: 1d 71        	addi	sp, sp, -96
   144de: 2e e4        	sd	a1, 8(sp)
   144e0: 2a e8        	sd	a0, 16(sp)
   144e2: 2a fc        	sd	a0, 56(sp)
   144e4: ae e0        	sd	a1, 64(sp)
   144e6: aa e4        	sd	a0, 72(sp)
   144e8: 01 45        	li	a0, 0
   144ea: 09 e9        	bnez	a0, 0x144fc <_ZN4core5slice29_$LT$impl$u20$$u5b$T$u5d$$GT$8iter_mut17h310815d697b6952fE+0x20>
   144ec: 09 a0        	j	0x144ee <_ZN4core5slice29_$LT$impl$u20$$u5b$T$u5d$$GT$8iter_mut17h310815d697b6952fE+0x12>
   144ee: 42 65        	ld	a0, 16(sp)
   144f0: a2 65        	ld	a1, 8(sp)
   144f2: ae e8        	sd	a1, 80(sp)
   144f4: 92 05        	slli	a1, a1, 4
   144f6: 2e 95        	add	a0, a0, a1
   144f8: 2a f4        	sd	a0, 40(sp)
   144fa: 29 a0        	j	0x14504 <_ZN4core5slice29_$LT$impl$u20$$u5b$T$u5d$$GT$8iter_mut17h310815d697b6952fE+0x28>
   144fc: 22 65        	ld	a0, 8(sp)
   144fe: aa ec        	sd	a0, 88(sp)
   14500: 2a f4        	sd	a0, 40(sp)
   14502: 09 a0        	j	0x14504 <_ZN4core5slice29_$LT$impl$u20$$u5b$T$u5d$$GT$8iter_mut17h310815d697b6952fE+0x28>
   14504: 42 65        	ld	a0, 16(sp)
   14506: 2a f8        	sd	a0, 48(sp)
   14508: 22 75        	ld	a0, 40(sp)
   1450a: c2 75        	ld	a1, 48(sp)
   1450c: 2e ec        	sd	a1, 24(sp)
   1450e: 2a f0        	sd	a0, 32(sp)
   14510: 62 65        	ld	a0, 24(sp)
   14512: 82 75        	ld	a1, 32(sp)
   14514: 25 61        	addi	sp, sp, 96
   14516: 82 80        	ret

0000000000014518 <_ZN4core4iter6traits8iterator8Iterator9enumerate17h8d1b5dc3b1d13e9eE>:
   14518: 01 11        	addi	sp, sp, -32
   1451a: 2e e4        	sd	a1, 8(sp)
   1451c: aa 85        	mv	a1, a0
   1451e: 22 65        	ld	a0, 8(sp)
   14520: 2a e8        	sd	a0, 16(sp)
   14522: 32 ec        	sd	a2, 24(sp)
   14524: 88 e1        	sd	a0, 0(a1)
   14526: 90 e5        	sd	a2, 8(a1)
   14528: 01 45        	li	a0, 0
   1452a: 88 e9        	sd	a0, 16(a1)
   1452c: 05 61        	addi	sp, sp, 32
   1452e: 82 80        	ret

0000000000014530 <_ZN94_$LT$core..slice..iter..IterMut$LT$T$GT$$u20$as$u20$core..iter..traits..iterator..Iterator$GT$4fold17h9b48bf5e7f19893fE>:
   14530: 11 71        	addi	sp, sp, -256
   14532: 86 fd        	sd	ra, 248(sp)
   14534: 32 e8        	sd	a2, 16(sp)
   14536: 05 46        	li	a2, 1
   14538: 32 ec        	sd	a2, 24(sp)
   1453a: 2a f0        	sd	a0, 32(sp)
   1453c: 2e f4        	sd	a1, 40(sp)
   1453e: 01 45        	li	a0, 0
   14540: 05 e5        	bnez	a0, 0x14568 <_ZN94_$LT$core..slice..iter..IterMut$LT$T$GT$$u20$as$u20$core..iter..traits..iterator..Iterator$GT$4fold17h9b48bf5e7f19893fE+0x38>
   14542: 09 a0        	j	0x14544 <_ZN94_$LT$core..slice..iter..IterMut$LT$T$GT$$u20$as$u20$core..iter..traits..iterator..Iterator$GT$4fold17h9b48bf5e7f19893fE+0x14>
   14544: 28 10        	addi	a0, sp, 40
   14546: aa f4        	sd	a0, 104(sp)
   14548: 22 75        	ld	a0, 40(sp)
   1454a: 2a fc        	sd	a0, 56(sp)
   1454c: 08 10        	addi	a0, sp, 32
   1454e: aa f8        	sd	a0, 112(sp)
   14550: 28 18        	addi	a0, sp, 56
   14552: aa fc        	sd	a0, 120(sp)
   14554: 02 75        	ld	a0, 32(sp)
   14556: 2a e1        	sd	a0, 128(sp)
   14558: e2 75        	ld	a1, 56(sp)
   1455a: 2e e5        	sd	a1, 136(sp)
   1455c: 2d 8d        	xor	a0, a0, a1
   1455e: 13 35 15 00  	seqz	a0, a0
   14562: a3 0b a1 02  	sb	a0, 55(sp)
   14566: 09 a8        	j	0x14578 <_ZN94_$LT$core..slice..iter..IterMut$LT$T$GT$$u20$as$u20$core..iter..traits..iterator..Iterator$GT$4fold17h9b48bf5e7f19893fE+0x48>
   14568: 22 75        	ld	a0, 40(sp)
   1456a: 2a e9        	sd	a0, 144(sp)
   1456c: 2a ed        	sd	a0, 152(sp)
   1456e: 13 35 15 00  	seqz	a0, a0
   14572: a3 0b a1 02  	sb	a0, 55(sp)
   14576: 09 a0        	j	0x14578 <_ZN94_$LT$core..slice..iter..IterMut$LT$T$GT$$u20$as$u20$core..iter..traits..iterator..Iterator$GT$4fold17h9b48bf5e7f19893fE+0x48>
   14578: 03 45 71 03  	lbu	a0, 55(sp)
   1457c: 05 89        	andi	a0, a0, 1
   1457e: 11 e5        	bnez	a0, 0x1458a <_ZN94_$LT$core..slice..iter..IterMut$LT$T$GT$$u20$as$u20$core..iter..traits..iterator..Iterator$GT$4fold17h9b48bf5e7f19893fE+0x5a>
   14580: 09 a0        	j	0x14582 <_ZN94_$LT$core..slice..iter..IterMut$LT$T$GT$$u20$as$u20$core..iter..traits..iterator..Iterator$GT$4fold17h9b48bf5e7f19893fE+0x52>
   14582: 01 45        	li	a0, 0
   14584: aa e0        	sd	a0, 64(sp)
   14586: 15 e1        	bnez	a0, 0x145aa <_ZN94_$LT$core..slice..iter..IterMut$LT$T$GT$$u20$as$u20$core..iter..traits..iterator..Iterator$GT$4fold17h9b48bf5e7f19893fE+0x7a>
   14588: 11 a0        	j	0x1458c <_ZN94_$LT$core..slice..iter..IterMut$LT$T$GT$$u20$as$u20$core..iter..traits..iterator..Iterator$GT$4fold17h9b48bf5e7f19893fE+0x5c>
   1458a: 41 a8        	j	0x1461a <.Lpcrel_hi1+0x5e>
   1458c: 28 10        	addi	a0, sp, 40
   1458e: 2a f1        	sd	a0, 160(sp)
   14590: a2 75        	ld	a1, 40(sp)
   14592: 2e e0        	sd	a1, 0(sp)
   14594: 2e f5        	sd	a1, 168(sp)
   14596: 02 75        	ld	a0, 32(sp)
   14598: 2a e4        	sd	a0, 8(sp)
   1459a: 2a f9        	sd	a0, 176(sp)
   1459c: 2e fd        	sd	a1, 184(sp)
   1459e: aa e1        	sd	a0, 192(sp)
   145a0: 41 45        	li	a0, 16
   145a2: aa e5        	sd	a0, 200(sp)
   145a4: 05 45        	li	a0, 1
   145a6: 15 e5        	bnez	a0, 0x145d2 <.Lpcrel_hi1+0x16>
   145a8: 31 a0        	j	0x145b4 <.Lpcrel_hi0>
   145aa: 22 75        	ld	a0, 40(sp)
   145ac: aa e9        	sd	a0, 208(sp)
   145ae: aa ed        	sd	a0, 216(sp)
   145b0: aa e4        	sd	a0, 72(sp)
   145b2: 0d a8        	j	0x145e4 <.Lpcrel_hi1+0x28>

00000000000145b4 <.Lpcrel_hi0>:
   145b4: 17 c5 ff ff  	auipc	a0, 1048572
   145b8: 13 05 c5 42  	addi	a0, a0, 1068

00000000000145bc <.Lpcrel_hi1>:
   145bc: 97 c5 ff ff  	auipc	a1, 1048572
   145c0: 13 86 45 4c  	addi	a2, a1, 1220
   145c4: 93 05 90 04  	li	a1, 73
   145c8: 97 40 00 00  	auipc	ra, 4
   145cc: e7 80 a0 91  	jalr	-1766(ra)
   145d0: 00 00        	unimp
   145d2: 01 45        	li	a0, 0
   145d4: 65 f1        	bnez	a0, 0x145b4 <.Lpcrel_hi0>
   145d6: 09 a0        	j	0x145d8 <.Lpcrel_hi1+0x1c>
   145d8: 02 65        	ld	a0, 0(sp)
   145da: a2 65        	ld	a1, 8(sp)
   145dc: 0d 8d        	sub	a0, a0, a1
   145de: 11 81        	srli	a0, a0, 4
   145e0: aa e4        	sd	a0, 72(sp)
   145e2: 09 a0        	j	0x145e4 <.Lpcrel_hi1+0x28>
   145e4: 09 a0        	j	0x145e6 <.Lpcrel_hi1+0x2a>
   145e6: 42 65        	ld	a0, 16(sp)
   145e8: 82 75        	ld	a1, 32(sp)
   145ea: ae f1        	sd	a1, 224(sp)
   145ec: 06 66        	ld	a2, 64(sp)
   145ee: b2 f5        	sd	a2, 232(sp)
   145f0: 12 06        	slli	a2, a2, 4
   145f2: b2 95        	add	a1, a1, a2
   145f4: ae ec        	sd	a1, 88(sp)
   145f6: e6 65        	ld	a1, 88(sp)
   145f8: ae e8        	sd	a1, 80(sp)
   145fa: c6 65        	ld	a1, 80(sp)
   145fc: 97 00 00 00  	auipc	ra, 0
   14600: e7 80 00 05  	jalr	80(ra)
   14604: 06 65        	ld	a0, 64(sp)
   14606: aa f9        	sd	a0, 240(sp)
   14608: 05 05        	addi	a0, a0, 1
   1460a: aa e0        	sd	a0, 64(sp)
   1460c: 06 65        	ld	a0, 64(sp)
   1460e: a6 65        	ld	a1, 72(sp)
   14610: 63 04 b5 00  	beq	a0, a1, 0x14618 <.Lpcrel_hi1+0x5c>
   14614: 09 a0        	j	0x14616 <.Lpcrel_hi1+0x5a>
   14616: c1 bf        	j	0x145e6 <.Lpcrel_hi1+0x2a>
   14618: 09 a0        	j	0x1461a <.Lpcrel_hi1+0x5e>
   1461a: ee 70        	ld	ra, 248(sp)
   1461c: 11 61        	addi	sp, sp, 256
   1461e: 82 80        	ret

0000000000014620 <_ZN110_$LT$core..iter..adapters..enumerate..Enumerate$LT$I$GT$$u20$as$u20$core..iter..traits..iterator..Iterator$GT$4fold17ha0d8fe0b38e1865dE>:
   14620: 39 71        	addi	sp, sp, -64
   14622: 06 fc        	sd	ra, 56(sp)
   14624: b2 86        	mv	a3, a2
   14626: 2e 87        	mv	a4, a1
   14628: 2a 86        	mv	a2, a0
   1462a: 3a f0        	sd	a4, 32(sp)
   1462c: 36 f4        	sd	a3, 40(sp)
   1462e: 08 62        	ld	a0, 0(a2)
   14630: 0c 66        	ld	a1, 8(a2)
   14632: 10 6a        	ld	a2, 16(a2)
   14634: 32 f8        	sd	a2, 48(sp)
   14636: 3a e0        	sd	a4, 0(sp)
   14638: 36 e4        	sd	a3, 8(sp)
   1463a: 32 e8        	sd	a2, 16(sp)
   1463c: 0a 86        	mv	a2, sp
   1463e: 97 00 00 00  	auipc	ra, 0
   14642: e7 80 20 ef  	jalr	-270(ra)
   14646: e2 70        	ld	ra, 56(sp)
   14648: 21 61        	addi	sp, sp, 64
   1464a: 82 80        	ret

000000000001464c <_ZN110_$LT$core..iter..adapters..enumerate..Enumerate$LT$I$GT$$u20$as$u20$core..iter..traits..iterator..Iterator$GT$4fold9enumerate28_$u7b$$u7b$closure$u7d$$u7d$17h67e22e208ba95250E>:
   1464c: 1d 71        	addi	sp, sp, -96
   1464e: 86 ec        	sd	ra, 88(sp)
   14650: 2a e4        	sd	a0, 8(sp)
   14652: aa e0        	sd	a0, 64(sp)
   14654: ae e8        	sd	a1, 80(sp)
   14656: 10 69        	ld	a2, 16(a0)
   14658: 32 f4        	sd	a2, 40(sp)
   1465a: 2e f8        	sd	a1, 48(sp)
   1465c: 22 76        	ld	a2, 40(sp)
   1465e: c2 75        	ld	a1, 48(sp)
   14660: 32 ec        	sd	a2, 24(sp)
   14662: 2e f0        	sd	a1, 32(sp)
   14664: e2 65        	ld	a1, 24(sp)
   14666: 02 76        	ld	a2, 32(sp)
   14668: 97 00 00 00  	auipc	ra, 0
   1466c: e7 80 60 2e  	jalr	742(ra)
   14670: 22 65        	ld	a0, 8(sp)
   14672: 08 69        	ld	a0, 16(a0)
   14674: 05 05        	addi	a0, a0, 1
   14676: 2a e8        	sd	a0, 16(sp)
   14678: 01 c9        	beqz	a0, 0x14688 <.Lpcrel_hi0>
   1467a: 09 a0        	j	0x1467c <_ZN110_$LT$core..iter..adapters..enumerate..Enumerate$LT$I$GT$$u20$as$u20$core..iter..traits..iterator..Iterator$GT$4fold9enumerate28_$u7b$$u7b$closure$u7d$$u7d$17h67e22e208ba95250E+0x30>
   1467c: 42 65        	ld	a0, 16(sp)
   1467e: a2 65        	ld	a1, 8(sp)
   14680: 88 e9        	sd	a0, 16(a1)
   14682: e6 60        	ld	ra, 88(sp)
   14684: 25 61        	addi	sp, sp, 96
   14686: 82 80        	ret

0000000000014688 <.Lpcrel_hi0>:
   14688: 17 c5 ff ff  	auipc	a0, 1048572
   1468c: 13 05 85 48  	addi	a0, a0, 1160

0000000000014690 <.Lpcrel_hi1>:
   14690: 97 c5 ff ff  	auipc	a1, 1048572
   14694: 13 86 85 46  	addi	a2, a1, 1128
   14698: f1 45        	li	a1, 28
   1469a: 97 40 00 00  	auipc	ra, 4
   1469e: e7 80 80 84  	jalr	-1976(ra)
   146a2: 00 00        	unimp

00000000000146a4 <_ZN4core4iter6traits8iterator8Iterator8for_each17hb845256f6f23ab47E>:
   146a4: 79 71        	addi	sp, sp, -48
   146a6: 06 f4        	sd	ra, 40(sp)
   146a8: 2e ec        	sd	a1, 24(sp)
   146aa: 32 f0        	sd	a2, 32(sp)
   146ac: 2e e4        	sd	a1, 8(sp)
   146ae: 32 e8        	sd	a2, 16(sp)
   146b0: a2 65        	ld	a1, 8(sp)
   146b2: 42 66        	ld	a2, 16(sp)
   146b4: 97 00 00 00  	auipc	ra, 0
   146b8: e7 80 c0 f6  	jalr	-148(ra)
   146bc: a2 70        	ld	ra, 40(sp)
   146be: 45 61        	addi	sp, sp, 48
   146c0: 82 80        	ret

00000000000146c2 <_ZN88_$LT$customizable_buddy..bitmap..UsizeBuddy$u20$as$u20$customizable_buddy..BuddyLine$GT$4init17he21dbb38a3502ba7E>:
;     fn init(&mut self, _order: usize, base: usize) {
   146c2: 01 11        	addi	sp, sp, -32
   146c4: 2a e4        	sd	a0, 8(sp)
   146c6: 2e e8        	sd	a1, 16(sp)
   146c8: 32 ec        	sd	a2, 24(sp)
;         self.base = base;
   146ca: 10 e5        	sd	a2, 8(a0)
;     }
   146cc: 05 61        	addi	sp, sp, 32
   146ce: 82 80        	ret

00000000000146d0 <_ZN98_$LT$customizable_buddy..bitmap..UsizeBuddy$u20$as$u20$customizable_buddy..OligarchyCollection$GT$3put17h878d5a0a1869e421E>:
;     fn put(&mut self, idx: usize) {
   146d0: 01 11        	addi	sp, sp, -32
   146d2: 2a e0        	sd	a0, 0(sp)
   146d4: 2a e8        	sd	a0, 16(sp)
   146d6: 2e ec        	sd	a1, 24(sp)
;         self.bits |= 1 << (idx - self.base);
   146d8: 08 65        	ld	a0, 8(a0)
   146da: 33 86 a5 40  	sub	a2, a1, a0
   146de: 32 e4        	sd	a2, 8(sp)
   146e0: 63 e9 a5 00  	bltu	a1, a0, 0x146f2 <.Lpcrel_hi0>
   146e4: 09 a0        	j	0x146e6 <_ZN98_$LT$customizable_buddy..bitmap..UsizeBuddy$u20$as$u20$customizable_buddy..OligarchyCollection$GT$3put17h878d5a0a1869e421E+0x16>
   146e6: 22 65        	ld	a0, 8(sp)
   146e8: 93 05 00 04  	li	a1, 64
;         self.bits |= 1 << (idx - self.base);
   146ec: 63 62 b5 02  	bltu	a0, a1, 0x14710 <.Lpcrel_hi1+0x16>
   146f0: 15 a8        	j	0x14724 <.Lpcrel_hi2>

00000000000146f2 <.Lpcrel_hi0>:
   146f2: 17 c5 ff ff  	auipc	a0, 1048572
   146f6: 13 05 e5 4b  	addi	a0, a0, 1214

00000000000146fa <.Lpcrel_hi1>:
   146fa: 97 c5 ff ff  	auipc	a1, 1048572
   146fe: 13 86 e5 49  	addi	a2, a1, 1182
   14702: 93 05 10 02  	li	a1, 33
   14706: 97 30 00 00  	auipc	ra, 3
   1470a: e7 80 c0 7d  	jalr	2012(ra)
   1470e: 00 00        	unimp
   14710: 82 65        	ld	a1, 0(sp)
   14712: 22 66        	ld	a2, 8(sp)
   14714: 05 45        	li	a0, 1
;         self.bits |= 1 << (idx - self.base);
   14716: 33 16 c5 00  	sll	a2, a0, a2
   1471a: 88 61        	ld	a0, 0(a1)
   1471c: 51 8d        	or	a0, a0, a2
   1471e: 88 e1        	sd	a0, 0(a1)
;     }
   14720: 05 61        	addi	sp, sp, 32
   14722: 82 80        	ret

0000000000014724 <.Lpcrel_hi2>:
;         self.bits |= 1 << (idx - self.base);
   14724: 17 c5 ff ff  	auipc	a0, 1048572
   14728: 13 05 c5 4c  	addi	a0, a0, 1228

000000000001472c <.Lpcrel_hi3>:
   1472c: 97 c5 ff ff  	auipc	a1, 1048572
   14730: 13 86 c5 4a  	addi	a2, a1, 1196
   14734: 93 05 30 02  	li	a1, 35
   14738: 97 30 00 00  	auipc	ra, 3
   1473c: e7 80 a0 7a  	jalr	1962(ra)
   14740: 00 00        	unimp

0000000000014742 <_ZN4core3fmt9Arguments6new_v117hc8824267564f6ef3E>:
   14742: 71 71        	addi	sp, sp, -176
   14744: 3a e4        	sd	a4, 8(sp)
   14746: 36 e8        	sd	a3, 16(sp)
   14748: 32 ec        	sd	a2, 24(sp)
   1474a: 2e f0        	sd	a1, 32(sp)
   1474c: 2a f4        	sd	a0, 40(sp)
   1474e: 2e e1        	sd	a1, 128(sp)
   14750: 32 e5        	sd	a2, 136(sp)
   14752: 36 e9        	sd	a3, 144(sp)
   14754: 3a ed        	sd	a4, 152(sp)
   14756: 63 69 e6 00  	bltu	a2, a4, 0x14768 <_ZN4core3fmt9Arguments6new_v117hc8824267564f6ef3E+0x26>
   1475a: 09 a0        	j	0x1475c <_ZN4core3fmt9Arguments6new_v117hc8824267564f6ef3E+0x1a>
   1475c: e2 65        	ld	a1, 24(sp)
   1475e: 22 65        	ld	a0, 8(sp)
   14760: 05 05        	addi	a0, a0, 1
   14762: 63 65 b5 02  	bltu	a0, a1, 0x1478c <.Lpcrel_hi0>
   14766: 11 a0        	j	0x1476a <_ZN4core3fmt9Arguments6new_v117hc8824267564f6ef3E+0x28>
   14768: 15 a0        	j	0x1478c <.Lpcrel_hi0>
   1476a: 22 65        	ld	a0, 8(sp)
   1476c: a2 75        	ld	a1, 40(sp)
   1476e: 42 66        	ld	a2, 16(sp)
   14770: e2 66        	ld	a3, 24(sp)
   14772: 02 77        	ld	a4, 32(sp)
   14774: 81 47        	li	a5, 0
   14776: be f0        	sd	a5, 96(sp)
   14778: 98 e1        	sd	a4, 0(a1)
   1477a: 94 e5        	sd	a3, 8(a1)
   1477c: 06 77        	ld	a4, 96(sp)
   1477e: a6 76        	ld	a3, 104(sp)
   14780: 98 f1        	sd	a4, 32(a1)
   14782: 94 f5        	sd	a3, 40(a1)
   14784: 90 e9        	sd	a2, 16(a1)
   14786: 88 ed        	sd	a0, 24(a1)
   14788: 4d 61        	addi	sp, sp, 176
   1478a: 82 80        	ret

000000000001478c <.Lpcrel_hi0>:
   1478c: 17 c5 ff ff  	auipc	a0, 1048572
   14790: 13 06 45 49  	addi	a2, a0, 1172
   14794: 32 f1        	sd	a2, 160(sp)
   14796: 85 45        	li	a1, 1
   14798: 2e f5        	sd	a1, 168(sp)
   1479a: 01 45        	li	a0, 0
   1479c: aa f8        	sd	a0, 112(sp)
   1479e: 32 f8        	sd	a2, 48(sp)
   147a0: 2e fc        	sd	a1, 56(sp)
   147a2: 46 76        	ld	a2, 112(sp)
   147a4: e6 75        	ld	a1, 120(sp)
   147a6: b2 e8        	sd	a2, 80(sp)
   147a8: ae ec        	sd	a1, 88(sp)

00000000000147aa <.Lpcrel_hi1>:
   147aa: 97 c5 ff ff  	auipc	a1, 1048572
   147ae: 93 85 65 48  	addi	a1, a1, 1158
   147b2: ae e0        	sd	a1, 64(sp)
   147b4: aa e4        	sd	a0, 72(sp)

00000000000147b6 <.Lpcrel_hi2>:
   147b6: 17 c5 ff ff  	auipc	a0, 1048572
   147ba: 93 05 a5 4c  	addi	a1, a0, 1226
   147be: 08 18        	addi	a0, sp, 48
   147c0: 97 30 00 00  	auipc	ra, 3
   147c4: e7 80 40 6f  	jalr	1780(ra)
   147c8: 00 00        	unimp

00000000000147ca <_ZN4core3fmt9Arguments9new_const17hb63028fe8ff3d0ecE>:
   147ca: 19 71        	addi	sp, sp, -128
   147cc: 86 fc        	sd	ra, 120(sp)
   147ce: 32 e8        	sd	a2, 16(sp)
   147d0: 2e ec        	sd	a1, 24(sp)
   147d2: 2a f0        	sd	a0, 32(sp)
   147d4: ae f4        	sd	a1, 104(sp)
   147d6: b2 f8        	sd	a2, 112(sp)
   147d8: 05 45        	li	a0, 1
   147da: 63 67 c5 02  	bltu	a0, a2, 0x14808 <.Lpcrel_hi4>
   147de: 09 a0        	j	0x147e0 <_ZN4core3fmt9Arguments9new_const17hb63028fe8ff3d0ecE+0x16>
   147e0: 82 75        	ld	a1, 32(sp)
   147e2: 42 66        	ld	a2, 16(sp)
   147e4: e2 66        	ld	a3, 24(sp)
   147e6: 01 45        	li	a0, 0
   147e8: aa ec        	sd	a0, 88(sp)
   147ea: 94 e1        	sd	a3, 0(a1)
   147ec: 90 e5        	sd	a2, 8(a1)
   147ee: e6 66        	ld	a3, 88(sp)
   147f0: 06 76        	ld	a2, 96(sp)
   147f2: 94 f1        	sd	a3, 32(a1)
   147f4: 90 f5        	sd	a2, 40(a1)

00000000000147f6 <.Lpcrel_hi3>:
   147f6: 17 c6 ff ff  	auipc	a2, 1048572
   147fa: 13 06 a6 43  	addi	a2, a2, 1082
   147fe: 90 e9        	sd	a2, 16(a1)
   14800: 88 ed        	sd	a0, 24(a1)
   14802: e6 70        	ld	ra, 120(sp)
   14804: 09 61        	addi	sp, sp, 128
   14806: 82 80        	ret

0000000000014808 <.Lpcrel_hi4>:
   14808: 17 c5 ff ff  	auipc	a0, 1048572
   1480c: 93 05 85 41  	addi	a1, a0, 1048
   14810: 28 10        	addi	a0, sp, 40
   14812: 2a e4        	sd	a0, 8(sp)
   14814: 05 46        	li	a2, 1
   14816: 97 00 00 00  	auipc	ra, 0
   1481a: e7 80 40 fb  	jalr	-76(ra)
   1481e: 22 65        	ld	a0, 8(sp)

0000000000014820 <.Lpcrel_hi5>:
   14820: 97 c5 ff ff  	auipc	a1, 1048572
   14824: 93 85 85 47  	addi	a1, a1, 1144
   14828: 97 30 00 00  	auipc	ra, 3
   1482c: e7 80 c0 68  	jalr	1676(ra)
   14830: 00 00        	unimp

0000000000014832 <_ZN4core3cmp3Ord3min17h7afcb747bfb921f0E>:
   14832: 41 11        	addi	sp, sp, -16
   14834: 06 e4        	sd	ra, 8(sp)
   14836: 2a c0        	sw	a0, 0(sp)
   14838: 2e c2        	sw	a1, 4(sp)
   1483a: 97 00 00 00  	auipc	ra, 0
   1483e: e7 80 e0 00  	jalr	14(ra)
   14842: a2 60        	ld	ra, 8(sp)
   14844: 41 01        	addi	sp, sp, 16
   14846: 82 80        	ret

0000000000014848 <_ZN4core3cmp6min_by17hf6973387c8bbffa1E>:
   14848: 79 71        	addi	sp, sp, -48
   1484a: 06 f4        	sd	ra, 40(sp)
   1484c: 2a c0        	sw	a0, 0(sp)
   1484e: 2e c2        	sw	a1, 4(sp)
   14850: 05 45        	li	a0, 1
   14852: 23 03 a1 02  	sb	a0, 38(sp)
   14856: a3 02 a1 02  	sb	a0, 37(sp)
   1485a: 0a 85        	mv	a0, sp
   1485c: 2a e8        	sd	a0, 16(sp)
   1485e: 48 00        	addi	a0, sp, 4
   14860: 2a ec        	sd	a0, 24(sp)
   14862: 42 65        	ld	a0, 16(sp)
   14864: e2 65        	ld	a1, 24(sp)
   14866: 97 f0 ff ff  	auipc	ra, 1048575
   1486a: e7 80 20 e7  	jalr	-398(ra)
   1486e: a3 07 a1 00  	sb	a0, 15(sp)
   14872: 03 45 f1 00  	lbu	a0, 15(sp)
   14876: 05 25        	addiw	a0, a0, 1
   14878: 13 75 f5 0f  	andi	a0, a0, 255
   1487c: 89 45        	li	a1, 2
   1487e: 63 65 b5 00  	bltu	a0, a1, 0x14888 <_ZN4core3cmp6min_by17hf6973387c8bbffa1E+0x40>
   14882: 09 a0        	j	0x14884 <_ZN4core3cmp6min_by17hf6973387c8bbffa1E+0x3c>
   14884: 01 a8        	j	0x14894 <_ZN4core3cmp6min_by17hf6973387c8bbffa1E+0x4c>
   14886: 00 00        	unimp
   14888: 01 45        	li	a0, 0
   1488a: 23 03 a1 02  	sb	a0, 38(sp)
   1488e: 02 45        	lw	a0, 0(sp)
   14890: 2a c4        	sw	a0, 8(sp)
   14892: 39 a0        	j	0x148a0 <_ZN4core3cmp6min_by17hf6973387c8bbffa1E+0x58>
   14894: 01 45        	li	a0, 0
   14896: a3 02 a1 02  	sb	a0, 37(sp)
   1489a: 12 45        	lw	a0, 4(sp)
   1489c: 2a c4        	sw	a0, 8(sp)
   1489e: 09 a0        	j	0x148a0 <_ZN4core3cmp6min_by17hf6973387c8bbffa1E+0x58>
   148a0: 03 45 51 02  	lbu	a0, 37(sp)
   148a4: 05 89        	andi	a0, a0, 1
   148a6: 19 e5        	bnez	a0, 0x148b4 <_ZN4core3cmp6min_by17hf6973387c8bbffa1E+0x6c>
   148a8: 09 a0        	j	0x148aa <_ZN4core3cmp6min_by17hf6973387c8bbffa1E+0x62>
   148aa: 03 45 61 02  	lbu	a0, 38(sp)
   148ae: 05 89        	andi	a0, a0, 1
   148b0: 19 e5        	bnez	a0, 0x148be <_ZN4core3cmp6min_by17hf6973387c8bbffa1E+0x76>
   148b2: 11 a0        	j	0x148b6 <_ZN4core3cmp6min_by17hf6973387c8bbffa1E+0x6e>
   148b4: dd bf        	j	0x148aa <_ZN4core3cmp6min_by17hf6973387c8bbffa1E+0x62>
   148b6: 22 45        	lw	a0, 8(sp)
   148b8: a2 70        	ld	ra, 40(sp)
   148ba: 45 61        	addi	sp, sp, 48
   148bc: 82 80        	ret
   148be: e5 bf        	j	0x148b6 <_ZN4core3cmp6min_by17hf6973387c8bbffa1E+0x6e>

00000000000148c0 <_ZN4core5panic10panic_info9PanicInfo7message17h7d2151cff4b391b8E>:
   148c0: 41 11        	addi	sp, sp, -16
   148c2: 2a e4        	sd	a0, 8(sp)
   148c4: 08 69        	ld	a0, 16(a0)
   148c6: 41 01        	addi	sp, sp, 16
   148c8: 82 80        	ret

00000000000148ca <_ZN4core5panic10panic_info9PanicInfo8location17h897dcc2bdf5033b5E>:
   148ca: 41 11        	addi	sp, sp, -16
   148cc: 2a e4        	sd	a0, 8(sp)
   148ce: 08 6d        	ld	a0, 24(a0)
   148d0: 2a e0        	sd	a0, 0(sp)
   148d2: 02 65        	ld	a0, 0(sp)
   148d4: 41 01        	addi	sp, sp, 16
   148d6: 82 80        	ret

00000000000148d8 <_ZN49_$LT$usize$u20$as$u20$core..iter..range..Step$GT$7forward17h8498a33dac2839c9E>:
   148d8: 59 71        	addi	sp, sp, -112
   148da: 2e e0        	sd	a1, 0(sp)
   148dc: 2a e4        	sd	a0, 8(sp)
   148de: 2a f8        	sd	a0, 48(sp)
   148e0: 2e fc        	sd	a1, 56(sp)
   148e2: 2e f4        	sd	a1, 40(sp)
   148e4: a2 75        	ld	a1, 40(sp)
   148e6: ae e0        	sd	a1, 64(sp)
   148e8: aa 95        	add	a1, a1, a0
   148ea: 2e e8        	sd	a1, 16(sp)
   148ec: 33 b5 a5 00  	sltu	a0, a1, a0
   148f0: ae e4        	sd	a1, 72(sp)
   148f2: a3 0b a1 04  	sb	a0, 87(sp)
   148f6: ae ec        	sd	a1, 88(sp)
   148f8: a3 03 a1 06  	sb	a0, 103(sp)
   148fc: 03 45 71 06  	lbu	a0, 103(sp)
   14900: 05 89        	andi	a0, a0, 1
   14902: 19 e5        	bnez	a0, 0x14910 <_ZN49_$LT$usize$u20$as$u20$core..iter..range..Step$GT$7forward17h8498a33dac2839c9E+0x38>
   14904: 09 a0        	j	0x14906 <_ZN49_$LT$usize$u20$as$u20$core..iter..range..Step$GT$7forward17h8498a33dac2839c9E+0x2e>
   14906: 42 65        	ld	a0, 16(sp)
   14908: 2a f0        	sd	a0, 32(sp)
   1490a: 05 45        	li	a0, 1
   1490c: 2a ec        	sd	a0, 24(sp)
   1490e: 21 a0        	j	0x14916 <_ZN49_$LT$usize$u20$as$u20$core..iter..range..Step$GT$7forward17h8498a33dac2839c9E+0x3e>
   14910: 01 45        	li	a0, 0
   14912: 2a ec        	sd	a0, 24(sp)
   14914: 09 a0        	j	0x14916 <_ZN49_$LT$usize$u20$as$u20$core..iter..range..Step$GT$7forward17h8498a33dac2839c9E+0x3e>
   14916: 28 08        	addi	a0, sp, 24
   14918: aa f4        	sd	a0, 104(sp)
   1491a: 62 65        	ld	a0, 24(sp)
   1491c: 19 c1        	beqz	a0, 0x14922 <_ZN49_$LT$usize$u20$as$u20$core..iter..range..Step$GT$7forward17h8498a33dac2839c9E+0x4a>
   1491e: 09 a0        	j	0x14920 <_ZN49_$LT$usize$u20$as$u20$core..iter..range..Step$GT$7forward17h8498a33dac2839c9E+0x48>
   14920: 21 a0        	j	0x14928 <_ZN49_$LT$usize$u20$as$u20$core..iter..range..Step$GT$7forward17h8498a33dac2839c9E+0x50>
   14922: 05 45        	li	a0, 1
   14924: 19 e5        	bnez	a0, 0x14932 <.Lpcrel_hi0>
   14926: 09 a0        	j	0x14928 <_ZN49_$LT$usize$u20$as$u20$core..iter..range..Step$GT$7forward17h8498a33dac2839c9E+0x50>
   14928: 22 65        	ld	a0, 8(sp)
   1492a: 82 65        	ld	a1, 0(sp)
   1492c: 2e 95        	add	a0, a0, a1
   1492e: 65 61        	addi	sp, sp, 112
   14930: 82 80        	ret

0000000000014932 <.Lpcrel_hi0>:
   14932: 17 c5 ff ff  	auipc	a0, 1048572
   14936: 13 05 e5 3e  	addi	a0, a0, 1006

000000000001493a <.Lpcrel_hi1>:
   1493a: 97 c5 ff ff  	auipc	a1, 1048572
   1493e: 13 86 65 3c  	addi	a2, a1, 966
   14942: f1 45        	li	a1, 28
   14944: 97 30 00 00  	auipc	ra, 3
   14948: e7 80 e0 59  	jalr	1438(ra)
   1494c: 00 00        	unimp

000000000001494e <_ZN4core4iter6traits8iterator8Iterator8for_each4call28_$u7b$$u7b$closure$u7d$$u7d$17hf994ae2487e408a7E>:
   1494e: 39 71        	addi	sp, sp, -64
   14950: 06 fc        	sd	ra, 56(sp)
   14952: 2a ec        	sd	a0, 24(sp)
   14954: 2e f4        	sd	a1, 40(sp)
   14956: 32 f8        	sd	a2, 48(sp)
   14958: 2e e4        	sd	a1, 8(sp)
   1495a: 32 e8        	sd	a2, 16(sp)
   1495c: a2 65        	ld	a1, 8(sp)
   1495e: 42 66        	ld	a2, 16(sp)
   14960: 97 f0 ff ff  	auipc	ra, 1048575
   14964: e7 80 c0 7d  	jalr	2012(ra)
   14968: e2 70        	ld	ra, 56(sp)
   1496a: 21 61        	addi	sp, sp, 64
   1496c: 82 80        	ret

000000000001496e <_ZN4core6option15Option$LT$T$GT$6unwrap17h6a75dd183f25cac2E>:
   1496e: 01 11        	addi	sp, sp, -32
   14970: 2e e4        	sd	a1, 8(sp)
   14972: 2a e8        	sd	a0, 16(sp)
   14974: 42 65        	ld	a0, 16(sp)
   14976: 11 ed        	bnez	a0, 0x14992 <.Lpcrel_hi0+0x16>
   14978: 09 a0        	j	0x1497a <_ZN4core6option15Option$LT$T$GT$6unwrap17h6a75dd183f25cac2E+0xc>
   1497a: 22 66        	ld	a2, 8(sp)

000000000001497c <.Lpcrel_hi0>:
   1497c: 17 c5 ff ff  	auipc	a0, 1048572
   14980: 13 05 05 3c  	addi	a0, a0, 960
   14984: 93 05 b0 02  	li	a1, 43
   14988: 97 30 00 00  	auipc	ra, 3
   1498c: e7 80 a0 55  	jalr	1370(ra)
   14990: 00 00        	unimp
   14992: 42 65        	ld	a0, 16(sp)
   14994: 2a ec        	sd	a0, 24(sp)
   14996: 05 61        	addi	sp, sp, 32
   14998: 82 80        	ret

000000000001499a <_ZN4core6option15Option$LT$T$GT$6unwrap17h9c65b1478541b7a6E>:
   1499a: 01 11        	addi	sp, sp, -32
   1499c: 2e e4        	sd	a1, 8(sp)
   1499e: 2a e8        	sd	a0, 16(sp)
   149a0: 42 65        	ld	a0, 16(sp)
   149a2: 11 ed        	bnez	a0, 0x149be <.Lpcrel_hi1+0x16>
   149a4: 09 a0        	j	0x149a6 <_ZN4core6option15Option$LT$T$GT$6unwrap17h9c65b1478541b7a6E+0xc>
   149a6: 22 66        	ld	a2, 8(sp)

00000000000149a8 <.Lpcrel_hi1>:
   149a8: 17 c5 ff ff  	auipc	a0, 1048572
   149ac: 13 05 45 39  	addi	a0, a0, 916
   149b0: 93 05 b0 02  	li	a1, 43
   149b4: 97 30 00 00  	auipc	ra, 3
   149b8: e7 80 e0 52  	jalr	1326(ra)
   149bc: 00 00        	unimp
   149be: 42 65        	ld	a0, 16(sp)
   149c0: 2a ec        	sd	a0, 24(sp)
   149c2: 05 61        	addi	sp, sp, 32
   149c4: 82 80        	ret

00000000000149c6 <_ZN75_$LT$core..option..Option$LT$T$GT$$u20$as$u20$core..ops..try_trait..Try$GT$11from_output17h64cdafc0ba9a3aebE>:
   149c6: 01 11        	addi	sp, sp, -32
   149c8: 2a ec        	sd	a0, 24(sp)
   149ca: 2a e8        	sd	a0, 16(sp)
   149cc: 05 45        	li	a0, 1
   149ce: 2a e4        	sd	a0, 8(sp)
   149d0: 22 65        	ld	a0, 8(sp)
   149d2: c2 65        	ld	a1, 16(sp)
   149d4: 05 61        	addi	sp, sp, 32
   149d6: 82 80        	ret

00000000000149d8 <_ZN75_$LT$core..option..Option$LT$T$GT$$u20$as$u20$core..ops..try_trait..Try$GT$6branch17h9d141d79b7a99aa0E>:
   149d8: 79 71        	addi	sp, sp, -48
   149da: 2a e4        	sd	a0, 8(sp)
   149dc: 2e e8        	sd	a1, 16(sp)
   149de: 22 65        	ld	a0, 8(sp)
   149e0: 09 e5        	bnez	a0, 0x149ea <_ZN75_$LT$core..option..Option$LT$T$GT$$u20$as$u20$core..ops..try_trait..Try$GT$6branch17h9d141d79b7a99aa0E+0x12>
   149e2: 09 a0        	j	0x149e4 <_ZN75_$LT$core..option..Option$LT$T$GT$$u20$as$u20$core..ops..try_trait..Try$GT$6branch17h9d141d79b7a99aa0E+0xc>
   149e4: 05 45        	li	a0, 1
   149e6: 2a ec        	sd	a0, 24(sp)
   149e8: 39 a0        	j	0x149f6 <_ZN75_$LT$core..option..Option$LT$T$GT$$u20$as$u20$core..ops..try_trait..Try$GT$6branch17h9d141d79b7a99aa0E+0x1e>
   149ea: 42 65        	ld	a0, 16(sp)
   149ec: 2a f4        	sd	a0, 40(sp)
   149ee: 2a f0        	sd	a0, 32(sp)
   149f0: 01 45        	li	a0, 0
   149f2: 2a ec        	sd	a0, 24(sp)
   149f4: 09 a0        	j	0x149f6 <_ZN75_$LT$core..option..Option$LT$T$GT$$u20$as$u20$core..ops..try_trait..Try$GT$6branch17h9d141d79b7a99aa0E+0x1e>
   149f6: 62 65        	ld	a0, 24(sp)
   149f8: 82 75        	ld	a1, 32(sp)
   149fa: 45 61        	addi	sp, sp, 48
   149fc: 82 80        	ret

00000000000149fe <_ZN84_$LT$core..option..Option$LT$T$GT$$u20$as$u20$core..ops..try_trait..FromResidual$GT$13from_residual17hbecab1c8d5876eebE>:
   149fe: 01 11        	addi	sp, sp, -32
   14a00: 01 45        	li	a0, 0
   14a02: 2a e4        	sd	a0, 8(sp)
   14a04: 22 65        	ld	a0, 8(sp)
   14a06: c2 65        	ld	a1, 16(sp)
   14a08: 05 61        	addi	sp, sp, 32
   14a0a: 82 80        	ret

0000000000014a0c <_ZN18customizable_buddy5Order3new17ha03e1436c8641051E>:
;     const fn new(order: usize) -> Self {
   14a0c: 41 11        	addi	sp, sp, -16
   14a0e: 2a e4        	sd	a0, 8(sp)
;         Self(order)
   14a10: 2a e0        	sd	a0, 0(sp)
;     }
   14a12: 02 65        	ld	a0, 0(sp)
   14a14: 41 01        	addi	sp, sp, 16
   14a16: 82 80        	ret

0000000000014a18 <_ZN18customizable_buddy7nonzero17hd1311e86628f565fE>:
; const fn nonzero(val: usize) -> NonZeroUsize {
   14a18: 41 11        	addi	sp, sp, -16
   14a1a: 06 e4        	sd	ra, 8(sp)
   14a1c: 2a e0        	sd	a0, 0(sp)
;     unsafe { NonZeroUsize::new_unchecked(val) }
   14a1e: 97 00 00 00  	auipc	ra, 0
   14a22: e7 80 60 8c  	jalr	-1850(ra)
; }
   14a26: a2 60        	ld	ra, 8(sp)
   14a28: 41 01        	addi	sp, sp, 16
   14a2a: 82 80        	ret

0000000000014a2c <_ZN42_$LT$$RF$T$u20$as$u20$core..fmt..Debug$GT$3fmt17h85f25826840ff164E>:
   14a2c: 01 11        	addi	sp, sp, -32
   14a2e: 06 ec        	sd	ra, 24(sp)
   14a30: 2a e4        	sd	a0, 8(sp)
   14a32: 2e e8        	sd	a1, 16(sp)
   14a34: 08 61        	ld	a0, 0(a0)
   14a36: 97 f0 ff ff  	auipc	ra, 1048575
   14a3a: e7 80 e0 c3  	jalr	-962(ra)
   14a3e: e2 60        	ld	ra, 24(sp)
   14a40: 05 61        	addi	sp, sp, 32
   14a42: 82 80        	ret

0000000000014a44 <_ZN44_$LT$$RF$T$u20$as$u20$core..fmt..Display$GT$3fmt17hc5f83658fc98cc95E>:
   14a44: 01 11        	addi	sp, sp, -32
   14a46: 06 ec        	sd	ra, 24(sp)
   14a48: 2e 86        	mv	a2, a1
   14a4a: aa 85        	mv	a1, a0
   14a4c: 2e e4        	sd	a1, 8(sp)
   14a4e: 32 e8        	sd	a2, 16(sp)
   14a50: 88 61        	ld	a0, 0(a1)
   14a52: 8c 65        	ld	a1, 8(a1)
   14a54: 97 40 00 00  	auipc	ra, 4
   14a58: e7 80 c0 03  	jalr	60(ra)
   14a5c: e2 60        	ld	ra, 24(sp)
   14a5e: 05 61        	addi	sp, sp, 32
   14a60: 82 80        	ret

0000000000014a62 <_ZN98_$LT$customizable_buddy..linked_list..LinkedListBuddy$u20$as$u20$customizable_buddy..BuddyLine$GT$4init17h70e7d23cecf2a765E>:
;     fn init(&mut self, order: usize, _base: usize) {
   14a62: 79 71        	addi	sp, sp, -48
   14a64: 06 f4        	sd	ra, 40(sp)
   14a66: 2e e0        	sd	a1, 0(sp)
   14a68: aa 85        	mv	a1, a0
   14a6a: 02 65        	ld	a0, 0(sp)
   14a6c: 2e e4        	sd	a1, 8(sp)
   14a6e: 2e e8        	sd	a1, 16(sp)
   14a70: 2a ec        	sd	a0, 24(sp)
   14a72: 32 f0        	sd	a2, 32(sp)
;         self.order = Order::new(order);
   14a74: 97 00 00 00  	auipc	ra, 0
   14a78: e7 80 80 f9  	jalr	-104(ra)
   14a7c: a2 65        	ld	a1, 8(sp)
   14a7e: 88 e5        	sd	a0, 8(a1)
;     }
   14a80: a2 70        	ld	ra, 40(sp)
   14a82: 45 61        	addi	sp, sp, 48
   14a84: 82 80        	ret

0000000000014a86 <_ZN4core3fmt5Write10write_char17hc2489b19d55aaa1cE>:
   14a86: 1d 71        	addi	sp, sp, -96
   14a88: 86 ec        	sd	ra, 88(sp)
   14a8a: 2e e4        	sd	a1, 8(sp)
   14a8c: aa 85        	mv	a1, a0
   14a8e: 22 65        	ld	a0, 8(sp)
   14a90: 2e e8        	sd	a1, 16(sp)
   14a92: 2e f4        	sd	a1, 40(sp)
   14a94: 2a da        	sw	a0, 52(sp)
   14a96: 81 45        	li	a1, 0
   14a98: 2e d2        	sw	a1, 36(sp)
   14a9a: 4c 10        	addi	a1, sp, 36
   14a9c: 2e fc        	sd	a1, 56(sp)
   14a9e: 11 46        	li	a2, 4
   14aa0: b2 e0        	sd	a2, 64(sp)
   14aa2: 97 00 00 00  	auipc	ra, 0
   14aa6: e7 80 20 08  	jalr	130(ra)
   14aaa: 2a 86        	mv	a2, a0
   14aac: 42 65        	ld	a0, 16(sp)
   14aae: 32 ec        	sd	a2, 24(sp)
   14ab0: 2e 86        	mv	a2, a1
   14ab2: e2 65        	ld	a1, 24(sp)
   14ab4: ae e4        	sd	a1, 72(sp)
   14ab6: b2 e8        	sd	a2, 80(sp)
   14ab8: 97 10 00 00  	auipc	ra, 1
   14abc: e7 80 40 f5  	jalr	-172(ra)
   14ac0: e6 60        	ld	ra, 88(sp)
   14ac2: 25 61        	addi	sp, sp, 96
   14ac4: 82 80        	ret

0000000000014ac6 <_ZN4core3fmt5Write9write_fmt17h6193655994bf0eb0E>:
   14ac6: 41 11        	addi	sp, sp, -16
   14ac8: 06 e4        	sd	ra, 8(sp)
   14aca: 2a e0        	sd	a0, 0(sp)
   14acc: 97 00 00 00  	auipc	ra, 0
   14ad0: e7 80 e0 00  	jalr	14(ra)
   14ad4: a2 60        	ld	ra, 8(sp)
   14ad6: 41 01        	addi	sp, sp, 16
   14ad8: 82 80        	ret

0000000000014ada <_ZN75_$LT$$RF$mut$u20$W$u20$as$u20$core..fmt..Write..write_fmt..SpecWriteFmt$GT$14spec_write_fmt17h663bd2759c3a72a4E>:
   14ada: 41 11        	addi	sp, sp, -16
   14adc: 06 e4        	sd	ra, 8(sp)
   14ade: 2e 86        	mv	a2, a1
   14ae0: 2a e0        	sd	a0, 0(sp)

0000000000014ae2 <.Lpcrel_hi0>:
   14ae2: 97 c5 ff ff  	auipc	a1, 1048572
   14ae6: 93 85 65 28  	addi	a1, a1, 646
   14aea: 97 40 00 00  	auipc	ra, 4
   14aee: e7 80 e0 8e  	jalr	-1810(ra)
   14af2: a2 60        	ld	ra, 8(sp)
   14af4: 41 01        	addi	sp, sp, 16
   14af6: 82 80        	ret

0000000000014af8 <_ZN13rcore_console12init_console28_$u7b$$u7b$closure$u7d$$u7d$17hce71eb6accc029c8E>:
;     CONSOLE.call_once(|| console);
   14af8: 41 11        	addi	sp, sp, -16
   14afa: 2a e0        	sd	a0, 0(sp)
   14afc: 2e e4        	sd	a1, 8(sp)
   14afe: 02 65        	ld	a0, 0(sp)
   14b00: a2 65        	ld	a1, 8(sp)
   14b02: 41 01        	addi	sp, sp, 16
   14b04: 82 80        	ret

0000000000014b06 <_ZN13rcore_console13set_log_level28_$u7b$$u7b$closure$u7d$$u7d$17h5b78332866309443E>:
;     log::set_max_level(env.and_then(|s| Lv::from_str(s).ok()).unwrap_or(Lv::Trace));
   14b06: 01 11        	addi	sp, sp, -32
   14b08: 06 ec        	sd	ra, 24(sp)
   14b0a: 2a e4        	sd	a0, 8(sp)
   14b0c: 2e e8        	sd	a1, 16(sp)
   14b0e: 97 30 00 00  	auipc	ra, 3
   14b12: e7 80 00 ad  	jalr	-1328(ra)
   14b16: 97 10 00 00  	auipc	ra, 1
   14b1a: e7 80 a0 6c  	jalr	1738(ra)
   14b1e: e2 60        	ld	ra, 24(sp)
   14b20: 05 61        	addi	sp, sp, 32
   14b22: 82 80        	ret

0000000000014b24 <_ZN4core4char7methods15encode_utf8_raw17h4812ceb2ba1f4c74E>:
   14b24: 65 71        	addi	sp, sp, -400
   14b26: 06 e7        	sd	ra, 392(sp)
   14b28: 32 ec        	sd	a2, 24(sp)
   14b2a: 2e f0        	sd	a1, 32(sp)
   14b2c: 2a da        	sw	a0, 52(sp)
   14b2e: ae f5        	sd	a1, 232(sp)
   14b30: b2 f9        	sd	a2, 240(sp)
   14b32: 52 55        	lw	a0, 52(sp)
   14b34: 2a f4        	sd	a0, 40(sp)
   14b36: aa df        	sw	a0, 252(sp)
   14b38: 93 05 00 08  	li	a1, 128
   14b3c: 63 68 b5 00  	bltu	a0, a1, 0x14b4c <_ZN4core4char7methods15encode_utf8_raw17h4812ceb2ba1f4c74E+0x28>
   14b40: 09 a0        	j	0x14b42 <_ZN4core4char7methods15encode_utf8_raw17h4812ceb2ba1f4c74E+0x1e>
   14b42: 22 75        	ld	a0, 40(sp)
   14b44: 1b 55 b5 00  	srliw	a0, a0, 11
   14b48: 11 c9        	beqz	a0, 0x14b5c <_ZN4core4char7methods15encode_utf8_raw17h4812ceb2ba1f4c74E+0x38>
   14b4a: 21 a0        	j	0x14b52 <_ZN4core4char7methods15encode_utf8_raw17h4812ceb2ba1f4c74E+0x2e>
   14b4c: 05 45        	li	a0, 1
   14b4e: 2a fc        	sd	a0, 56(sp)
   14b50: 0d a0        	j	0x14b72 <_ZN4core4char7methods15encode_utf8_raw17h4812ceb2ba1f4c74E+0x4e>
   14b52: 22 75        	ld	a0, 40(sp)
   14b54: 1b 55 05 01  	srliw	a0, a0, 16
   14b58: 01 c9        	beqz	a0, 0x14b68 <_ZN4core4char7methods15encode_utf8_raw17h4812ceb2ba1f4c74E+0x44>
   14b5a: 21 a0        	j	0x14b62 <_ZN4core4char7methods15encode_utf8_raw17h4812ceb2ba1f4c74E+0x3e>
   14b5c: 09 45        	li	a0, 2
   14b5e: 2a fc        	sd	a0, 56(sp)
   14b60: 01 a8        	j	0x14b70 <_ZN4core4char7methods15encode_utf8_raw17h4812ceb2ba1f4c74E+0x4c>
   14b62: 11 45        	li	a0, 4
   14b64: 2a fc        	sd	a0, 56(sp)
   14b66: 21 a0        	j	0x14b6e <_ZN4core4char7methods15encode_utf8_raw17h4812ceb2ba1f4c74E+0x4a>
   14b68: 0d 45        	li	a0, 3
   14b6a: 2a fc        	sd	a0, 56(sp)
   14b6c: 09 a0        	j	0x14b6e <_ZN4core4char7methods15encode_utf8_raw17h4812ceb2ba1f4c74E+0x4a>
   14b6e: 09 a0        	j	0x14b70 <_ZN4core4char7methods15encode_utf8_raw17h4812ceb2ba1f4c74E+0x4c>
   14b70: 09 a0        	j	0x14b72 <_ZN4core4char7methods15encode_utf8_raw17h4812ceb2ba1f4c74E+0x4e>
   14b72: 62 75        	ld	a0, 56(sp)
   14b74: 2a e8        	sd	a0, 16(sp)
   14b76: 85 45        	li	a1, 1
   14b78: 63 0e b5 08  	beq	a0, a1, 0x14c14 <.Lpcrel_hi3+0x12>
   14b7c: 09 a0        	j	0x14b7e <_ZN4core4char7methods15encode_utf8_raw17h4812ceb2ba1f4c74E+0x5a>
   14b7e: 42 65        	ld	a0, 16(sp)
   14b80: 89 45        	li	a1, 2
   14b82: 63 0c b5 08  	beq	a0, a1, 0x14c1a <.Lpcrel_hi3+0x18>
   14b86: 09 a0        	j	0x14b88 <_ZN4core4char7methods15encode_utf8_raw17h4812ceb2ba1f4c74E+0x64>
   14b88: 42 65        	ld	a0, 16(sp)
   14b8a: 8d 45        	li	a1, 3
   14b8c: 63 0c b5 08  	beq	a0, a1, 0x14c24 <.Lpcrel_hi3+0x22>
   14b90: 09 a0        	j	0x14b92 <_ZN4core4char7methods15encode_utf8_raw17h4812ceb2ba1f4c74E+0x6e>
   14b92: 42 65        	ld	a0, 16(sp)
   14b94: 91 45        	li	a1, 4
   14b96: 63 0c b5 08  	beq	a0, a1, 0x14c2e <.Lpcrel_hi3+0x2c>
   14b9a: 09 a0        	j	0x14b9c <_ZN4core4char7methods15encode_utf8_raw17h4812ceb2ba1f4c74E+0x78>
   14b9c: e2 65        	ld	a1, 24(sp)
   14b9e: 30 18        	addi	a2, sp, 56
   14ba0: b2 ee        	sd	a2, 344(sp)

0000000000014ba2 <.Lpcrel_hi0>:
   14ba2: 17 45 00 00  	auipc	a0, 4
   14ba6: 13 05 a5 42  	addi	a0, a0, 1066
   14baa: aa f2        	sd	a0, 352(sp)
   14bac: 32 f1        	sd	a2, 160(sp)
   14bae: 2a f5        	sd	a0, 168(sp)
   14bb0: 54 18        	addi	a3, sp, 52
   14bb2: b6 f6        	sd	a3, 360(sp)

0000000000014bb4 <.Lpcrel_hi1>:
   14bb4: 17 46 00 00  	auipc	a2, 4
   14bb8: 13 06 c6 13  	addi	a2, a2, 316
   14bbc: b2 fa        	sd	a2, 368(sp)
   14bbe: 36 f9        	sd	a3, 176(sp)
   14bc0: 32 fd        	sd	a2, 184(sp)
   14bc2: ae e9        	sd	a1, 208(sp)
   14bc4: 8c 09        	addi	a1, sp, 208
   14bc6: ae fe        	sd	a1, 376(sp)
   14bc8: 2a e3        	sd	a0, 384(sp)
   14bca: ae e1        	sd	a1, 192(sp)
   14bcc: aa e5        	sd	a0, 200(sp)
   14bce: 8a 75        	ld	a1, 160(sp)
   14bd0: 2a 75        	ld	a0, 168(sp)
   14bd2: ae f8        	sd	a1, 112(sp)
   14bd4: aa fc        	sd	a0, 120(sp)
   14bd6: ca 75        	ld	a1, 176(sp)
   14bd8: 6a 75        	ld	a0, 184(sp)
   14bda: 2e e1        	sd	a1, 128(sp)
   14bdc: 2a e5        	sd	a0, 136(sp)
   14bde: 8e 65        	ld	a1, 192(sp)
   14be0: 2e 65        	ld	a0, 200(sp)
   14be2: 2e e9        	sd	a1, 144(sp)
   14be4: 2a ed        	sd	a0, 152(sp)

0000000000014be6 <.Lpcrel_hi2>:
   14be6: 17 c5 ff ff  	auipc	a0, 1048572
   14bea: 93 05 a5 25  	addi	a1, a0, 602
   14bee: 88 00        	addi	a0, sp, 64
   14bf0: 2a e4        	sd	a0, 8(sp)
   14bf2: 94 18        	addi	a3, sp, 112
   14bf4: 0d 47        	li	a4, 3
   14bf6: 3a 86        	mv	a2, a4
   14bf8: 97 00 00 00  	auipc	ra, 0
   14bfc: e7 80 c0 1a  	jalr	428(ra)
   14c00: 22 65        	ld	a0, 8(sp)

0000000000014c02 <.Lpcrel_hi3>:
   14c02: 97 c5 ff ff  	auipc	a1, 1048572
   14c06: 93 85 e5 26  	addi	a1, a1, 622
   14c0a: 97 30 00 00  	auipc	ra, 3
   14c0e: e7 80 a0 2a  	jalr	682(ra)
   14c12: 00 00        	unimp
   14c14: 62 65        	ld	a0, 24(sp)
   14c16: 0d e1        	bnez	a0, 0x14c38 <.Lpcrel_hi3+0x36>
   14c18: 51 b7        	j	0x14b9c <_ZN4core4char7methods15encode_utf8_raw17h4812ceb2ba1f4c74E+0x78>
   14c1a: e2 65        	ld	a1, 24(sp)
   14c1c: 05 45        	li	a0, 1
   14c1e: 63 68 b5 04  	bltu	a0, a1, 0x14c6e <.Lpcrel_hi4+0x16>
   14c22: ad bf        	j	0x14b9c <_ZN4core4char7methods15encode_utf8_raw17h4812ceb2ba1f4c74E+0x78>
   14c24: e2 65        	ld	a1, 24(sp)
   14c26: 09 45        	li	a0, 2
   14c28: 63 68 b5 06  	bltu	a0, a1, 0x14c98 <.Lpcrel_hi4+0x40>
   14c2c: 85 bf        	j	0x14b9c <_ZN4core4char7methods15encode_utf8_raw17h4812ceb2ba1f4c74E+0x78>
   14c2e: e2 65        	ld	a1, 24(sp)
   14c30: 0d 45        	li	a0, 3
   14c32: 63 62 b5 0a  	bltu	a0, a1, 0x14cd6 <.Lpcrel_hi4+0x7e>
   14c36: 9d b7        	j	0x14b9c <_ZN4core4char7methods15encode_utf8_raw17h4812ceb2ba1f4c74E+0x78>
   14c38: 82 75        	ld	a1, 32(sp)
   14c3a: 2e e2        	sd	a1, 256(sp)
   14c3c: 03 45 41 03  	lbu	a0, 52(sp)
   14c40: 23 80 a5 00  	sb	a0, 0(a1)
   14c44: 09 a0        	j	0x14c46 <.Lpcrel_hi3+0x44>
   14c46: e2 66        	ld	a3, 24(sp)
   14c48: 02 76        	ld	a2, 32(sp)
   14c4a: 62 75        	ld	a0, 56(sp)
   14c4c: aa ea        	sd	a0, 336(sp)
   14c4e: 81 45        	li	a1, 0
   14c50: ae ed        	sd	a1, 216(sp)
   14c52: aa f1        	sd	a0, 224(sp)
   14c54: 6e 65        	ld	a0, 216(sp)
   14c56: 8e 75        	ld	a1, 224(sp)

0000000000014c58 <.Lpcrel_hi4>:
   14c58: 17 c7 ff ff  	auipc	a4, 1048572
   14c5c: 13 07 07 19  	addi	a4, a4, 400
   14c60: 97 10 00 00  	auipc	ra, 1
   14c64: e7 80 20 62  	jalr	1570(ra)
   14c68: ba 60        	ld	ra, 392(sp)
   14c6a: 59 61        	addi	sp, sp, 400
   14c6c: 82 80        	ret
   14c6e: 82 75        	ld	a1, 32(sp)
   14c70: 2e e6        	sd	a1, 264(sp)
   14c72: 13 85 15 00  	addi	a0, a1, 1
   14c76: 2a ea        	sd	a0, 272(sp)
   14c78: 52 55        	lw	a0, 52(sp)
   14c7a: 56 15        	slli	a0, a0, 53
   14c7c: 6d 91        	srli	a0, a0, 59
   14c7e: 13 05 05 0c  	addi	a0, a0, 192
   14c82: 23 80 a5 00  	sb	a0, 0(a1)
   14c86: 03 45 41 03  	lbu	a0, 52(sp)
   14c8a: 13 75 f5 03  	andi	a0, a0, 63
   14c8e: 13 05 05 08  	addi	a0, a0, 128
   14c92: a3 80 a5 00  	sb	a0, 1(a1)
   14c96: 45 bf        	j	0x14c46 <.Lpcrel_hi3+0x44>
   14c98: 82 75        	ld	a1, 32(sp)
   14c9a: 2e ee        	sd	a1, 280(sp)
   14c9c: 13 85 15 00  	addi	a0, a1, 1
   14ca0: 2a f2        	sd	a0, 288(sp)
   14ca2: 13 85 25 00  	addi	a0, a1, 2
   14ca6: 2a f6        	sd	a0, 296(sp)
   14ca8: 52 55        	lw	a0, 52(sp)
   14caa: 42 15        	slli	a0, a0, 48
   14cac: 71 91        	srli	a0, a0, 60
   14cae: 13 05 05 0e  	addi	a0, a0, 224
   14cb2: 23 80 a5 00  	sb	a0, 0(a1)
   14cb6: 52 55        	lw	a0, 52(sp)
   14cb8: 52 15        	slli	a0, a0, 52
   14cba: 69 91        	srli	a0, a0, 58
   14cbc: 13 05 05 08  	addi	a0, a0, 128
   14cc0: a3 80 a5 00  	sb	a0, 1(a1)
   14cc4: 03 45 41 03  	lbu	a0, 52(sp)
   14cc8: 13 75 f5 03  	andi	a0, a0, 63
   14ccc: 13 05 05 08  	addi	a0, a0, 128
   14cd0: 23 81 a5 00  	sb	a0, 2(a1)
   14cd4: 8d bf        	j	0x14c46 <.Lpcrel_hi3+0x44>
   14cd6: 82 75        	ld	a1, 32(sp)
   14cd8: 2e fa        	sd	a1, 304(sp)
   14cda: 13 85 15 00  	addi	a0, a1, 1
   14cde: 2a fe        	sd	a0, 312(sp)
   14ce0: 13 85 25 00  	addi	a0, a1, 2
   14ce4: aa e2        	sd	a0, 320(sp)
   14ce6: 13 85 35 00  	addi	a0, a1, 3
   14cea: aa e6        	sd	a0, 328(sp)
   14cec: 52 55        	lw	a0, 52(sp)
   14cee: 2e 15        	slli	a0, a0, 43
   14cf0: 75 91        	srli	a0, a0, 61
   14cf2: 13 05 05 0f  	addi	a0, a0, 240
   14cf6: 23 80 a5 00  	sb	a0, 0(a1)
   14cfa: 52 55        	lw	a0, 52(sp)
   14cfc: 3a 15        	slli	a0, a0, 46
   14cfe: 69 91        	srli	a0, a0, 58
   14d00: 13 05 05 08  	addi	a0, a0, 128
   14d04: a3 80 a5 00  	sb	a0, 1(a1)
   14d08: 52 55        	lw	a0, 52(sp)
   14d0a: 52 15        	slli	a0, a0, 52
   14d0c: 69 91        	srli	a0, a0, 58
   14d0e: 13 05 05 08  	addi	a0, a0, 128
   14d12: 23 81 a5 00  	sb	a0, 2(a1)
   14d16: 03 45 41 03  	lbu	a0, 52(sp)
   14d1a: 13 75 f5 03  	andi	a0, a0, 63
   14d1e: 13 05 05 08  	addi	a0, a0, 128
   14d22: a3 81 a5 00  	sb	a0, 3(a1)
   14d26: 05 b7        	j	0x14c46 <.Lpcrel_hi3+0x44>

0000000000014d28 <_ZN42_$LT$$RF$T$u20$as$u20$core..fmt..Debug$GT$3fmt17h4a2a8730938bdd5aE>:
   14d28: 01 11        	addi	sp, sp, -32
   14d2a: 06 ec        	sd	ra, 24(sp)
   14d2c: 2a e4        	sd	a0, 8(sp)
   14d2e: 2e e8        	sd	a1, 16(sp)
   14d30: 08 61        	ld	a0, 0(a0)
   14d32: 97 00 00 00  	auipc	ra, 0
   14d36: e7 80 60 02  	jalr	38(ra)
   14d3a: e2 60        	ld	ra, 24(sp)
   14d3c: 05 61        	addi	sp, sp, 32
   14d3e: 82 80        	ret

0000000000014d40 <_ZN44_$LT$$RF$T$u20$as$u20$core..fmt..Display$GT$3fmt17h89a8a8706748f3e1E>:
   14d40: 01 11        	addi	sp, sp, -32
   14d42: 06 ec        	sd	ra, 24(sp)
   14d44: 2a e4        	sd	a0, 8(sp)
   14d46: 2e e8        	sd	a1, 16(sp)
   14d48: 08 61        	ld	a0, 0(a0)
   14d4a: 97 30 00 00  	auipc	ra, 3
   14d4e: e7 80 c0 67  	jalr	1660(ra)
   14d52: e2 60        	ld	ra, 24(sp)
   14d54: 05 61        	addi	sp, sp, 32
   14d56: 82 80        	ret

0000000000014d58 <_ZN45_$LT$$LP$$RP$$u20$as$u20$core..fmt..Debug$GT$3fmt17h5d5f10af43ed40c1E>:
   14d58: 01 11        	addi	sp, sp, -32
   14d5a: 06 ec        	sd	ra, 24(sp)
   14d5c: 2e e0        	sd	a1, 0(sp)
   14d5e: aa 85        	mv	a1, a0
   14d60: 02 65        	ld	a0, 0(sp)
   14d62: 2e e4        	sd	a1, 8(sp)
   14d64: 2a e8        	sd	a0, 16(sp)

0000000000014d66 <.Lpcrel_hi0>:
   14d66: 97 c5 ff ff  	auipc	a1, 1048572
   14d6a: 93 85 25 12  	addi	a1, a1, 290
   14d6e: 09 46        	li	a2, 2
   14d70: 97 40 00 00  	auipc	ra, 4
   14d74: e7 80 80 a4  	jalr	-1464(ra)
   14d78: e2 60        	ld	ra, 24(sp)
   14d7a: 05 61        	addi	sp, sp, 32
   14d7c: 82 80        	ret

0000000000014d7e <_ZN4core3fmt9Arguments16new_v1_formatted17h3a26edf42c2e8b89E>:
   14d7e: 5d 71        	addi	sp, sp, -80
   14d80: 2e ec        	sd	a1, 24(sp)
   14d82: 32 f0        	sd	a2, 32(sp)
   14d84: 36 f4        	sd	a3, 40(sp)
   14d86: 3a f8        	sd	a4, 48(sp)
   14d88: 3e fc        	sd	a5, 56(sp)
   14d8a: c2 e0        	sd	a6, 64(sp)
   14d8c: 3e e4        	sd	a5, 8(sp)
   14d8e: 42 e8        	sd	a6, 16(sp)
   14d90: 0c e1        	sd	a1, 0(a0)
   14d92: 10 e5        	sd	a2, 8(a0)
   14d94: 22 66        	ld	a2, 8(sp)
   14d96: c2 65        	ld	a1, 16(sp)
   14d98: 10 f1        	sd	a2, 32(a0)
   14d9a: 0c f5        	sd	a1, 40(a0)
   14d9c: 14 e9        	sd	a3, 16(a0)
   14d9e: 18 ed        	sd	a4, 24(a0)
   14da0: 61 61        	addi	sp, sp, 80
   14da2: 82 80        	ret

0000000000014da4 <_ZN4core3fmt9Arguments6new_v117h7773e713a292e7d3E>:
   14da4: 71 71        	addi	sp, sp, -176
   14da6: 3a e4        	sd	a4, 8(sp)
   14da8: 36 e8        	sd	a3, 16(sp)
   14daa: 32 ec        	sd	a2, 24(sp)
   14dac: 2e f0        	sd	a1, 32(sp)
   14dae: 2a f4        	sd	a0, 40(sp)
   14db0: 2e e1        	sd	a1, 128(sp)
   14db2: 32 e5        	sd	a2, 136(sp)
   14db4: 36 e9        	sd	a3, 144(sp)
   14db6: 3a ed        	sd	a4, 152(sp)
   14db8: 63 69 e6 00  	bltu	a2, a4, 0x14dca <_ZN4core3fmt9Arguments6new_v117h7773e713a292e7d3E+0x26>
   14dbc: 09 a0        	j	0x14dbe <_ZN4core3fmt9Arguments6new_v117h7773e713a292e7d3E+0x1a>
   14dbe: e2 65        	ld	a1, 24(sp)
   14dc0: 22 65        	ld	a0, 8(sp)
   14dc2: 05 05        	addi	a0, a0, 1
   14dc4: 63 65 b5 02  	bltu	a0, a1, 0x14dee <.Lpcrel_hi1>
   14dc8: 11 a0        	j	0x14dcc <_ZN4core3fmt9Arguments6new_v117h7773e713a292e7d3E+0x28>
   14dca: 15 a0        	j	0x14dee <.Lpcrel_hi1>
   14dcc: 22 65        	ld	a0, 8(sp)
   14dce: a2 75        	ld	a1, 40(sp)
   14dd0: 42 66        	ld	a2, 16(sp)
   14dd2: e2 66        	ld	a3, 24(sp)
   14dd4: 02 77        	ld	a4, 32(sp)
   14dd6: 81 47        	li	a5, 0
   14dd8: be f0        	sd	a5, 96(sp)
   14dda: 98 e1        	sd	a4, 0(a1)
   14ddc: 94 e5        	sd	a3, 8(a1)
   14dde: 06 77        	ld	a4, 96(sp)
   14de0: a6 76        	ld	a3, 104(sp)
   14de2: 98 f1        	sd	a4, 32(a1)
   14de4: 94 f5        	sd	a3, 40(a1)
   14de6: 90 e9        	sd	a2, 16(a1)
   14de8: 88 ed        	sd	a0, 24(a1)
   14dea: 4d 61        	addi	sp, sp, 176
   14dec: 82 80        	ret

0000000000014dee <.Lpcrel_hi1>:
   14dee: 17 c5 ff ff  	auipc	a0, 1048572
   14df2: 13 06 a5 0a  	addi	a2, a0, 170
   14df6: 32 f1        	sd	a2, 160(sp)
   14df8: 85 45        	li	a1, 1
   14dfa: 2e f5        	sd	a1, 168(sp)
   14dfc: 01 45        	li	a0, 0
   14dfe: aa f8        	sd	a0, 112(sp)
   14e00: 32 f8        	sd	a2, 48(sp)
   14e02: 2e fc        	sd	a1, 56(sp)
   14e04: 46 76        	ld	a2, 112(sp)
   14e06: e6 75        	ld	a1, 120(sp)
   14e08: b2 e8        	sd	a2, 80(sp)
   14e0a: ae ec        	sd	a1, 88(sp)

0000000000014e0c <.Lpcrel_hi2>:
   14e0c: 97 c5 ff ff  	auipc	a1, 1048572
   14e10: 93 85 c5 09  	addi	a1, a1, 156
   14e14: ae e0        	sd	a1, 64(sp)
   14e16: aa e4        	sd	a0, 72(sp)

0000000000014e18 <.Lpcrel_hi3>:
   14e18: 17 c5 ff ff  	auipc	a0, 1048572
   14e1c: 93 05 05 0e  	addi	a1, a0, 224
   14e20: 08 18        	addi	a0, sp, 48
   14e22: 97 30 00 00  	auipc	ra, 3
   14e26: e7 80 20 09  	jalr	146(ra)
   14e2a: 00 00        	unimp

0000000000014e2c <_ZN4core3fmt9Arguments9new_const17hca72d627f2bb253aE>:
   14e2c: 19 71        	addi	sp, sp, -128
   14e2e: 86 fc        	sd	ra, 120(sp)
   14e30: 32 e8        	sd	a2, 16(sp)
   14e32: 2e ec        	sd	a1, 24(sp)
   14e34: 2a f0        	sd	a0, 32(sp)
   14e36: ae f4        	sd	a1, 104(sp)
   14e38: b2 f8        	sd	a2, 112(sp)
   14e3a: 05 45        	li	a0, 1
   14e3c: 63 67 c5 02  	bltu	a0, a2, 0x14e6a <.Lpcrel_hi5>
   14e40: 09 a0        	j	0x14e42 <_ZN4core3fmt9Arguments9new_const17hca72d627f2bb253aE+0x16>
   14e42: 82 75        	ld	a1, 32(sp)
   14e44: 42 66        	ld	a2, 16(sp)
   14e46: e2 66        	ld	a3, 24(sp)
   14e48: 01 45        	li	a0, 0
   14e4a: aa ec        	sd	a0, 88(sp)
   14e4c: 94 e1        	sd	a3, 0(a1)
   14e4e: 90 e5        	sd	a2, 8(a1)
   14e50: e6 66        	ld	a3, 88(sp)
   14e52: 06 76        	ld	a2, 96(sp)
   14e54: 94 f1        	sd	a3, 32(a1)
   14e56: 90 f5        	sd	a2, 40(a1)

0000000000014e58 <.Lpcrel_hi4>:
   14e58: 17 c6 ff ff  	auipc	a2, 1048572
   14e5c: 13 06 06 05  	addi	a2, a2, 80
   14e60: 90 e9        	sd	a2, 16(a1)
   14e62: 88 ed        	sd	a0, 24(a1)
   14e64: e6 70        	ld	ra, 120(sp)
   14e66: 09 61        	addi	sp, sp, 128
   14e68: 82 80        	ret

0000000000014e6a <.Lpcrel_hi5>:
   14e6a: 17 c5 ff ff  	auipc	a0, 1048572
   14e6e: 93 05 e5 02  	addi	a1, a0, 46
   14e72: 28 10        	addi	a0, sp, 40
   14e74: 2a e4        	sd	a0, 8(sp)
   14e76: 05 46        	li	a2, 1
   14e78: 97 00 00 00  	auipc	ra, 0
   14e7c: e7 80 40 fb  	jalr	-76(ra)
   14e80: 22 65        	ld	a0, 8(sp)

0000000000014e82 <.Lpcrel_hi6>:
   14e82: 97 c5 ff ff  	auipc	a1, 1048572
   14e86: 93 85 e5 08  	addi	a1, a1, 142
   14e8a: 97 30 00 00  	auipc	ra, 3
   14e8e: e7 80 a0 02  	jalr	42(ra)
   14e92: 00 00        	unimp

0000000000014e94 <_ZN53_$LT$core..fmt..Error$u20$as$u20$core..fmt..Debug$GT$3fmt17h33f429c8aac127aaE>:
   14e94: 01 11        	addi	sp, sp, -32
   14e96: 06 ec        	sd	ra, 24(sp)
   14e98: 2e e0        	sd	a1, 0(sp)
   14e9a: aa 85        	mv	a1, a0
   14e9c: 02 65        	ld	a0, 0(sp)
   14e9e: 2e e4        	sd	a1, 8(sp)
   14ea0: 2a e8        	sd	a0, 16(sp)

0000000000014ea2 <.Lpcrel_hi7>:
   14ea2: 97 c5 ff ff  	auipc	a1, 1048572
   14ea6: 93 85 65 08  	addi	a1, a1, 134
   14eaa: 15 46        	li	a2, 5
   14eac: 97 40 00 00  	auipc	ra, 4
   14eb0: e7 80 a0 b3  	jalr	-1222(ra)
   14eb4: e2 60        	ld	ra, 24(sp)
   14eb6: 05 61        	addi	sp, sp, 32
   14eb8: 82 80        	ret

0000000000014eba <_ZN3log13__private_api3log17h9d541fcc068855b4E>:
; pub fn log<'a, K>(
   14eba: 59 71        	addi	sp, sp, -112
   14ebc: 86 f4        	sd	ra, 104(sp)
   14ebe: 32 e4        	sd	a2, 8(sp)
   14ec0: 2e ec        	sd	a1, 24(sp)
;     args: Arguments,
   14ec2: 2a e8        	sd	a0, 16(sp)
   14ec4: 2e f0        	sd	a1, 32(sp)
   14ec6: 32 f4        	sd	a2, 40(sp)
;     log_impl(args, level, target_module_path_and_loc, kvs.into_kvs())
   14ec8: 97 00 00 00  	auipc	ra, 0
   14ecc: e7 80 a0 03  	jalr	58(ra)
   14ed0: 22 66        	ld	a2, 8(sp)
   14ed2: aa 86        	mv	a3, a0
   14ed4: 42 65        	ld	a0, 16(sp)
   14ed6: 2e 87        	mv	a4, a1
   14ed8: e2 65        	ld	a1, 24(sp)
   14eda: 1c 75        	ld	a5, 40(a0)
   14edc: be f0        	sd	a5, 96(sp)
   14ede: 1c 71        	ld	a5, 32(a0)
   14ee0: be ec        	sd	a5, 88(sp)
   14ee2: 1c 6d        	ld	a5, 24(a0)
   14ee4: be e8        	sd	a5, 80(sp)
   14ee6: 1c 69        	ld	a5, 16(a0)
   14ee8: be e4        	sd	a5, 72(sp)
   14eea: 1c 65        	ld	a5, 8(a0)
   14eec: be e0        	sd	a5, 64(sp)
   14eee: 08 61        	ld	a0, 0(a0)
   14ef0: 2a fc        	sd	a0, 56(sp)
   14ef2: 28 18        	addi	a0, sp, 56
   14ef4: 97 30 00 00  	auipc	ra, 3
   14ef8: e7 80 e0 b2  	jalr	-1234(ra)
; }
   14efc: a6 70        	ld	ra, 104(sp)
   14efe: 65 61        	addi	sp, sp, 112
   14f00: 82 80        	ret

0000000000014f02 <_ZN3log13__private_api70_$LT$impl$u20$log..__private_api..sealed..KVs$u20$for$u20$$LP$$RP$$GT$8into_kvs17hc4746ee98fbb71a6E>:
;     fn into_kvs(self) -> Option<&'a [(&'a str, Value<'a>)]> {
   14f02: 01 11        	addi	sp, sp, -32
   14f04: 01 45        	li	a0, 0
;         None
   14f06: 2a e4        	sd	a0, 8(sp)
;     }
   14f08: 22 65        	ld	a0, 8(sp)
   14f0a: c2 65        	ld	a1, 16(sp)
   14f0c: 05 61        	addi	sp, sp, 32
   14f0e: 82 80        	ret

0000000000014f10 <_ZN4core3cmp10PartialOrd2le17he494bbb22bbfbf02E>:
   14f10: 01 11        	addi	sp, sp, -32
   14f12: 06 ec        	sd	ra, 24(sp)
   14f14: 2a e4        	sd	a0, 8(sp)
   14f16: 2e e8        	sd	a1, 16(sp)
   14f18: 97 00 00 00  	auipc	ra, 0
   14f1c: e7 80 c0 0c  	jalr	204(ra)
   14f20: a3 03 a1 00  	sb	a0, 7(sp)
   14f24: 03 45 71 00  	lbu	a0, 7(sp)
   14f28: 89 45        	li	a1, 2
   14f2a: 63 0c b5 00  	beq	a0, a1, 0x14f42 <_ZN4core3cmp10PartialOrd2le17he494bbb22bbfbf02E+0x32>
   14f2e: 09 a0        	j	0x14f30 <_ZN4core3cmp10PartialOrd2le17he494bbb22bbfbf02E+0x20>
   14f30: 03 45 71 00  	lbu	a0, 7(sp)
   14f34: 05 25        	addiw	a0, a0, 1
   14f36: 13 75 f5 0f  	andi	a0, a0, 255
   14f3a: 89 45        	li	a1, 2
   14f3c: 63 67 b5 00  	bltu	a0, a1, 0x14f4a <_ZN4core3cmp10PartialOrd2le17he494bbb22bbfbf02E+0x3a>
   14f40: 09 a0        	j	0x14f42 <_ZN4core3cmp10PartialOrd2le17he494bbb22bbfbf02E+0x32>
   14f42: 01 45        	li	a0, 0
   14f44: 23 03 a1 00  	sb	a0, 6(sp)
   14f48: 29 a0        	j	0x14f52 <_ZN4core3cmp10PartialOrd2le17he494bbb22bbfbf02E+0x42>
   14f4a: 05 45        	li	a0, 1
   14f4c: 23 03 a1 00  	sb	a0, 6(sp)
   14f50: 09 a0        	j	0x14f52 <_ZN4core3cmp10PartialOrd2le17he494bbb22bbfbf02E+0x42>
   14f52: 03 45 61 00  	lbu	a0, 6(sp)
   14f56: e2 60        	ld	ra, 24(sp)
   14f58: 05 61        	addi	sp, sp, 32
   14f5a: 82 80        	ret

0000000000014f5c <_ZN3log13set_max_level17h6cb4eca114b04577E>:
; pub fn set_max_level(level: LevelFilter) {
   14f5c: 01 11        	addi	sp, sp, -32
   14f5e: 06 ec        	sd	ra, 24(sp)
   14f60: 2a e4        	sd	a0, 8(sp)
;     MAX_LOG_LEVEL_FILTER.store(level as usize, Ordering::Relaxed);
   14f62: a2 65        	ld	a1, 8(sp)
   14f64: 01 45        	li	a0, 0
   14f66: a3 0b a1 00  	sb	a0, 23(sp)
   14f6a: 03 46 71 01  	lbu	a2, 23(sp)

0000000000014f6e <.Lpcrel_hi0>:
   14f6e: 17 55 00 00  	auipc	a0, 5
   14f72: 13 05 25 36  	addi	a0, a0, 866
   14f76: 97 00 00 00  	auipc	ra, 0
   14f7a: e7 80 00 0a  	jalr	160(ra)
; }
   14f7e: e2 60        	ld	ra, 24(sp)
   14f80: 05 61        	addi	sp, sp, 32
   14f82: 82 80        	ret

0000000000014f84 <_ZN3log6Record4args17h043fdbb28cf1ff79E>:
;     pub fn args(&self) -> &fmt::Arguments<'a> {
   14f84: 41 11        	addi	sp, sp, -16
   14f86: 2a e4        	sd	a0, 8(sp)
;         &self.args
   14f88: 13 05 05 05  	addi	a0, a0, 80
;     }
   14f8c: 41 01        	addi	sp, sp, 16
   14f8e: 82 80        	ret

0000000000014f90 <_ZN3log6Record5level17hbf412bc00f059258E>:
;     pub fn level(&self) -> Level {
   14f90: 41 11        	addi	sp, sp, -16
   14f92: 06 e4        	sd	ra, 8(sp)
   14f94: 2a e0        	sd	a0, 0(sp)
;         self.metadata.level()
   14f96: 13 05 05 03  	addi	a0, a0, 48
   14f9a: 97 00 00 00  	auipc	ra, 0
   14f9e: e7 80 e0 00  	jalr	14(ra)
;     }
   14fa2: a2 60        	ld	ra, 8(sp)
   14fa4: 41 01        	addi	sp, sp, 16
   14fa6: 82 80        	ret

0000000000014fa8 <_ZN3log8Metadata5level17h71623ceaa0ee44b0E>:
;     pub fn level(&self) -> Level {
   14fa8: 41 11        	addi	sp, sp, -16
   14faa: 2a e4        	sd	a0, 8(sp)
;         self.level
   14fac: 08 61        	ld	a0, 0(a0)
;     }
   14fae: 41 01        	addi	sp, sp, 16
   14fb0: 82 80        	ret

0000000000014fb2 <_ZN56_$LT$log..SetLoggerError$u20$as$u20$core..fmt..Debug$GT$3fmt17h5f238bf3244c031bE>:
; #[derive(Debug)]
   14fb2: 79 71        	addi	sp, sp, -48
   14fb4: 06 f4        	sd	ra, 40(sp)
   14fb6: 2e e4        	sd	a1, 8(sp)
   14fb8: aa 85        	mv	a1, a0
   14fba: 22 65        	ld	a0, 8(sp)
   14fbc: 2e ec        	sd	a1, 24(sp)
   14fbe: 2a f0        	sd	a0, 32(sp)
; pub struct SetLoggerError(());
   14fc0: 2e e8        	sd	a1, 16(sp)

0000000000014fc2 <.Lpcrel_hi1>:
; #[derive(Debug)]
   14fc2: 97 c5 ff ff  	auipc	a1, 1048572
   14fc6: 93 85 b5 f6  	addi	a1, a1, -149

0000000000014fca <.Lpcrel_hi2>:
   14fca: 17 c6 ff ff  	auipc	a2, 1048572
   14fce: 13 07 66 f7  	addi	a4, a2, -138
   14fd2: 39 46        	li	a2, 14
   14fd4: 14 08        	addi	a3, sp, 16
   14fd6: 97 40 00 00  	auipc	ra, 4
   14fda: e7 80 80 a1  	jalr	-1512(ra)
   14fde: a2 70        	ld	ra, 40(sp)
   14fe0: 45 61        	addi	sp, sp, 48
   14fe2: 82 80        	ret

0000000000014fe4 <_ZN76_$LT$log..Level$u20$as$u20$core..cmp..PartialOrd$LT$log..LevelFilter$GT$$GT$11partial_cmp17h03524a741112c1fbE>:
;     fn partial_cmp(&self, other: &LevelFilter) -> Option<cmp::Ordering> {
   14fe4: 39 71        	addi	sp, sp, -64
   14fe6: 06 fc        	sd	ra, 56(sp)
   14fe8: 2a f4        	sd	a0, 40(sp)
   14fea: 2e f8        	sd	a1, 48(sp)
;         Some((*self as usize).cmp(&(*other as usize)))
   14fec: 08 61        	ld	a0, 0(a0)
   14fee: 2a e8        	sd	a0, 16(sp)
   14ff0: 42 65        	ld	a0, 16(sp)
   14ff2: 2a e4        	sd	a0, 8(sp)
   14ff4: 88 61        	ld	a0, 0(a1)
   14ff6: 2a f0        	sd	a0, 32(sp)
   14ff8: 02 75        	ld	a0, 32(sp)
   14ffa: 2a ec        	sd	a0, 24(sp)
   14ffc: 28 00        	addi	a0, sp, 8
   14ffe: 2c 08        	addi	a1, sp, 24
   15000: 97 10 00 00  	auipc	ra, 1
   15004: e7 80 c0 90  	jalr	-1780(ra)
   15008: a3 03 a1 00  	sb	a0, 7(sp)
;     }
   1500c: 03 45 71 00  	lbu	a0, 7(sp)
   15010: e2 70        	ld	ra, 56(sp)
   15012: 21 61        	addi	sp, sp, 64
   15014: 82 80        	ret

0000000000015016 <_ZN4core4sync6atomic11AtomicUsize5store17h0f8e20d85e85da42E>:
   15016: 79 71        	addi	sp, sp, -48
   15018: 06 f4        	sd	ra, 40(sp)
   1501a: 2a e4        	sd	a0, 8(sp)
   1501c: 2e e8        	sd	a1, 16(sp)
   1501e: a3 0f c1 00  	sb	a2, 31(sp)
   15022: 2a f0        	sd	a0, 32(sp)
   15024: 97 20 00 00  	auipc	ra, 2
   15028: e7 80 60 a6  	jalr	-1434(ra)
   1502c: a2 70        	ld	ra, 40(sp)
   1502e: 45 61        	addi	sp, sp, 48
   15030: 82 80        	ret

0000000000015032 <_ZN4core4sync6atomic14spin_loop_hint17h52b59fa84a7388acE>:
   15032: 0f 00 00 01  	fence	w, 0
   15036: 82 80        	ret

0000000000015038 <_ZN4core4sync6atomic8AtomicU816compare_exchange17ha36b098df31bdfe3E>:
   15038: 01 11        	addi	sp, sp, -32
   1503a: 06 ec        	sd	ra, 24(sp)
   1503c: 2a e0        	sd	a0, 0(sp)
   1503e: 23 06 b1 00  	sb	a1, 12(sp)
   15042: a3 06 c1 00  	sb	a2, 13(sp)
   15046: 23 07 d1 00  	sb	a3, 14(sp)
   1504a: a3 07 e1 00  	sb	a4, 15(sp)
   1504e: 2a e8        	sd	a0, 16(sp)
   15050: 97 00 00 00  	auipc	ra, 0
   15054: e7 80 80 19  	jalr	408(ra)
   15058: 05 89        	andi	a0, a0, 1
   1505a: e2 60        	ld	ra, 24(sp)
   1505c: 05 61        	addi	sp, sp, 32
   1505e: 82 80        	ret

0000000000015060 <_ZN4core4sync6atomic8AtomicU84load17h33c5ff8951895a69E>:
   15060: 01 11        	addi	sp, sp, -32
   15062: 06 ec        	sd	ra, 24(sp)
   15064: 2a e0        	sd	a0, 0(sp)
   15066: a3 07 b1 00  	sb	a1, 15(sp)
   1506a: 2a e8        	sd	a0, 16(sp)
   1506c: 97 00 00 00  	auipc	ra, 0
   15070: e7 80 c0 02  	jalr	44(ra)
   15074: e2 60        	ld	ra, 24(sp)
   15076: 05 61        	addi	sp, sp, 32
   15078: 82 80        	ret

000000000001507a <_ZN4core4sync6atomic8AtomicU85store17h7e375a60c7e7ae3dE>:
   1507a: 01 11        	addi	sp, sp, -32
   1507c: 06 ec        	sd	ra, 24(sp)
   1507e: 2a e0        	sd	a0, 0(sp)
   15080: 23 07 b1 00  	sb	a1, 14(sp)
   15084: a3 07 c1 00  	sb	a2, 15(sp)
   15088: 2a e8        	sd	a0, 16(sp)
   1508a: 97 10 00 00  	auipc	ra, 1
   1508e: e7 80 40 2d  	jalr	724(ra)
   15092: e2 60        	ld	ra, 24(sp)
   15094: 05 61        	addi	sp, sp, 32
   15096: 82 80        	ret

0000000000015098 <_ZN4core4sync6atomic11atomic_load17hff65b1df6dfdfe00E>:
   15098: 29 71        	addi	sp, sp, -320
   1509a: 06 fe        	sd	ra, 312(sp)
   1509c: 2a ec        	sd	a0, 24(sp)
   1509e: 23 07 b1 02  	sb	a1, 46(sp)
   150a2: 2a ea        	sd	a0, 272(sp)
   150a4: 03 45 e1 02  	lbu	a0, 46(sp)
   150a8: 2a f0        	sd	a0, 32(sp)
   150aa: 02 75        	ld	a0, 32(sp)
   150ac: 0e 05        	slli	a0, a0, 3

00000000000150ae <.Lpcrel_hi0>:
   150ae: 97 c5 ff ff  	auipc	a1, 1048572
   150b2: 93 85 25 eb  	addi	a1, a1, -334
   150b6: 2e 95        	add	a0, a0, a1
   150b8: 08 61        	ld	a0, 0(a0)
   150ba: 02 85        	jr	a0
   150bc: 00 00        	unimp

00000000000150be <.LBB0_3>:
   150be: 62 65        	ld	a0, 24(sp)
   150c0: 03 05 05 00  	lb	a0, 0(a0)
   150c4: a3 07 a1 02  	sb	a0, 47(sp)
   150c8: b9 a0        	j	0x15116 <.LBB0_7+0x14>

00000000000150ca <.Lpcrel_hi1>:
   150ca: 17 c5 ff ff  	auipc	a0, 1048572
   150ce: 13 05 e5 f0  	addi	a0, a0, -242
   150d2: 2a ee        	sd	a0, 280(sp)
   150d4: 05 45        	li	a0, 1
   150d6: 2a f2        	sd	a0, 288(sp)
   150d8: 01 45        	li	a0, 0
   150da: 41 e1        	bnez	a0, 0x1515a <.Lpcrel_hi6>
   150dc: 91 a0        	j	0x15120 <.LBB0_7+0x1e>

00000000000150de <.LBB0_5>:
   150de: 62 65        	ld	a0, 24(sp)
   150e0: 03 05 05 00  	lb	a0, 0(a0)
   150e4: 0f 00 30 02  	fence	r, rw
   150e8: a3 07 a1 02  	sb	a0, 47(sp)
   150ec: 2d a0        	j	0x15116 <.LBB0_7+0x14>

00000000000150ee <.Lpcrel_hi2>:
   150ee: 17 c5 ff ff  	auipc	a0, 1048572
   150f2: 13 05 25 02  	addi	a0, a0, 34
   150f6: 2a f6        	sd	a0, 296(sp)
   150f8: 05 45        	li	a0, 1
   150fa: 2a fa        	sd	a0, 304(sp)
   150fc: 01 45        	li	a0, 0
   150fe: 61 e1        	bnez	a0, 0x151be <.Lpcrel_hi11>
   15100: 51 a0        	j	0x15184 <.Lpcrel_hi7+0x12>

0000000000015102 <.LBB0_7>:
   15102: 62 65        	ld	a0, 24(sp)
   15104: 0f 00 30 03  	fence	rw, rw
   15108: 03 05 05 00  	lb	a0, 0(a0)
   1510c: 0f 00 30 02  	fence	r, rw
   15110: a3 07 a1 02  	sb	a0, 47(sp)
   15114: 09 a0        	j	0x15116 <.LBB0_7+0x14>
   15116: 03 45 f1 02  	lbu	a0, 47(sp)
   1511a: f2 70        	ld	ra, 312(sp)
   1511c: 31 61        	addi	sp, sp, 320
   1511e: 82 80        	ret
   15120: 01 45        	li	a0, 0
   15122: 2a e2        	sd	a0, 256(sp)

0000000000015124 <.Lpcrel_hi3>:
   15124: 97 c5 ff ff  	auipc	a1, 1048572
   15128: 93 85 45 eb  	addi	a1, a1, -332
   1512c: 2e f8        	sd	a1, 48(sp)
   1512e: 85 45        	li	a1, 1
   15130: 2e fc        	sd	a1, 56(sp)
   15132: 12 66        	ld	a2, 256(sp)
   15134: b2 65        	ld	a1, 264(sp)
   15136: b2 e8        	sd	a2, 80(sp)
   15138: ae ec        	sd	a1, 88(sp)

000000000001513a <.Lpcrel_hi4>:
   1513a: 97 c5 ff ff  	auipc	a1, 1048572
   1513e: 93 85 e5 ea  	addi	a1, a1, -338
   15142: ae e0        	sd	a1, 64(sp)
   15144: aa e4        	sd	a0, 72(sp)

0000000000015146 <.Lpcrel_hi5>:
   15146: 17 c5 ff ff  	auipc	a0, 1048572
   1514a: 93 05 25 ef  	addi	a1, a0, -270
   1514e: 08 18        	addi	a0, sp, 48
   15150: 97 30 00 00  	auipc	ra, 3
   15154: e7 80 40 d6  	jalr	-668(ra)
   15158: 00 00        	unimp

000000000001515a <.Lpcrel_hi6>:
   1515a: 17 c5 ff ff  	auipc	a0, 1048572
   1515e: 93 05 65 f0  	addi	a1, a0, -250
   15162: 88 09        	addi	a0, sp, 208
   15164: 2a e8        	sd	a0, 16(sp)
   15166: 05 46        	li	a2, 1
   15168: 97 00 00 00  	auipc	ra, 0
   1516c: e7 80 40 cc  	jalr	-828(ra)
   15170: 42 65        	ld	a0, 16(sp)

0000000000015172 <.Lpcrel_hi7>:
   15172: 97 c5 ff ff  	auipc	a1, 1048572
   15176: 93 85 e5 f4  	addi	a1, a1, -178
   1517a: 97 30 00 00  	auipc	ra, 3
   1517e: e7 80 a0 d3  	jalr	-710(ra)
   15182: 00 00        	unimp
   15184: 01 45        	li	a0, 0
   15186: aa e1        	sd	a0, 192(sp)

0000000000015188 <.Lpcrel_hi8>:
   15188: 97 c5 ff ff  	auipc	a1, 1048572
   1518c: 93 85 85 f8  	addi	a1, a1, -120
   15190: ae f0        	sd	a1, 96(sp)
   15192: 85 45        	li	a1, 1
   15194: ae f4        	sd	a1, 104(sp)
   15196: 0e 66        	ld	a2, 192(sp)
   15198: ae 65        	ld	a1, 200(sp)
   1519a: 32 e1        	sd	a2, 128(sp)
   1519c: 2e e5        	sd	a1, 136(sp)

000000000001519e <.Lpcrel_hi9>:
   1519e: 97 c5 ff ff  	auipc	a1, 1048572
   151a2: 93 85 a5 e4  	addi	a1, a1, -438
   151a6: ae f8        	sd	a1, 112(sp)
   151a8: aa fc        	sd	a0, 120(sp)

00000000000151aa <.Lpcrel_hi10>:
   151aa: 17 c5 ff ff  	auipc	a0, 1048572
   151ae: 93 05 65 f7  	addi	a1, a0, -138
   151b2: 88 10        	addi	a0, sp, 96
   151b4: 97 30 00 00  	auipc	ra, 3
   151b8: e7 80 00 d0  	jalr	-768(ra)
   151bc: 00 00        	unimp

00000000000151be <.Lpcrel_hi11>:
   151be: 17 c5 ff ff  	auipc	a0, 1048572
   151c2: 93 05 25 ea  	addi	a1, a0, -350
   151c6: 08 09        	addi	a0, sp, 144
   151c8: 2a e4        	sd	a0, 8(sp)
   151ca: 05 46        	li	a2, 1
   151cc: 97 00 00 00  	auipc	ra, 0
   151d0: e7 80 00 c6  	jalr	-928(ra)
   151d4: 22 65        	ld	a0, 8(sp)

00000000000151d6 <.Lpcrel_hi12>:
   151d6: 97 c5 ff ff  	auipc	a1, 1048572
   151da: 93 85 a5 ee  	addi	a1, a1, -278
   151de: 97 30 00 00  	auipc	ra, 3
   151e2: e7 80 60 cd  	jalr	-810(ra)
   151e6: 00 00        	unimp

00000000000151e8 <_ZN4core4sync6atomic23atomic_compare_exchange17hbc5e2faca152907eE>:
   151e8: 09 71        	addi	sp, sp, -384
   151ea: 86 fe        	sd	ra, 376(sp)
   151ec: aa e0        	sd	a0, 64(sp)
   151ee: b2 87        	mv	a5, a2
   151f0: be e4        	sd	a5, 72(sp)
   151f2: ae 87        	mv	a5, a1
   151f4: be e8        	sd	a5, 80(sp)
   151f6: 23 01 d1 06  	sb	a3, 98(sp)
   151fa: a3 01 e1 06  	sb	a4, 99(sp)
   151fe: aa e6        	sd	a0, 328(sp)
   15200: 23 0a b1 14  	sb	a1, 340(sp)
   15204: a3 0a c1 14  	sb	a2, 341(sp)
   15208: 03 45 21 06  	lbu	a0, 98(sp)
   1520c: aa ec        	sd	a0, 88(sp)
   1520e: 66 65        	ld	a0, 88(sp)
   15210: 0e 05        	slli	a0, a0, 3

0000000000015212 <.Lpcrel_hi13>:
   15212: 97 c5 ff ff  	auipc	a1, 1048572
   15216: 93 85 65 d7  	addi	a1, a1, -650
   1521a: 2e 95        	add	a0, a0, a1
   1521c: 08 61        	ld	a0, 0(a0)
   1521e: 02 85        	jr	a0
   15220: 00 00        	unimp

0000000000015222 <.LBB1_3>:
   15222: 03 45 31 06  	lbu	a0, 99(sp)
   15226: 2a fc        	sd	a0, 56(sp)
   15228: 55 c1        	beqz	a0, 0x152cc <.LBB1_15+0x2c>
   1522a: 09 a0        	j	0x1522c <.LBB1_3+0xa>
   1522c: 62 75        	ld	a0, 56(sp)
   1522e: 89 45        	li	a1, 2
   15230: 63 09 b5 0e  	beq	a0, a1, 0x15322 <.LBB1_15+0x82>
   15234: 09 a0        	j	0x15236 <.LBB1_3+0x14>
   15236: 62 75        	ld	a0, 56(sp)
   15238: 91 45        	li	a1, 4
   1523a: 63 0f b5 12  	beq	a0, a1, 0x15378 <.LBB1_15+0xd8>
   1523e: 49 a0        	j	0x152c0 <.LBB1_15+0x20>

0000000000015240 <.LBB1_6>:
   15240: 03 45 31 06  	lbu	a0, 99(sp)
   15244: 2a f8        	sd	a0, 48(sp)
   15246: 63 02 05 1a  	beqz	a0, 0x153ea <.LBB1_15+0x14a>
   1524a: 09 a0        	j	0x1524c <.LBB1_6+0xc>
   1524c: 42 75        	ld	a0, 48(sp)
   1524e: 89 45        	li	a1, 2
   15250: 63 08 b5 1e  	beq	a0, a1, 0x15440 <.LBB1_15+0x1a0>
   15254: 09 a0        	j	0x15256 <.LBB1_6+0x16>
   15256: 42 75        	ld	a0, 48(sp)
   15258: 91 45        	li	a1, 4
   1525a: 63 0e b5 22  	beq	a0, a1, 0x15496 <.LBB1_15+0x1f6>
   1525e: 8d a0        	j	0x152c0 <.LBB1_15+0x20>

0000000000015260 <.LBB1_9>:
   15260: 03 45 31 06  	lbu	a0, 99(sp)
   15264: 2a f4        	sd	a0, 40(sp)
   15266: 63 03 05 28  	beqz	a0, 0x154ec <.LBB1_15+0x24c>
   1526a: 09 a0        	j	0x1526c <.LBB1_9+0xc>
   1526c: 22 75        	ld	a0, 40(sp)
   1526e: 89 45        	li	a1, 2
   15270: 63 09 b5 2c  	beq	a0, a1, 0x15542 <.LBB1_15+0x2a2>
   15274: 09 a0        	j	0x15276 <.LBB1_9+0x16>
   15276: 22 75        	ld	a0, 40(sp)
   15278: 91 45        	li	a1, 4
   1527a: 63 0f b5 30  	beq	a0, a1, 0x15598 <.LBB1_15+0x2f8>
   1527e: 89 a0        	j	0x152c0 <.LBB1_15+0x20>

0000000000015280 <.LBB1_12>:
   15280: 03 45 31 06  	lbu	a0, 99(sp)
   15284: 2a f0        	sd	a0, 32(sp)
   15286: 63 04 05 36  	beqz	a0, 0x155ee <.LBB1_15+0x34e>
   1528a: 09 a0        	j	0x1528c <.LBB1_12+0xc>
   1528c: 02 75        	ld	a0, 32(sp)
   1528e: 89 45        	li	a1, 2
   15290: 63 0a b5 3a  	beq	a0, a1, 0x15644 <.LBB1_15+0x3a4>
   15294: 09 a0        	j	0x15296 <.LBB1_12+0x16>
   15296: 02 75        	ld	a0, 32(sp)
   15298: 91 45        	li	a1, 4
   1529a: 63 00 b5 40  	beq	a0, a1, 0x1569a <.LBB1_15+0x3fa>
   1529e: 0d a0        	j	0x152c0 <.LBB1_15+0x20>

00000000000152a0 <.LBB1_15>:
   152a0: 03 45 31 06  	lbu	a0, 99(sp)
   152a4: 2a ec        	sd	a0, 24(sp)
   152a6: 63 05 05 44  	beqz	a0, 0x156f0 <.LBB1_15+0x450>
   152aa: 09 a0        	j	0x152ac <.LBB1_15+0xc>
   152ac: 62 65        	ld	a0, 24(sp)
   152ae: 89 45        	li	a1, 2
   152b0: 63 0b b5 48  	beq	a0, a1, 0x15746 <.LBB1_15+0x4a6>
   152b4: 09 a0        	j	0x152b6 <.LBB1_15+0x16>
   152b6: 62 65        	ld	a0, 24(sp)
   152b8: 91 45        	li	a1, 4
   152ba: 63 01 b5 4e  	beq	a0, a1, 0x1579c <.LBB1_15+0x4fc>
   152be: 09 a0        	j	0x152c0 <.LBB1_15+0x20>
   152c0: 03 45 31 06  	lbu	a0, 99(sp)
   152c4: 85 45        	li	a1, 1
   152c6: 63 0b b5 54  	beq	a0, a1, 0x1581c <.Lpcrel_hi14>
   152ca: 9d a3        	j	0x15830 <.Lpcrel_hi15>
   152cc: 26 66        	ld	a2, 72(sp)
   152ce: 46 65        	ld	a0, 80(sp)
   152d0: 86 65        	ld	a1, 64(sp)
   152d2: 93 f7 c5 ff  	andi	a5, a1, -4
   152d6: 9b 95 35 00  	slliw	a1, a1, 3
   152da: 93 06 f0 0f  	li	a3, 255
   152de: bb 96 b6 00  	sllw	a3, a3, a1
   152e2: 13 75 f5 0f  	andi	a0, a0, 255
   152e6: 3b 15 b5 00  	sllw	a0, a0, a1
   152ea: 13 76 f6 0f  	andi	a2, a2, 255
   152ee: 3b 18 b6 00  	sllw	a6, a2, a1
   152f2: 2f a6 07 10  	lr.w	a2, (a5)
   152f6: 33 77 d6 00  	and	a4, a2, a3
   152fa: 63 19 a7 00  	bne	a4, a0, 0x1530c <.LBB1_15+0x6c>
   152fe: 33 47 06 01  	xor	a4, a2, a6
   15302: 75 8f        	and	a4, a4, a3
   15304: 31 8f        	xor	a4, a4, a2
   15306: 2f a7 e7 18  	sc.w	a4, a4, (a5)
   1530a: 65 f7        	bnez	a4, 0x152f2 <.LBB1_15+0x52>
   1530c: bb 55 b6 00  	srlw	a1, a2, a1
   15310: 75 8e        	and	a2, a2, a3
   15312: 31 8d        	xor	a0, a0, a2
   15314: 13 35 15 00  	seqz	a0, a0
   15318: 23 03 b1 06  	sb	a1, 102(sp)
   1531c: a3 03 a1 06  	sb	a0, 103(sp)
   15320: 7d a0        	j	0x153ce <.LBB1_15+0x12e>
   15322: 26 66        	ld	a2, 72(sp)
   15324: 46 65        	ld	a0, 80(sp)
   15326: 86 65        	ld	a1, 64(sp)
   15328: 93 f7 c5 ff  	andi	a5, a1, -4
   1532c: 9b 95 35 00  	slliw	a1, a1, 3
   15330: 93 06 f0 0f  	li	a3, 255
   15334: bb 96 b6 00  	sllw	a3, a3, a1
   15338: 13 75 f5 0f  	andi	a0, a0, 255
   1533c: 3b 15 b5 00  	sllw	a0, a0, a1
   15340: 13 76 f6 0f  	andi	a2, a2, 255
   15344: 3b 18 b6 00  	sllw	a6, a2, a1
   15348: 2f a6 07 14  	lr.w.aq	a2, (a5)
   1534c: 33 77 d6 00  	and	a4, a2, a3
   15350: 63 19 a7 00  	bne	a4, a0, 0x15362 <.LBB1_15+0xc2>
   15354: 33 47 06 01  	xor	a4, a2, a6
   15358: 75 8f        	and	a4, a4, a3
   1535a: 31 8f        	xor	a4, a4, a2
   1535c: 2f a7 e7 18  	sc.w	a4, a4, (a5)
   15360: 65 f7        	bnez	a4, 0x15348 <.LBB1_15+0xa8>
   15362: bb 55 b6 00  	srlw	a1, a2, a1
   15366: 75 8e        	and	a2, a2, a3
   15368: 31 8d        	xor	a0, a0, a2
   1536a: 13 35 15 00  	seqz	a0, a0
   1536e: 23 03 b1 06  	sb	a1, 102(sp)
   15372: a3 03 a1 06  	sb	a0, 103(sp)
   15376: a1 a8        	j	0x153ce <.LBB1_15+0x12e>
   15378: 26 66        	ld	a2, 72(sp)
   1537a: 46 65        	ld	a0, 80(sp)
   1537c: 86 65        	ld	a1, 64(sp)
   1537e: 93 f7 c5 ff  	andi	a5, a1, -4
   15382: 9b 95 35 00  	slliw	a1, a1, 3
   15386: 93 06 f0 0f  	li	a3, 255
   1538a: bb 96 b6 00  	sllw	a3, a3, a1
   1538e: 13 75 f5 0f  	andi	a0, a0, 255
   15392: 3b 15 b5 00  	sllw	a0, a0, a1
   15396: 13 76 f6 0f  	andi	a2, a2, 255
   1539a: 3b 18 b6 00  	sllw	a6, a2, a1
   1539e: 2f a6 07 16  	lr.w.aqrl	a2, (a5)
   153a2: 33 77 d6 00  	and	a4, a2, a3
   153a6: 63 19 a7 00  	bne	a4, a0, 0x153b8 <.LBB1_15+0x118>
   153aa: 33 47 06 01  	xor	a4, a2, a6
   153ae: 75 8f        	and	a4, a4, a3
   153b0: 31 8f        	xor	a4, a4, a2
   153b2: 2f a7 e7 1a  	sc.w.rl	a4, a4, (a5)
   153b6: 65 f7        	bnez	a4, 0x1539e <.LBB1_15+0xfe>
   153b8: bb 55 b6 00  	srlw	a1, a2, a1
   153bc: 75 8e        	and	a2, a2, a3
   153be: 31 8d        	xor	a0, a0, a2
   153c0: 13 35 15 00  	seqz	a0, a0
   153c4: 23 03 b1 06  	sb	a1, 102(sp)
   153c8: a3 03 a1 06  	sb	a0, 103(sp)
   153cc: 09 a0        	j	0x153ce <.LBB1_15+0x12e>
   153ce: 03 45 61 06  	lbu	a0, 102(sp)
   153d2: 2a e8        	sd	a0, 16(sp)
   153d4: 23 0b a1 14  	sb	a0, 342(sp)
   153d8: 83 45 71 06  	lbu	a1, 103(sp)
   153dc: 13 f5 15 00  	andi	a0, a1, 1
   153e0: a3 0b b1 14  	sb	a1, 343(sp)
   153e4: 63 1e 05 40  	bnez	a0, 0x15800 <.LBB1_15+0x560>
   153e8: 29 a1        	j	0x157f2 <.LBB1_15+0x552>
   153ea: 26 66        	ld	a2, 72(sp)
   153ec: 46 65        	ld	a0, 80(sp)
   153ee: 86 65        	ld	a1, 64(sp)
   153f0: 93 f7 c5 ff  	andi	a5, a1, -4
   153f4: 9b 95 35 00  	slliw	a1, a1, 3
   153f8: 93 06 f0 0f  	li	a3, 255
   153fc: bb 96 b6 00  	sllw	a3, a3, a1
   15400: 13 75 f5 0f  	andi	a0, a0, 255
   15404: 3b 15 b5 00  	sllw	a0, a0, a1
   15408: 13 76 f6 0f  	andi	a2, a2, 255
   1540c: 3b 18 b6 00  	sllw	a6, a2, a1
   15410: 2f a6 07 10  	lr.w	a2, (a5)
   15414: 33 77 d6 00  	and	a4, a2, a3
   15418: 63 19 a7 00  	bne	a4, a0, 0x1542a <.LBB1_15+0x18a>
   1541c: 33 47 06 01  	xor	a4, a2, a6
   15420: 75 8f        	and	a4, a4, a3
   15422: 31 8f        	xor	a4, a4, a2
   15424: 2f a7 e7 1a  	sc.w.rl	a4, a4, (a5)
   15428: 65 f7        	bnez	a4, 0x15410 <.LBB1_15+0x170>
   1542a: bb 55 b6 00  	srlw	a1, a2, a1
   1542e: 75 8e        	and	a2, a2, a3
   15430: 31 8d        	xor	a0, a0, a2
   15432: 13 35 15 00  	seqz	a0, a0
   15436: 23 03 b1 06  	sb	a1, 102(sp)
   1543a: a3 03 a1 06  	sb	a0, 103(sp)
   1543e: 41 bf        	j	0x153ce <.LBB1_15+0x12e>
   15440: 26 66        	ld	a2, 72(sp)
   15442: 46 65        	ld	a0, 80(sp)
   15444: 86 65        	ld	a1, 64(sp)
   15446: 93 f7 c5 ff  	andi	a5, a1, -4
   1544a: 9b 95 35 00  	slliw	a1, a1, 3
   1544e: 93 06 f0 0f  	li	a3, 255
   15452: bb 96 b6 00  	sllw	a3, a3, a1
   15456: 13 75 f5 0f  	andi	a0, a0, 255
   1545a: 3b 15 b5 00  	sllw	a0, a0, a1
   1545e: 13 76 f6 0f  	andi	a2, a2, 255
   15462: 3b 18 b6 00  	sllw	a6, a2, a1
   15466: 2f a6 07 14  	lr.w.aq	a2, (a5)
   1546a: 33 77 d6 00  	and	a4, a2, a3
   1546e: 63 19 a7 00  	bne	a4, a0, 0x15480 <.LBB1_15+0x1e0>
   15472: 33 47 06 01  	xor	a4, a2, a6
   15476: 75 8f        	and	a4, a4, a3
   15478: 31 8f        	xor	a4, a4, a2
   1547a: 2f a7 e7 1a  	sc.w.rl	a4, a4, (a5)
   1547e: 65 f7        	bnez	a4, 0x15466 <.LBB1_15+0x1c6>
   15480: bb 55 b6 00  	srlw	a1, a2, a1
   15484: 75 8e        	and	a2, a2, a3
   15486: 31 8d        	xor	a0, a0, a2
   15488: 13 35 15 00  	seqz	a0, a0
   1548c: 23 03 b1 06  	sb	a1, 102(sp)
   15490: a3 03 a1 06  	sb	a0, 103(sp)
   15494: 2d bf        	j	0x153ce <.LBB1_15+0x12e>
   15496: 26 66        	ld	a2, 72(sp)
   15498: 46 65        	ld	a0, 80(sp)
   1549a: 86 65        	ld	a1, 64(sp)
   1549c: 93 f7 c5 ff  	andi	a5, a1, -4
   154a0: 9b 95 35 00  	slliw	a1, a1, 3
   154a4: 93 06 f0 0f  	li	a3, 255
   154a8: bb 96 b6 00  	sllw	a3, a3, a1
   154ac: 13 75 f5 0f  	andi	a0, a0, 255
   154b0: 3b 15 b5 00  	sllw	a0, a0, a1
   154b4: 13 76 f6 0f  	andi	a2, a2, 255
   154b8: 3b 18 b6 00  	sllw	a6, a2, a1
   154bc: 2f a6 07 16  	lr.w.aqrl	a2, (a5)
   154c0: 33 77 d6 00  	and	a4, a2, a3
   154c4: 63 19 a7 00  	bne	a4, a0, 0x154d6 <.LBB1_15+0x236>
   154c8: 33 47 06 01  	xor	a4, a2, a6
   154cc: 75 8f        	and	a4, a4, a3
   154ce: 31 8f        	xor	a4, a4, a2
   154d0: 2f a7 e7 1a  	sc.w.rl	a4, a4, (a5)
   154d4: 65 f7        	bnez	a4, 0x154bc <.LBB1_15+0x21c>
   154d6: bb 55 b6 00  	srlw	a1, a2, a1
   154da: 75 8e        	and	a2, a2, a3
   154dc: 31 8d        	xor	a0, a0, a2
   154de: 13 35 15 00  	seqz	a0, a0
   154e2: 23 03 b1 06  	sb	a1, 102(sp)
   154e6: a3 03 a1 06  	sb	a0, 103(sp)
   154ea: d5 b5        	j	0x153ce <.LBB1_15+0x12e>
   154ec: 26 66        	ld	a2, 72(sp)
   154ee: 46 65        	ld	a0, 80(sp)
   154f0: 86 65        	ld	a1, 64(sp)
   154f2: 93 f7 c5 ff  	andi	a5, a1, -4
   154f6: 9b 95 35 00  	slliw	a1, a1, 3
   154fa: 93 06 f0 0f  	li	a3, 255
   154fe: bb 96 b6 00  	sllw	a3, a3, a1
   15502: 13 75 f5 0f  	andi	a0, a0, 255
   15506: 3b 15 b5 00  	sllw	a0, a0, a1
   1550a: 13 76 f6 0f  	andi	a2, a2, 255
   1550e: 3b 18 b6 00  	sllw	a6, a2, a1
   15512: 2f a6 07 14  	lr.w.aq	a2, (a5)
   15516: 33 77 d6 00  	and	a4, a2, a3
   1551a: 63 19 a7 00  	bne	a4, a0, 0x1552c <.LBB1_15+0x28c>
   1551e: 33 47 06 01  	xor	a4, a2, a6
   15522: 75 8f        	and	a4, a4, a3
   15524: 31 8f        	xor	a4, a4, a2
   15526: 2f a7 e7 18  	sc.w	a4, a4, (a5)
   1552a: 65 f7        	bnez	a4, 0x15512 <.LBB1_15+0x272>
   1552c: bb 55 b6 00  	srlw	a1, a2, a1
   15530: 75 8e        	and	a2, a2, a3
   15532: 31 8d        	xor	a0, a0, a2
   15534: 13 35 15 00  	seqz	a0, a0
   15538: 23 03 b1 06  	sb	a1, 102(sp)
   1553c: a3 03 a1 06  	sb	a0, 103(sp)
   15540: 79 b5        	j	0x153ce <.LBB1_15+0x12e>
   15542: 26 66        	ld	a2, 72(sp)
   15544: 46 65        	ld	a0, 80(sp)
   15546: 86 65        	ld	a1, 64(sp)
   15548: 93 f7 c5 ff  	andi	a5, a1, -4
   1554c: 9b 95 35 00  	slliw	a1, a1, 3
   15550: 93 06 f0 0f  	li	a3, 255
   15554: bb 96 b6 00  	sllw	a3, a3, a1
   15558: 13 75 f5 0f  	andi	a0, a0, 255
   1555c: 3b 15 b5 00  	sllw	a0, a0, a1
   15560: 13 76 f6 0f  	andi	a2, a2, 255
   15564: 3b 18 b6 00  	sllw	a6, a2, a1
   15568: 2f a6 07 14  	lr.w.aq	a2, (a5)
   1556c: 33 77 d6 00  	and	a4, a2, a3
   15570: 63 19 a7 00  	bne	a4, a0, 0x15582 <.LBB1_15+0x2e2>
   15574: 33 47 06 01  	xor	a4, a2, a6
   15578: 75 8f        	and	a4, a4, a3
   1557a: 31 8f        	xor	a4, a4, a2
   1557c: 2f a7 e7 18  	sc.w	a4, a4, (a5)
   15580: 65 f7        	bnez	a4, 0x15568 <.LBB1_15+0x2c8>
   15582: bb 55 b6 00  	srlw	a1, a2, a1
   15586: 75 8e        	and	a2, a2, a3
   15588: 31 8d        	xor	a0, a0, a2
   1558a: 13 35 15 00  	seqz	a0, a0
   1558e: 23 03 b1 06  	sb	a1, 102(sp)
   15592: a3 03 a1 06  	sb	a0, 103(sp)
   15596: 25 bd        	j	0x153ce <.LBB1_15+0x12e>
   15598: 26 66        	ld	a2, 72(sp)
   1559a: 46 65        	ld	a0, 80(sp)
   1559c: 86 65        	ld	a1, 64(sp)
   1559e: 93 f7 c5 ff  	andi	a5, a1, -4
   155a2: 9b 95 35 00  	slliw	a1, a1, 3
   155a6: 93 06 f0 0f  	li	a3, 255
   155aa: bb 96 b6 00  	sllw	a3, a3, a1
   155ae: 13 75 f5 0f  	andi	a0, a0, 255
   155b2: 3b 15 b5 00  	sllw	a0, a0, a1
   155b6: 13 76 f6 0f  	andi	a2, a2, 255
   155ba: 3b 18 b6 00  	sllw	a6, a2, a1
   155be: 2f a6 07 16  	lr.w.aqrl	a2, (a5)
   155c2: 33 77 d6 00  	and	a4, a2, a3
   155c6: 63 19 a7 00  	bne	a4, a0, 0x155d8 <.LBB1_15+0x338>
   155ca: 33 47 06 01  	xor	a4, a2, a6
   155ce: 75 8f        	and	a4, a4, a3
   155d0: 31 8f        	xor	a4, a4, a2
   155d2: 2f a7 e7 1a  	sc.w.rl	a4, a4, (a5)
   155d6: 65 f7        	bnez	a4, 0x155be <.LBB1_15+0x31e>
   155d8: bb 55 b6 00  	srlw	a1, a2, a1
   155dc: 75 8e        	and	a2, a2, a3
   155de: 31 8d        	xor	a0, a0, a2
   155e0: 13 35 15 00  	seqz	a0, a0
   155e4: 23 03 b1 06  	sb	a1, 102(sp)
   155e8: a3 03 a1 06  	sb	a0, 103(sp)
   155ec: cd b3        	j	0x153ce <.LBB1_15+0x12e>
   155ee: 26 66        	ld	a2, 72(sp)
   155f0: 46 65        	ld	a0, 80(sp)
   155f2: 86 65        	ld	a1, 64(sp)
   155f4: 93 f7 c5 ff  	andi	a5, a1, -4
   155f8: 9b 95 35 00  	slliw	a1, a1, 3
   155fc: 93 06 f0 0f  	li	a3, 255
   15600: bb 96 b6 00  	sllw	a3, a3, a1
   15604: 13 75 f5 0f  	andi	a0, a0, 255
   15608: 3b 15 b5 00  	sllw	a0, a0, a1
   1560c: 13 76 f6 0f  	andi	a2, a2, 255
   15610: 3b 18 b6 00  	sllw	a6, a2, a1
   15614: 2f a6 07 14  	lr.w.aq	a2, (a5)
   15618: 33 77 d6 00  	and	a4, a2, a3
   1561c: 63 19 a7 00  	bne	a4, a0, 0x1562e <.LBB1_15+0x38e>
   15620: 33 47 06 01  	xor	a4, a2, a6
   15624: 75 8f        	and	a4, a4, a3
   15626: 31 8f        	xor	a4, a4, a2
   15628: 2f a7 e7 1a  	sc.w.rl	a4, a4, (a5)
   1562c: 65 f7        	bnez	a4, 0x15614 <.LBB1_15+0x374>
   1562e: bb 55 b6 00  	srlw	a1, a2, a1
   15632: 75 8e        	and	a2, a2, a3
   15634: 31 8d        	xor	a0, a0, a2
   15636: 13 35 15 00  	seqz	a0, a0
   1563a: 23 03 b1 06  	sb	a1, 102(sp)
   1563e: a3 03 a1 06  	sb	a0, 103(sp)
   15642: 71 b3        	j	0x153ce <.LBB1_15+0x12e>
   15644: 26 66        	ld	a2, 72(sp)
   15646: 46 65        	ld	a0, 80(sp)
   15648: 86 65        	ld	a1, 64(sp)
   1564a: 93 f7 c5 ff  	andi	a5, a1, -4
   1564e: 9b 95 35 00  	slliw	a1, a1, 3
   15652: 93 06 f0 0f  	li	a3, 255
   15656: bb 96 b6 00  	sllw	a3, a3, a1
   1565a: 13 75 f5 0f  	andi	a0, a0, 255
   1565e: 3b 15 b5 00  	sllw	a0, a0, a1
   15662: 13 76 f6 0f  	andi	a2, a2, 255
   15666: 3b 18 b6 00  	sllw	a6, a2, a1
   1566a: 2f a6 07 14  	lr.w.aq	a2, (a5)
   1566e: 33 77 d6 00  	and	a4, a2, a3
   15672: 63 19 a7 00  	bne	a4, a0, 0x15684 <.LBB1_15+0x3e4>
   15676: 33 47 06 01  	xor	a4, a2, a6
   1567a: 75 8f        	and	a4, a4, a3
   1567c: 31 8f        	xor	a4, a4, a2
   1567e: 2f a7 e7 1a  	sc.w.rl	a4, a4, (a5)
   15682: 65 f7        	bnez	a4, 0x1566a <.LBB1_15+0x3ca>
   15684: bb 55 b6 00  	srlw	a1, a2, a1
   15688: 75 8e        	and	a2, a2, a3
   1568a: 31 8d        	xor	a0, a0, a2
   1568c: 13 35 15 00  	seqz	a0, a0
   15690: 23 03 b1 06  	sb	a1, 102(sp)
   15694: a3 03 a1 06  	sb	a0, 103(sp)
   15698: 1d bb        	j	0x153ce <.LBB1_15+0x12e>
   1569a: 26 66        	ld	a2, 72(sp)
   1569c: 46 65        	ld	a0, 80(sp)
   1569e: 86 65        	ld	a1, 64(sp)
   156a0: 93 f7 c5 ff  	andi	a5, a1, -4
   156a4: 9b 95 35 00  	slliw	a1, a1, 3
   156a8: 93 06 f0 0f  	li	a3, 255
   156ac: bb 96 b6 00  	sllw	a3, a3, a1
   156b0: 13 75 f5 0f  	andi	a0, a0, 255
   156b4: 3b 15 b5 00  	sllw	a0, a0, a1
   156b8: 13 76 f6 0f  	andi	a2, a2, 255
   156bc: 3b 18 b6 00  	sllw	a6, a2, a1
   156c0: 2f a6 07 16  	lr.w.aqrl	a2, (a5)
   156c4: 33 77 d6 00  	and	a4, a2, a3
   156c8: 63 19 a7 00  	bne	a4, a0, 0x156da <.LBB1_15+0x43a>
   156cc: 33 47 06 01  	xor	a4, a2, a6
   156d0: 75 8f        	and	a4, a4, a3
   156d2: 31 8f        	xor	a4, a4, a2
   156d4: 2f a7 e7 1a  	sc.w.rl	a4, a4, (a5)
   156d8: 65 f7        	bnez	a4, 0x156c0 <.LBB1_15+0x420>
   156da: bb 55 b6 00  	srlw	a1, a2, a1
   156de: 75 8e        	and	a2, a2, a3
   156e0: 31 8d        	xor	a0, a0, a2
   156e2: 13 35 15 00  	seqz	a0, a0
   156e6: 23 03 b1 06  	sb	a1, 102(sp)
   156ea: a3 03 a1 06  	sb	a0, 103(sp)
   156ee: c5 b1        	j	0x153ce <.LBB1_15+0x12e>
   156f0: 26 66        	ld	a2, 72(sp)
   156f2: 46 65        	ld	a0, 80(sp)
   156f4: 86 65        	ld	a1, 64(sp)
   156f6: 93 f7 c5 ff  	andi	a5, a1, -4
   156fa: 9b 95 35 00  	slliw	a1, a1, 3
   156fe: 93 06 f0 0f  	li	a3, 255
   15702: bb 96 b6 00  	sllw	a3, a3, a1
   15706: 13 75 f5 0f  	andi	a0, a0, 255
   1570a: 3b 15 b5 00  	sllw	a0, a0, a1
   1570e: 13 76 f6 0f  	andi	a2, a2, 255
   15712: 3b 18 b6 00  	sllw	a6, a2, a1
   15716: 2f a6 07 16  	lr.w.aqrl	a2, (a5)
   1571a: 33 77 d6 00  	and	a4, a2, a3
   1571e: 63 19 a7 00  	bne	a4, a0, 0x15730 <.LBB1_15+0x490>
   15722: 33 47 06 01  	xor	a4, a2, a6
   15726: 75 8f        	and	a4, a4, a3
   15728: 31 8f        	xor	a4, a4, a2
   1572a: 2f a7 e7 1a  	sc.w.rl	a4, a4, (a5)
   1572e: 65 f7        	bnez	a4, 0x15716 <.LBB1_15+0x476>
   15730: bb 55 b6 00  	srlw	a1, a2, a1
   15734: 75 8e        	and	a2, a2, a3
   15736: 31 8d        	xor	a0, a0, a2
   15738: 13 35 15 00  	seqz	a0, a0
   1573c: 23 03 b1 06  	sb	a1, 102(sp)
   15740: a3 03 a1 06  	sb	a0, 103(sp)
   15744: 69 b1        	j	0x153ce <.LBB1_15+0x12e>
   15746: 26 66        	ld	a2, 72(sp)
   15748: 46 65        	ld	a0, 80(sp)
   1574a: 86 65        	ld	a1, 64(sp)
   1574c: 93 f7 c5 ff  	andi	a5, a1, -4
   15750: 9b 95 35 00  	slliw	a1, a1, 3
   15754: 93 06 f0 0f  	li	a3, 255
   15758: bb 96 b6 00  	sllw	a3, a3, a1
   1575c: 13 75 f5 0f  	andi	a0, a0, 255
   15760: 3b 15 b5 00  	sllw	a0, a0, a1
   15764: 13 76 f6 0f  	andi	a2, a2, 255
   15768: 3b 18 b6 00  	sllw	a6, a2, a1
   1576c: 2f a6 07 16  	lr.w.aqrl	a2, (a5)
   15770: 33 77 d6 00  	and	a4, a2, a3
   15774: 63 19 a7 00  	bne	a4, a0, 0x15786 <.LBB1_15+0x4e6>
   15778: 33 47 06 01  	xor	a4, a2, a6
   1577c: 75 8f        	and	a4, a4, a3
   1577e: 31 8f        	xor	a4, a4, a2
   15780: 2f a7 e7 1a  	sc.w.rl	a4, a4, (a5)
   15784: 65 f7        	bnez	a4, 0x1576c <.LBB1_15+0x4cc>
   15786: bb 55 b6 00  	srlw	a1, a2, a1
   1578a: 75 8e        	and	a2, a2, a3
   1578c: 31 8d        	xor	a0, a0, a2
   1578e: 13 35 15 00  	seqz	a0, a0
   15792: 23 03 b1 06  	sb	a1, 102(sp)
   15796: a3 03 a1 06  	sb	a0, 103(sp)
   1579a: 15 b9        	j	0x153ce <.LBB1_15+0x12e>
   1579c: 26 66        	ld	a2, 72(sp)
   1579e: 46 65        	ld	a0, 80(sp)
   157a0: 86 65        	ld	a1, 64(sp)
   157a2: 93 f7 c5 ff  	andi	a5, a1, -4
   157a6: 9b 95 35 00  	slliw	a1, a1, 3
   157aa: 93 06 f0 0f  	li	a3, 255
   157ae: bb 96 b6 00  	sllw	a3, a3, a1
   157b2: 13 75 f5 0f  	andi	a0, a0, 255
   157b6: 3b 15 b5 00  	sllw	a0, a0, a1
   157ba: 13 76 f6 0f  	andi	a2, a2, 255
   157be: 3b 18 b6 00  	sllw	a6, a2, a1
   157c2: 2f a6 07 16  	lr.w.aqrl	a2, (a5)
   157c6: 33 77 d6 00  	and	a4, a2, a3
   157ca: 63 19 a7 00  	bne	a4, a0, 0x157dc <.LBB1_15+0x53c>
   157ce: 33 47 06 01  	xor	a4, a2, a6
   157d2: 75 8f        	and	a4, a4, a3
   157d4: 31 8f        	xor	a4, a4, a2
   157d6: 2f a7 e7 1a  	sc.w.rl	a4, a4, (a5)
   157da: 65 f7        	bnez	a4, 0x157c2 <.LBB1_15+0x522>
   157dc: bb 55 b6 00  	srlw	a1, a2, a1
   157e0: 75 8e        	and	a2, a2, a3
   157e2: 31 8d        	xor	a0, a0, a2
   157e4: 13 35 15 00  	seqz	a0, a0
   157e8: 23 03 b1 06  	sb	a1, 102(sp)
   157ec: a3 03 a1 06  	sb	a0, 103(sp)
   157f0: f9 be        	j	0x153ce <.LBB1_15+0x12e>
   157f2: 42 65        	ld	a0, 16(sp)
   157f4: a3 02 a1 06  	sb	a0, 101(sp)
   157f8: 05 45        	li	a0, 1
   157fa: 23 02 a1 06  	sb	a0, 100(sp)
   157fe: 01 a8        	j	0x1580e <.LBB1_15+0x56e>
   15800: 42 65        	ld	a0, 16(sp)
   15802: a3 02 a1 06  	sb	a0, 101(sp)
   15806: 01 45        	li	a0, 0
   15808: 23 02 a1 06  	sb	a0, 100(sp)
   1580c: 09 a0        	j	0x1580e <.LBB1_15+0x56e>
   1580e: 03 45 41 06  	lbu	a0, 100(sp)
   15812: 83 45 51 06  	lbu	a1, 101(sp)
   15816: f6 70        	ld	ra, 376(sp)
   15818: 19 61        	addi	sp, sp, 384
   1581a: 82 80        	ret

000000000001581c <.Lpcrel_hi14>:
   1581c: 17 c5 ff ff  	auipc	a0, 1048572
   15820: 13 05 45 95  	addi	a0, a0, -1708
   15824: aa ee        	sd	a0, 344(sp)
   15826: 05 45        	li	a0, 1
   15828: aa f2        	sd	a0, 352(sp)
   1582a: 01 45        	li	a0, 0
   1582c: 29 e9        	bnez	a0, 0x1587e <.Lpcrel_hi19>
   1582e: 19 a8        	j	0x15844 <.Lpcrel_hi15+0x14>

0000000000015830 <.Lpcrel_hi15>:
   15830: 17 c5 ff ff  	auipc	a0, 1048572
   15834: 13 05 85 9a  	addi	a0, a0, -1624
   15838: aa f6        	sd	a0, 360(sp)
   1583a: 05 45        	li	a0, 1
   1583c: aa fa        	sd	a0, 368(sp)
   1583e: 01 45        	li	a0, 0
   15840: 4d e1        	bnez	a0, 0x158e2 <.Lpcrel_hi24>
   15842: 9d a0        	j	0x158a8 <.Lpcrel_hi20+0x12>
   15844: 01 45        	li	a0, 0
   15846: aa fd        	sd	a0, 248(sp)

0000000000015848 <.Lpcrel_hi16>:
   15848: 97 c5 ff ff  	auipc	a1, 1048572
   1584c: 93 85 85 92  	addi	a1, a1, -1752
   15850: 2e ed        	sd	a1, 152(sp)
   15852: 85 45        	li	a1, 1
   15854: 2e f1        	sd	a1, 160(sp)
   15856: 6e 76        	ld	a2, 248(sp)
   15858: 92 65        	ld	a1, 256(sp)
   1585a: 32 fd        	sd	a2, 184(sp)
   1585c: ae e1        	sd	a1, 192(sp)

000000000001585e <.Lpcrel_hi17>:
   1585e: 97 b5 ff ff  	auipc	a1, 1048571
   15862: 93 85 a5 78  	addi	a1, a1, 1930
   15866: 2e f5        	sd	a1, 168(sp)
   15868: 2a f9        	sd	a0, 176(sp)

000000000001586a <.Lpcrel_hi18>:
   1586a: 17 c5 ff ff  	auipc	a0, 1048572
   1586e: 93 05 65 91  	addi	a1, a0, -1770
   15872: 28 09        	addi	a0, sp, 152
   15874: 97 20 00 00  	auipc	ra, 2
   15878: e7 80 00 64  	jalr	1600(ra)
   1587c: 00 00        	unimp

000000000001587e <.Lpcrel_hi19>:
   1587e: 17 b5 ff ff  	auipc	a0, 1048571
   15882: 93 05 25 7e  	addi	a1, a0, 2018
   15886: a8 01        	addi	a0, sp, 200
   15888: 2a e4        	sd	a0, 8(sp)
   1588a: 05 46        	li	a2, 1
   1588c: 97 f0 ff ff  	auipc	ra, 1048575
   15890: e7 80 00 5a  	jalr	1440(ra)
   15894: 22 65        	ld	a0, 8(sp)

0000000000015896 <.Lpcrel_hi20>:
   15896: 97 c5 ff ff  	auipc	a1, 1048572
   1589a: 93 85 a5 82  	addi	a1, a1, -2006
   1589e: 97 20 00 00  	auipc	ra, 2
   158a2: e7 80 60 61  	jalr	1558(ra)
   158a6: 00 00        	unimp
   158a8: 01 45        	li	a0, 0
   158aa: 2a fe        	sd	a0, 312(sp)

00000000000158ac <.Lpcrel_hi21>:
   158ac: 97 c5 ff ff  	auipc	a1, 1048572
   158b0: 93 85 c5 92  	addi	a1, a1, -1748
   158b4: ae f4        	sd	a1, 104(sp)
   158b6: 85 45        	li	a1, 1
   158b8: ae f8        	sd	a1, 112(sp)
   158ba: 72 76        	ld	a2, 312(sp)
   158bc: 96 65        	ld	a1, 320(sp)
   158be: 32 e5        	sd	a2, 136(sp)
   158c0: 2e e9        	sd	a1, 144(sp)

00000000000158c2 <.Lpcrel_hi22>:
   158c2: 97 b5 ff ff  	auipc	a1, 1048571
   158c6: 93 85 65 72  	addi	a1, a1, 1830
   158ca: ae fc        	sd	a1, 120(sp)
   158cc: 2a e1        	sd	a0, 128(sp)

00000000000158ce <.Lpcrel_hi23>:
   158ce: 17 c5 ff ff  	auipc	a0, 1048572
   158d2: 93 05 a5 91  	addi	a1, a0, -1766
   158d6: a8 10        	addi	a0, sp, 104
   158d8: 97 20 00 00  	auipc	ra, 2
   158dc: e7 80 c0 5d  	jalr	1500(ra)
   158e0: 00 00        	unimp

00000000000158e2 <.Lpcrel_hi24>:
   158e2: 17 b5 ff ff  	auipc	a0, 1048571
   158e6: 93 05 e5 77  	addi	a1, a0, 1918
   158ea: 28 02        	addi	a0, sp, 264
   158ec: 2a e0        	sd	a0, 0(sp)
   158ee: 05 46        	li	a2, 1
   158f0: 97 f0 ff ff  	auipc	ra, 1048575
   158f4: e7 80 c0 53  	jalr	1340(ra)
   158f8: 02 65        	ld	a0, 0(sp)

00000000000158fa <.Lpcrel_hi25>:
   158fa: 97 b5 ff ff  	auipc	a1, 1048571
   158fe: 93 85 65 7c  	addi	a1, a1, 1990
   15902: 97 20 00 00  	auipc	ra, 2
   15906: e7 80 20 5b  	jalr	1458(ra)
   1590a: 00 00        	unimp

000000000001590c <_ZN4core3cmp5impls50_$LT$impl$u20$core..cmp..Ord$u20$for$u20$usize$GT$3cmp17h6f74f73af8651af8E>:
   1590c: 79 71        	addi	sp, sp, -48
   1590e: 2e e4        	sd	a1, 8(sp)
   15910: 2a e8        	sd	a0, 16(sp)
   15912: 2a f0        	sd	a0, 32(sp)
   15914: 2e f4        	sd	a1, 40(sp)
   15916: 08 61        	ld	a0, 0(a0)
   15918: 8c 61        	ld	a1, 0(a1)
   1591a: 63 6a b5 00  	bltu	a0, a1, 0x1592e <_ZN4core3cmp5impls50_$LT$impl$u20$core..cmp..Ord$u20$for$u20$usize$GT$3cmp17h6f74f73af8651af8E+0x22>
   1591e: 09 a0        	j	0x15920 <_ZN4core3cmp5impls50_$LT$impl$u20$core..cmp..Ord$u20$for$u20$usize$GT$3cmp17h6f74f73af8651af8E+0x14>
   15920: a2 65        	ld	a1, 8(sp)
   15922: 42 65        	ld	a0, 16(sp)
   15924: 08 61        	ld	a0, 0(a0)
   15926: 8c 61        	ld	a1, 0(a1)
   15928: 63 0c b5 00  	beq	a0, a1, 0x15940 <_ZN4core3cmp5impls50_$LT$impl$u20$core..cmp..Ord$u20$for$u20$usize$GT$3cmp17h6f74f73af8651af8E+0x34>
   1592c: 31 a0        	j	0x15938 <_ZN4core3cmp5impls50_$LT$impl$u20$core..cmp..Ord$u20$for$u20$usize$GT$3cmp17h6f74f73af8651af8E+0x2c>
   1592e: 13 05 f0 0f  	li	a0, 255
   15932: a3 0f a1 00  	sb	a0, 31(sp)
   15936: 11 a8        	j	0x1594a <_ZN4core3cmp5impls50_$LT$impl$u20$core..cmp..Ord$u20$for$u20$usize$GT$3cmp17h6f74f73af8651af8E+0x3e>
   15938: 05 45        	li	a0, 1
   1593a: a3 0f a1 00  	sb	a0, 31(sp)
   1593e: 29 a0        	j	0x15948 <_ZN4core3cmp5impls50_$LT$impl$u20$core..cmp..Ord$u20$for$u20$usize$GT$3cmp17h6f74f73af8651af8E+0x3c>
   15940: 01 45        	li	a0, 0
   15942: a3 0f a1 00  	sb	a0, 31(sp)
   15946: 09 a0        	j	0x15948 <_ZN4core3cmp5impls50_$LT$impl$u20$core..cmp..Ord$u20$for$u20$usize$GT$3cmp17h6f74f73af8651af8E+0x3c>
   15948: 09 a0        	j	0x1594a <_ZN4core3cmp5impls50_$LT$impl$u20$core..cmp..Ord$u20$for$u20$usize$GT$3cmp17h6f74f73af8651af8E+0x3e>
   1594a: 03 45 f1 01  	lbu	a0, 31(sp)
   1594e: 45 61        	addi	sp, sp, 48
   15950: 82 80        	ret

0000000000015952 <_ZN13rcore_console12init_console17h8ee8e5eeb29eb79eE>:
; pub fn init_console(console: &'static dyn Console) {
   15952: 79 71        	addi	sp, sp, -48
   15954: 06 f4        	sd	ra, 40(sp)
   15956: 2a ec        	sd	a0, 24(sp)
   15958: 2e f0        	sd	a1, 32(sp)
;     CONSOLE.call_once(|| console);
   1595a: 2a e4        	sd	a0, 8(sp)
   1595c: 2e e8        	sd	a1, 16(sp)
   1595e: a2 65        	ld	a1, 8(sp)
   15960: 42 66        	ld	a2, 16(sp)

0000000000015962 <.Lpcrel_hi0>:
   15962: 17 95 00 00  	auipc	a0, 9
   15966: 13 05 e5 b9  	addi	a0, a0, -1122
   1596a: 97 00 00 00  	auipc	ra, 0
   1596e: e7 80 c0 73  	jalr	1852(ra)

0000000000015972 <.Lpcrel_hi1>:
;     log::set_logger(&Logger).unwrap();
   15972: 17 c5 ff ff  	auipc	a0, 1048572
   15976: 13 05 65 8b  	addi	a0, a0, -1866

000000000001597a <.Lpcrel_hi2>:
   1597a: 97 c5 ff ff  	auipc	a1, 1048572
   1597e: 93 85 e5 8a  	addi	a1, a1, -1874
   15982: 97 20 00 00  	auipc	ra, 2
   15986: e7 80 20 f3  	jalr	-206(ra)

000000000001598a <.Lpcrel_hi3>:
   1598a: 97 c5 ff ff  	auipc	a1, 1048572
   1598e: 93 85 65 8e  	addi	a1, a1, -1818
   15992: 97 10 00 00  	auipc	ra, 1
   15996: e7 80 c0 87  	jalr	-1924(ra)
; }
   1599a: a2 70        	ld	ra, 40(sp)
   1599c: 45 61        	addi	sp, sp, 48
   1599e: 82 80        	ret

00000000000159a0 <_ZN13rcore_console13set_log_level17h731dfef85078d253E>:
; pub fn set_log_level(env: Option<&str>) {
   159a0: 01 11        	addi	sp, sp, -32
   159a2: 06 ec        	sd	ra, 24(sp)
   159a4: 2a e4        	sd	a0, 8(sp)
   159a6: 2e e8        	sd	a1, 16(sp)
;     log::set_max_level(env.and_then(|s| Lv::from_str(s).ok()).unwrap_or(Lv::Trace));
   159a8: 97 00 00 00  	auipc	ra, 0
   159ac: e7 80 a0 78  	jalr	1930(ra)
   159b0: 95 45        	li	a1, 5
   159b2: 2e e0        	sd	a1, 0(sp)
   159b4: 82 65        	ld	a1, 0(sp)
   159b6: 97 00 00 00  	auipc	ra, 0
   159ba: e7 80 c0 7c  	jalr	1996(ra)
   159be: 97 f0 ff ff  	auipc	ra, 1048575
   159c2: e7 80 e0 59  	jalr	1438(ra)
; }
   159c6: e2 60        	ld	ra, 24(sp)
   159c8: 05 61        	addi	sp, sp, 32
   159ca: 82 80        	ret

00000000000159cc <_ZN13rcore_console6_print17h9ef186f4d9591c56E>:
; pub fn _print(args: fmt::Arguments) {
   159cc: 39 71        	addi	sp, sp, -64
;     Logger.write_fmt(args).unwrap();
   159ce: 06 fc        	sd	ra, 56(sp)
   159d0: 0c 75        	ld	a1, 40(a0)
   159d2: 2e f8        	sd	a1, 48(sp)
   159d4: 0c 71        	ld	a1, 32(a0)
   159d6: 2e f4        	sd	a1, 40(sp)
   159d8: 0c 6d        	ld	a1, 24(a0)
   159da: 2e f0        	sd	a1, 32(sp)
   159dc: 0c 69        	ld	a1, 16(a0)
   159de: 2e ec        	sd	a1, 24(sp)
   159e0: 0c 65        	ld	a1, 8(a0)
   159e2: 2e e8        	sd	a1, 16(sp)
   159e4: 08 61        	ld	a0, 0(a0)
   159e6: 2a e4        	sd	a0, 8(sp)
   159e8: 13 05 71 00  	addi	a0, sp, 7
   159ec: 2c 00        	addi	a1, sp, 8
   159ee: 97 f0 ff ff  	auipc	ra, 1048575
   159f2: e7 80 80 0d  	jalr	216(ra)

00000000000159f6 <.Lpcrel_hi32>:
   159f6: 97 c5 ff ff  	auipc	a1, 1048572
   159fa: 93 85 a5 8a  	addi	a1, a1, -1878
   159fe: 97 10 00 00  	auipc	ra, 1
   15a02: e7 80 a0 84  	jalr	-1974(ra)
; }
   15a06: e2 70        	ld	ra, 56(sp)
   15a08: 21 61        	addi	sp, sp, 64
   15a0a: 82 80        	ret

0000000000015a0c <_ZN58_$LT$rcore_console..Logger$u20$as$u20$core..fmt..Write$GT$9write_str17h2563e31e9b3f3ef7E>:
;     fn write_str(&mut self, s: &str) -> Result<(), fmt::Error> {
   15a0c: 39 71        	addi	sp, sp, -64
   15a0e: 06 fc        	sd	ra, 56(sp)
   15a10: 32 e8        	sd	a2, 16(sp)
   15a12: 2e e4        	sd	a1, 8(sp)
   15a14: 2a f0        	sd	a0, 32(sp)
   15a16: 2e f4        	sd	a1, 40(sp)
   15a18: 32 f8        	sd	a2, 48(sp)

0000000000015a1a <.Lpcrel_hi33>:
;         let _ = CONSOLE.get().unwrap().put_str(s);
   15a1a: 17 95 00 00  	auipc	a0, 9
   15a1e: 13 05 65 ae  	addi	a0, a0, -1306
   15a22: 97 00 00 00  	auipc	ra, 0
   15a26: e7 80 c0 58  	jalr	1420(ra)

0000000000015a2a <.Lpcrel_hi34>:
   15a2a: 97 c5 ff ff  	auipc	a1, 1048572
   15a2e: 93 85 e5 88  	addi	a1, a1, -1906
   15a32: 97 00 00 00  	auipc	ra, 0
   15a36: e7 80 40 6d  	jalr	1748(ra)
   15a3a: a2 65        	ld	a1, 8(sp)
   15a3c: 42 66        	ld	a2, 16(sp)
   15a3e: aa 86        	mv	a3, a0
   15a40: 88 62        	ld	a0, 0(a3)
   15a42: 94 66        	ld	a3, 8(a3)
   15a44: 94 72        	ld	a3, 32(a3)
   15a46: 82 96        	jalr	a3
   15a48: 01 45        	li	a0, 0
;         Ok(())
   15a4a: a3 0f a1 00  	sb	a0, 31(sp)
;     }
   15a4e: 03 45 f1 01  	lbu	a0, 31(sp)
   15a52: e2 70        	ld	ra, 56(sp)
   15a54: 21 61        	addi	sp, sp, 64
   15a56: 82 80        	ret

0000000000015a58 <_ZN50_$LT$rcore_console..Logger$u20$as$u20$log..Log$GT$7enabled17ha66de10d6bb175bdE>:
;     fn enabled(&self, _metadata: &log::Metadata) -> bool {
   15a58: 41 11        	addi	sp, sp, -16
   15a5a: 2a e0        	sd	a0, 0(sp)
   15a5c: 2e e4        	sd	a1, 8(sp)
   15a5e: 05 45        	li	a0, 1
;     }
   15a60: 41 01        	addi	sp, sp, 16
   15a62: 82 80        	ret

0000000000015a64 <_ZN50_$LT$rcore_console..Logger$u20$as$u20$log..Log$GT$3log17h8f334fb90cd474c5E>:
;     fn log(&self, record: &log::Record) {
   15a64: 13 01 01 c2  	addi	sp, sp, -992
   15a68: 23 3c 11 3c  	sd	ra, 984(sp)
   15a6c: 2e f0        	sd	a1, 32(sp)
   15a6e: aa 85        	mv	a1, a0
   15a70: 02 75        	ld	a0, 32(sp)
   15a72: 23 30 b1 2c  	sd	a1, 704(sp)
   15a76: 23 34 a1 2c  	sd	a0, 712(sp)
;         let color_code: u8 = match record.level() {
   15a7a: 97 f0 ff ff  	auipc	ra, 1048575
   15a7e: e7 80 60 51  	jalr	1302(ra)
   15a82: 2a fc        	sd	a0, 56(sp)
   15a84: 62 75        	ld	a0, 56(sp)
   15a86: 7d 15        	addi	a0, a0, -1
   15a88: 2a f4        	sd	a0, 40(sp)
   15a8a: 22 75        	ld	a0, 40(sp)
   15a8c: 0e 05        	slli	a0, a0, 3

0000000000015a8e <.Lpcrel_hi35>:
   15a8e: 97 b5 ff ff  	auipc	a1, 1048571
   15a92: 93 85 25 77  	addi	a1, a1, 1906
   15a96: 2e 95        	add	a0, a0, a1
   15a98: 08 61        	ld	a0, 0(a0)
   15a9a: 02 85        	jr	a0
;         let color_code: u8 = match record.level() {
   15a9c: 00 00        	unimp

0000000000015a9e <.LBB6_3>:
   15a9e: 7d 45        	li	a0, 31
;             Error => 31,
   15aa0: a3 0b a1 02  	sb	a0, 55(sp)
   15aa4: 2d a0        	j	0x15ace <.LBB6_7+0xa>

0000000000015aa6 <.LBB6_4>:
   15aa6: 13 05 d0 05  	li	a0, 93
;             Warn => 93,
   15aaa: a3 0b a1 02  	sb	a0, 55(sp)
   15aae: 05 a0        	j	0x15ace <.LBB6_7+0xa>

0000000000015ab0 <.LBB6_5>:
   15ab0: 13 05 20 02  	li	a0, 34
;             Info => 34,
   15ab4: a3 0b a1 02  	sb	a0, 55(sp)
   15ab8: 19 a8        	j	0x15ace <.LBB6_7+0xa>

0000000000015aba <.LBB6_6>:
   15aba: 13 05 00 02  	li	a0, 32
;             Debug => 32,
   15abe: a3 0b a1 02  	sb	a0, 55(sp)
   15ac2: 31 a0        	j	0x15ace <.LBB6_7+0xa>

0000000000015ac4 <.LBB6_7>:
   15ac4: 13 05 a0 05  	li	a0, 90
;             Trace => 90,
   15ac8: a3 0b a1 02  	sb	a0, 55(sp)
   15acc: 09 a0        	j	0x15ace <.LBB6_7+0xa>
;             record.level(),
   15ace: 02 75        	ld	a0, 32(sp)
   15ad0: 97 f0 ff ff  	auipc	ra, 1048575
   15ad4: e7 80 00 4c  	jalr	1216(ra)
   15ad8: aa 85        	mv	a1, a0
   15ada: 02 75        	ld	a0, 32(sp)
   15adc: 2e fd        	sd	a1, 184(sp)
;             record.args(),
   15ade: 97 f0 ff ff  	auipc	ra, 1048575
   15ae2: e7 80 60 4a  	jalr	1190(ra)
   15ae6: aa e1        	sd	a0, 192(sp)
   15ae8: 28 19        	addi	a0, sp, 184
;         println!(
   15aea: 2a f1        	sd	a0, 160(sp)
   15aec: 88 01        	addi	a0, sp, 192
   15aee: 2a f5        	sd	a0, 168(sp)
   15af0: 13 05 71 03  	addi	a0, sp, 55
   15af4: 2a f9        	sd	a0, 176(sp)
   15af6: ca 75        	ld	a1, 176(sp)
   15af8: 23 34 b1 3a  	sd	a1, 936(sp)

0000000000015afc <.Lpcrel_hi36>:
   15afc: 17 35 00 00  	auipc	a0, 3
   15b00: 13 05 05 4b  	addi	a0, a0, 1200
   15b04: 23 38 a1 3a  	sd	a0, 944(sp)
   15b08: 23 3c b1 38  	sd	a1, 920(sp)
   15b0c: 23 30 a1 3a  	sd	a0, 928(sp)
   15b10: 83 37 81 39  	ld	a5, 920(sp)
   15b14: 03 37 01 3a  	ld	a4, 928(sp)
;         println!(
   15b18: 8a 75        	ld	a1, 160(sp)
   15b1a: 23 34 b1 38  	sd	a1, 904(sp)

0000000000015b1e <.Lpcrel_hi37>:
   15b1e: 17 25 00 00  	auipc	a0, 2
   15b22: 13 05 45 a5  	addi	a0, a0, -1452
   15b26: 23 38 a1 38  	sd	a0, 912(sp)
   15b2a: 23 3c b1 36  	sd	a1, 888(sp)
   15b2e: 23 30 a1 38  	sd	a0, 896(sp)
   15b32: 83 36 81 37  	ld	a3, 888(sp)
   15b36: 03 36 01 38  	ld	a2, 896(sp)
;         println!(
   15b3a: aa 75        	ld	a1, 168(sp)
   15b3c: 23 34 b1 3c  	sd	a1, 968(sp)

0000000000015b40 <.Lpcrel_hi38>:
   15b40: 17 f5 ff ff  	auipc	a0, 1048575
   15b44: 13 05 05 20  	addi	a0, a0, 512
   15b48: 23 38 a1 3c  	sd	a0, 976(sp)
   15b4c: 23 3c b1 3a  	sd	a1, 952(sp)
   15b50: 23 30 a1 3c  	sd	a0, 960(sp)
   15b54: 83 35 81 3b  	ld	a1, 952(sp)
   15b58: 03 35 01 3c  	ld	a0, 960(sp)
;         println!(
   15b5c: be f8        	sd	a5, 112(sp)
   15b5e: ba fc        	sd	a4, 120(sp)
   15b60: 36 e1        	sd	a3, 128(sp)
   15b62: 32 e5        	sd	a2, 136(sp)
   15b64: 2e e9        	sd	a1, 144(sp)
   15b66: 2a ed        	sd	a0, 152(sp)
   15b68: 0d 48        	li	a6, 3
   15b6a: a3 07 01 1b  	sb	a6, 431(sp)
   15b6e: 89 42        	li	t0, 2
   15b70: 16 fb        	sd	t0, 432(sp)
   15b72: 96 e3        	sd	t0, 448(sp)
   15b74: 83 47 f1 1a  	lbu	a5, 431(sp)
   15b78: da 76        	ld	a3, 432(sp)
   15b7a: 7a 76        	ld	a2, 440(sp)
   15b7c: 9e 65        	ld	a1, 448(sp)
   15b7e: 3e 65        	ld	a0, 456(sp)
   15b80: 01 47        	li	a4, 0
   15b82: 23 30 e1 34  	sd	a4, 832(sp)
   15b86: 93 08 00 02  	li	a7, 32
   15b8a: 23 26 11 35  	sw	a7, 844(sp)
   15b8e: a3 09 f1 34  	sb	a5, 851(sp)
   15b92: 23 2a e1 34  	sw	a4, 852(sp)
   15b96: 23 3c d1 34  	sd	a3, 856(sp)
   15b9a: 23 30 c1 36  	sd	a2, 864(sp)
   15b9e: 23 34 b1 36  	sd	a1, 872(sp)
   15ba2: 23 38 a1 36  	sd	a0, 880(sp)
   15ba6: 3a eb        	sd	a4, 400(sp)
   15ba8: 23 2c 11 19  	sw	a7, 408(sp)
   15bac: 23 00 f1 1a  	sb	a5, 416(sp)
   15bb0: 23 2e e1 18  	sw	a4, 412(sp)
   15bb4: b6 fa        	sd	a3, 368(sp)
   15bb6: b2 fe        	sd	a2, 376(sp)
   15bb8: 2e e3        	sd	a1, 384(sp)
   15bba: 2a e7        	sd	a0, 392(sp)
   15bbc: 05 43        	li	t1, 1
;         println!(
   15bbe: 1a e8        	sd	t1, 16(sp)
   15bc0: a3 07 61 20  	sb	t1, 527(sp)
   15bc4: 23 38 51 20  	sd	t0, 528(sp)
   15bc8: 15 45        	li	a0, 5
   15bca: 23 34 a1 22  	sd	a0, 552(sp)
   15bce: 23 30 e1 22  	sd	a4, 544(sp)
   15bd2: 83 47 f1 20  	lbu	a5, 527(sp)
   15bd6: 83 36 01 21  	ld	a3, 528(sp)
   15bda: 03 36 81 21  	ld	a2, 536(sp)
   15bde: 83 35 01 22  	ld	a1, 544(sp)
   15be2: 03 35 81 22  	ld	a0, 552(sp)
   15be6: 23 34 61 30  	sd	t1, 776(sp)
   15bea: 23 2a 11 31  	sw	a7, 788(sp)
   15bee: a3 0d f1 30  	sb	a5, 795(sp)
   15bf2: 23 2e e1 30  	sw	a4, 796(sp)
   15bf6: 23 30 d1 32  	sd	a3, 800(sp)
   15bfa: 23 34 c1 32  	sd	a2, 808(sp)
   15bfe: 23 38 b1 32  	sd	a1, 816(sp)
   15c02: 23 3c a1 32  	sd	a0, 824(sp)
   15c06: 9a fb        	sd	t1, 496(sp)
   15c08: 23 2c 11 1f  	sw	a7, 504(sp)
   15c0c: 23 00 f1 20  	sb	a5, 512(sp)
   15c10: 23 2e e1 1e  	sw	a4, 508(sp)
   15c14: b6 eb        	sd	a3, 464(sp)
   15c16: b2 ef        	sd	a2, 472(sp)
   15c18: ae f3        	sd	a1, 480(sp)
   15c1a: aa f7        	sd	a0, 488(sp)
;         println!(
   15c1c: a3 07 01 27  	sb	a6, 623(sp)
   15c20: 23 38 51 26  	sd	t0, 624(sp)
   15c24: 23 30 51 28  	sd	t0, 640(sp)
   15c28: 83 47 f1 26  	lbu	a5, 623(sp)
   15c2c: 83 36 01 27  	ld	a3, 624(sp)
   15c30: 03 36 81 27  	ld	a2, 632(sp)
   15c34: 83 35 01 28  	ld	a1, 640(sp)
   15c38: 03 35 81 28  	ld	a0, 648(sp)
   15c3c: 23 38 51 2c  	sd	t0, 720(sp)
   15c40: 23 2e 11 2d  	sw	a7, 732(sp)
   15c44: a3 01 f1 2e  	sb	a5, 739(sp)
   15c48: 23 22 e1 2e  	sw	a4, 740(sp)
   15c4c: 23 34 d1 2e  	sd	a3, 744(sp)
   15c50: 23 38 c1 2e  	sd	a2, 752(sp)
   15c54: 23 3c b1 2e  	sd	a1, 760(sp)
   15c58: 23 30 a1 30  	sd	a0, 768(sp)
   15c5c: 23 38 51 24  	sd	t0, 592(sp)
   15c60: 23 2c 11 25  	sw	a7, 600(sp)
   15c64: 23 00 f1 26  	sb	a5, 608(sp)
   15c68: 23 2e e1 24  	sw	a4, 604(sp)
   15c6c: 23 38 d1 22  	sd	a3, 560(sp)
   15c70: 23 3c c1 22  	sd	a2, 568(sp)
   15c74: 23 30 b1 24  	sd	a1, 576(sp)
   15c78: 23 34 a1 24  	sd	a0, 584(sp)
;         println!(
   15c7c: 1a 75        	ld	a0, 416(sp)
   15c7e: aa fd        	sd	a0, 248(sp)
   15c80: 7a 65        	ld	a0, 408(sp)
   15c82: aa f9        	sd	a0, 240(sp)
   15c84: 5a 65        	ld	a0, 400(sp)
   15c86: aa f5        	sd	a0, 232(sp)
   15c88: 3a 65        	ld	a0, 392(sp)
   15c8a: aa f1        	sd	a0, 224(sp)
   15c8c: 1a 65        	ld	a0, 384(sp)
   15c8e: aa ed        	sd	a0, 216(sp)
   15c90: 76 75        	ld	a0, 376(sp)
   15c92: aa e9        	sd	a0, 208(sp)
   15c94: 56 75        	ld	a0, 368(sp)
   15c96: aa e5        	sd	a0, 200(sp)
   15c98: 03 35 01 20  	ld	a0, 512(sp)
   15c9c: 2a fa        	sd	a0, 304(sp)
   15c9e: 7e 75        	ld	a0, 504(sp)
   15ca0: 2a f6        	sd	a0, 296(sp)
   15ca2: 5e 75        	ld	a0, 496(sp)
   15ca4: 2a f2        	sd	a0, 288(sp)
   15ca6: 3e 75        	ld	a0, 488(sp)
   15ca8: 2a ee        	sd	a0, 280(sp)
   15caa: 1e 75        	ld	a0, 480(sp)
   15cac: 2a ea        	sd	a0, 272(sp)
   15cae: 7e 65        	ld	a0, 472(sp)
   15cb0: 2a e6        	sd	a0, 264(sp)
   15cb2: 5e 65        	ld	a0, 464(sp)
   15cb4: 2a e2        	sd	a0, 256(sp)
   15cb6: 03 35 01 26  	ld	a0, 608(sp)
   15cba: aa f6        	sd	a0, 360(sp)
   15cbc: 03 35 81 25  	ld	a0, 600(sp)
   15cc0: aa f2        	sd	a0, 352(sp)
   15cc2: 03 35 01 25  	ld	a0, 592(sp)
   15cc6: aa ee        	sd	a0, 344(sp)
   15cc8: 03 35 81 24  	ld	a0, 584(sp)
   15ccc: aa ea        	sd	a0, 336(sp)
   15cce: 03 35 01 24  	ld	a0, 576(sp)
   15cd2: aa e6        	sd	a0, 328(sp)
   15cd4: 03 35 81 23  	ld	a0, 568(sp)
   15cd8: aa e2        	sd	a0, 320(sp)
   15cda: 03 35 01 23  	ld	a0, 560(sp)
   15cde: 2a fe        	sd	a0, 312(sp)

0000000000015ce0 <.Lpcrel_hi39>:
   15ce0: 17 b5 ff ff  	auipc	a0, 1048571
   15ce4: 93 05 85 60  	addi	a1, a0, 1544
   15ce8: 88 00        	addi	a0, sp, 64
   15cea: 2a e4        	sd	a0, 8(sp)
   15cec: 11 46        	li	a2, 4
   15cee: 94 18        	addi	a3, sp, 112
   15cf0: bc 01        	addi	a5, sp, 200
   15cf2: 42 87        	mv	a4, a6
   15cf4: 97 f0 ff ff  	auipc	ra, 1048575
   15cf8: e7 80 a0 08  	jalr	138(ra)
   15cfc: 22 65        	ld	a0, 8(sp)
   15cfe: 97 00 00 00  	auipc	ra, 0
   15d02: e7 80 e0 cc  	jalr	-818(ra)
   15d06: 42 66        	ld	a2, 16(sp)

0000000000015d08 <.Lpcrel_hi40>:
   15d08: 17 b5 ff ff  	auipc	a0, 1048571
   15d0c: 93 05 85 58  	addi	a1, a0, 1416
   15d10: 08 0d        	addi	a0, sp, 656
   15d12: 2a ec        	sd	a0, 24(sp)
   15d14: 97 f0 ff ff  	auipc	ra, 1048575
   15d18: e7 80 80 11  	jalr	280(ra)
   15d1c: 62 65        	ld	a0, 24(sp)
   15d1e: 97 00 00 00  	auipc	ra, 0
   15d22: e7 80 e0 ca  	jalr	-850(ra)
;     }
   15d26: 83 30 81 3d  	ld	ra, 984(sp)
   15d2a: 13 01 01 3e  	addi	sp, sp, 992
   15d2e: 82 80        	ret

0000000000015d30 <_ZN50_$LT$rcore_console..Logger$u20$as$u20$log..Log$GT$5flush17h8402a768b37608bcE>:
;     fn flush(&self) {}
   15d30: 41 11        	addi	sp, sp, -16
   15d32: 2a e4        	sd	a0, 8(sp)
   15d34: 41 01        	addi	sp, sp, 16
   15d36: 82 80        	ret

0000000000015d38 <_ZN4spin4once17Once$LT$T$C$R$GT$13try_call_once17h6c4ff8fda1b7dcf7E>:
;     pub fn try_call_once<F: FnOnce() -> Result<T, E>, E>(&self, f: F) -> Result<&T, E> {
   15d38: 1d 71        	addi	sp, sp, -96
   15d3a: 86 ec        	sd	ra, 88(sp)
   15d3c: 32 e4        	sd	a2, 8(sp)
   15d3e: 2e e8        	sd	a1, 16(sp)
   15d40: 2a ec        	sd	a0, 24(sp)
   15d42: 2a fc        	sd	a0, 56(sp)
   15d44: ae e0        	sd	a1, 64(sp)
   15d46: b2 e4        	sd	a2, 72(sp)
   15d48: 81 45        	li	a1, 0
;         if let Some(value) = self.get() {
   15d4a: a3 0b b1 02  	sb	a1, 55(sp)
   15d4e: 85 45        	li	a1, 1
   15d50: a3 0b b1 02  	sb	a1, 55(sp)
   15d54: 97 00 00 00  	auipc	ra, 0
   15d58: e7 80 a0 25  	jalr	602(ra)
   15d5c: 2a f4        	sd	a0, 40(sp)
   15d5e: 22 75        	ld	a0, 40(sp)
   15d60: 11 c5        	beqz	a0, 0x15d6c <_ZN4spin4once17Once$LT$T$C$R$GT$13try_call_once17h6c4ff8fda1b7dcf7E+0x34>
   15d62: 09 a0        	j	0x15d64 <_ZN4spin4once17Once$LT$T$C$R$GT$13try_call_once17h6c4ff8fda1b7dcf7E+0x2c>
   15d64: 22 75        	ld	a0, 40(sp)
   15d66: aa e8        	sd	a0, 80(sp)
;             Ok(value)
   15d68: 2a f0        	sd	a0, 32(sp)
;         if let Some(value) = self.get() {
   15d6a: 29 a8        	j	0x15d84 <_ZN4spin4once17Once$LT$T$C$R$GT$13try_call_once17h6c4ff8fda1b7dcf7E+0x4c>
   15d6c: 22 66        	ld	a2, 8(sp)
   15d6e: c2 65        	ld	a1, 16(sp)
   15d70: 62 65        	ld	a0, 24(sp)
   15d72: 81 46        	li	a3, 0
;             self.try_call_once_slow(f)
   15d74: a3 0b d1 02  	sb	a3, 55(sp)
   15d78: 97 00 00 00  	auipc	ra, 0
   15d7c: e7 80 00 02  	jalr	32(ra)
   15d80: 2a f0        	sd	a0, 32(sp)
   15d82: 09 a0        	j	0x15d84 <_ZN4spin4once17Once$LT$T$C$R$GT$13try_call_once17h6c4ff8fda1b7dcf7E+0x4c>
;     }
   15d84: 03 45 71 03  	lbu	a0, 55(sp)
   15d88: 05 89        	andi	a0, a0, 1
   15d8a: 11 e5        	bnez	a0, 0x15d96 <_ZN4spin4once17Once$LT$T$C$R$GT$13try_call_once17h6c4ff8fda1b7dcf7E+0x5e>
   15d8c: 09 a0        	j	0x15d8e <_ZN4spin4once17Once$LT$T$C$R$GT$13try_call_once17h6c4ff8fda1b7dcf7E+0x56>
   15d8e: 02 75        	ld	a0, 32(sp)
   15d90: e6 60        	ld	ra, 88(sp)
   15d92: 25 61        	addi	sp, sp, 96
   15d94: 82 80        	ret
   15d96: e5 bf        	j	0x15d8e <_ZN4spin4once17Once$LT$T$C$R$GT$13try_call_once17h6c4ff8fda1b7dcf7E+0x56>

0000000000015d98 <_ZN4spin4once17Once$LT$T$C$R$GT$18try_call_once_slow17h71e7daa4e52ccf9bE>:
;     fn try_call_once_slow<F: FnOnce() -> Result<T, E>, E>(&self, f: F) -> Result<&T, E> {
   15d98: 11 71        	addi	sp, sp, -256
   15d9a: 86 fd        	sd	ra, 248(sp)
   15d9c: 32 e8        	sd	a2, 16(sp)
   15d9e: 2e ec        	sd	a1, 24(sp)
   15da0: 2a f0        	sd	a0, 32(sp)
   15da2: aa f0        	sd	a0, 96(sp)
   15da4: ae f4        	sd	a1, 104(sp)
   15da6: b2 f8        	sd	a2, 112(sp)
   15da8: 01 45        	li	a0, 0
;         loop {
   15daa: a3 0f a1 04  	sb	a0, 95(sp)
   15dae: 05 45        	li	a0, 1
   15db0: a3 0f a1 04  	sb	a0, 95(sp)
   15db4: 09 a0        	j	0x15db6 <_ZN4spin4once17Once$LT$T$C$R$GT$18try_call_once_slow17h71e7daa4e52ccf9bE+0x1e>
;             let xchg = self.status.compare_exchange(
   15db6: 02 75        	ld	a0, 32(sp)
   15db8: 41 05        	addi	a0, a0, 16
   15dba: 81 45        	li	a1, 0
;                 Status::Incomplete,
   15dbc: 23 0a b1 02  	sb	a1, 52(sp)
   15dc0: 85 45        	li	a1, 1
;                 Status::Running,
   15dc2: a3 0a b1 02  	sb	a1, 53(sp)
   15dc6: 89 45        	li	a1, 2
;                 Ordering::Acquire,
   15dc8: 23 0b b1 02  	sb	a1, 54(sp)
;                 Ordering::Acquire,
   15dcc: a3 0b b1 02  	sb	a1, 55(sp)
;             let xchg = self.status.compare_exchange(
   15dd0: 03 46 41 03  	lbu	a2, 52(sp)
   15dd4: 83 45 51 03  	lbu	a1, 53(sp)
   15dd8: 83 46 61 03  	lbu	a3, 54(sp)
   15ddc: 03 47 71 03  	lbu	a4, 55(sp)
   15de0: 23 01 c1 0c  	sb	a2, 194(sp)
   15de4: a3 01 b1 0c  	sb	a1, 195(sp)
   15de8: aa e5        	sd	a0, 200(sp)
   15dea: a3 09 d1 0c  	sb	a3, 211(sp)
   15dee: 23 0a e1 0c  	sb	a4, 212(sp)
;             match self
   15df2: 03 46 31 0c  	lbu	a2, 195(sp)
   15df6: 83 45 21 0c  	lbu	a1, 194(sp)
   15dfa: 97 f0 ff ff  	auipc	ra, 1048575
   15dfe: e7 80 e0 23  	jalr	574(ra)
   15e02: a3 03 b1 0c  	sb	a1, 199(sp)
   15e06: 23 03 a1 0c  	sb	a0, 198(sp)
   15e0a: 03 45 61 0c  	lbu	a0, 198(sp)
   15e0e: 05 89        	andi	a0, a0, 1
   15e10: 05 e1        	bnez	a0, 0x15e30 <_ZN4spin4once17Once$LT$T$C$R$GT$18try_call_once_slow17h71e7daa4e52ccf9bE+0x98>
   15e12: 09 a0        	j	0x15e14 <_ZN4spin4once17Once$LT$T$C$R$GT$18try_call_once_slow17h71e7daa4e52ccf9bE+0x7c>
;                 Ok(ok) => Ok(unsafe { Status::new_unchecked(ok) }),
   15e14: 03 45 71 0c  	lbu	a0, 199(sp)
   15e18: a3 0a a1 0c  	sb	a0, 213(sp)
   15e1c: 97 00 00 00  	auipc	ra, 0
   15e20: e7 80 c0 68  	jalr	1676(ra)
   15e24: a3 02 a1 0c  	sb	a0, 197(sp)
   15e28: 01 45        	li	a0, 0
   15e2a: 23 02 a1 0c  	sb	a0, 196(sp)
   15e2e: 39 a8        	j	0x15e4c <_ZN4spin4once17Once$LT$T$C$R$GT$18try_call_once_slow17h71e7daa4e52ccf9bE+0xb4>
;                 Err(err) => Err(unsafe { Status::new_unchecked(err) }),
   15e30: 03 45 71 0c  	lbu	a0, 199(sp)
   15e34: 23 0b a1 0c  	sb	a0, 214(sp)
   15e38: 97 00 00 00  	auipc	ra, 0
   15e3c: e7 80 00 67  	jalr	1648(ra)
   15e40: a3 02 a1 0c  	sb	a0, 197(sp)
   15e44: 05 45        	li	a0, 1
   15e46: 23 02 a1 0c  	sb	a0, 196(sp)
   15e4a: 09 a0        	j	0x15e4c <_ZN4spin4once17Once$LT$T$C$R$GT$18try_call_once_slow17h71e7daa4e52ccf9bE+0xb4>
;         }
   15e4c: 03 45 41 0c  	lbu	a0, 196(sp)
   15e50: 83 45 51 0c  	lbu	a1, 197(sp)
;             let xchg = self.status.compare_exchange(
   15e54: a3 09 b1 02  	sb	a1, 51(sp)
   15e58: 23 09 a1 02  	sb	a0, 50(sp)
;             match xchg {
   15e5c: 03 45 21 03  	lbu	a0, 50(sp)
   15e60: 05 89        	andi	a0, a0, 1
   15e62: 1d e5        	bnez	a0, 0x15e90 <_ZN4spin4once17Once$LT$T$C$R$GT$18try_call_once_slow17h71e7daa4e52ccf9bE+0xf8>
   15e64: 09 a0        	j	0x15e66 <_ZN4spin4once17Once$LT$T$C$R$GT$18try_call_once_slow17h71e7daa4e52ccf9bE+0xce>
;                 Ok(_must_be_state_incomplete) => {
   15e66: c2 65        	ld	a1, 16(sp)
   15e68: 62 65        	ld	a0, 24(sp)
   15e6a: 02 76        	ld	a2, 32(sp)
   15e6c: 83 46 31 03  	lbu	a3, 51(sp)
   15e70: a3 0f d1 06  	sb	a3, 127(sp)
;                 status: &self.status,
   15e74: 41 06        	addi	a2, a2, 16
;             let finish = Finish {
   15e76: b2 e0        	sd	a2, 64(sp)
   15e78: 01 46        	li	a2, 0
;             let val = match f() {
   15e7a: a3 0f c1 04  	sb	a2, 95(sp)
   15e7e: 97 00 00 00  	auipc	ra, 0
   15e82: e7 80 60 25  	jalr	598(ra)
   15e86: ae e8        	sd	a1, 80(sp)
   15e88: aa e4        	sd	a0, 72(sp)
   15e8a: 05 45        	li	a0, 1
   15e8c: 15 e5        	bnez	a0, 0x15eb8 <_ZN4spin4once17Once$LT$T$C$R$GT$18try_call_once_slow17h71e7daa4e52ccf9bE+0x120>
   15e8e: 61 a0        	j	0x15f16 <_ZN4spin4once17Once$LT$T$C$R$GT$18try_call_once_slow17h71e7daa4e52ccf9bE+0x17e>
;             match xchg {
   15e90: 03 45 31 03  	lbu	a0, 51(sp)
   15e94: 2a e4        	sd	a0, 8(sp)
   15e96: 05 d1        	beqz	a0, 0x15db6 <_ZN4spin4once17Once$LT$T$C$R$GT$18try_call_once_slow17h71e7daa4e52ccf9bE+0x1e>
   15e98: 09 a0        	j	0x15e9a <_ZN4spin4once17Once$LT$T$C$R$GT$18try_call_once_slow17h71e7daa4e52ccf9bE+0x102>
   15e9a: 22 65        	ld	a0, 8(sp)
   15e9c: 13 75 f5 0f  	andi	a0, a0, 255
   15ea0: 85 45        	li	a1, 1
;             match xchg {
   15ea2: 63 0e b5 0a  	beq	a0, a1, 0x15f5e <_ZN4spin4once17Once$LT$T$C$R$GT$18try_call_once_slow17h71e7daa4e52ccf9bE+0x1c6>
   15ea6: 09 a0        	j	0x15ea8 <_ZN4spin4once17Once$LT$T$C$R$GT$18try_call_once_slow17h71e7daa4e52ccf9bE+0x110>
   15ea8: 22 65        	ld	a0, 8(sp)
   15eaa: 13 75 f5 0f  	andi	a0, a0, 255
   15eae: 89 45        	li	a1, 2
;             match xchg {
   15eb0: 63 01 b5 0c  	beq	a0, a1, 0x15f72 <_ZN4spin4once17Once$LT$T$C$R$GT$18try_call_once_slow17h71e7daa4e52ccf9bE+0x1da>
   15eb4: 09 a0        	j	0x15eb6 <_ZN4spin4once17Once$LT$T$C$R$GT$18try_call_once_slow17h71e7daa4e52ccf9bE+0x11e>
   15eb6: e9 a0        	j	0x15f80 <.Lpcrel_hi0>
;                 Ok(val) => val,
   15eb8: 82 75        	ld	a1, 32(sp)
   15eba: 26 66        	ld	a2, 72(sp)
   15ebc: 46 65        	ld	a0, 80(sp)
   15ebe: 32 e1        	sd	a2, 128(sp)
   15ec0: 2a e5        	sd	a0, 136(sp)
   15ec2: 2e fd        	sd	a1, 184(sp)
   15ec4: 2e ed        	sd	a1, 152(sp)
   15ec6: 2e f1        	sd	a1, 160(sp)
   15ec8: 32 f5        	sd	a2, 168(sp)
   15eca: 2a f9        	sd	a0, 176(sp)
   15ecc: 90 e1        	sd	a2, 0(a1)
   15ece: 88 e5        	sd	a0, 8(a1)
;             core::mem::forget(finish);
   15ed0: 06 65        	ld	a0, 64(sp)
   15ed2: 97 00 00 00  	auipc	ra, 0
   15ed6: e7 80 c0 22  	jalr	556(ra)
   15eda: 02 75        	ld	a0, 32(sp)
;             self.status.store(Status::Complete, Ordering::Release);
   15edc: 41 05        	addi	a0, a0, 16
   15ede: 89 45        	li	a1, 2
   15ee0: a3 0e b1 04  	sb	a1, 93(sp)
   15ee4: 85 45        	li	a1, 1
   15ee6: 23 0f b1 04  	sb	a1, 94(sp)
   15eea: 83 45 d1 05  	lbu	a1, 93(sp)
   15eee: 03 46 e1 05  	lbu	a2, 94(sp)
   15ef2: a3 03 b1 0e  	sb	a1, 231(sp)
   15ef6: aa f5        	sd	a0, 232(sp)
   15ef8: a3 0b c1 0e  	sb	a2, 247(sp)
;             self.0.store(status as u8, ordering);
   15efc: 83 45 71 0e  	lbu	a1, 231(sp)
   15f00: 97 f0 ff ff  	auipc	ra, 1048575
   15f04: e7 80 a0 17  	jalr	378(ra)
   15f08: 02 75        	ld	a0, 32(sp)
;             return unsafe { Ok(self.force_get()) };
   15f0a: 97 00 00 00  	auipc	ra, 0
   15f0e: e7 80 80 1e  	jalr	488(ra)
   15f12: 2a f4        	sd	a0, 40(sp)
;         }
   15f14: 3d a8        	j	0x15f52 <_ZN4spin4once17Once$LT$T$C$R$GT$18try_call_once_slow17h71e7daa4e52ccf9bE+0x1ba>
;                     core::mem::forget(finish);
   15f16: 06 65        	ld	a0, 64(sp)
   15f18: 97 00 00 00  	auipc	ra, 0
   15f1c: e7 80 60 1e  	jalr	486(ra)
   15f20: 02 75        	ld	a0, 32(sp)
;                     self.status.store(Status::Incomplete, Ordering::Release);
   15f22: 41 05        	addi	a0, a0, 16
   15f24: 81 45        	li	a1, 0
   15f26: a3 0d b1 04  	sb	a1, 91(sp)
   15f2a: 85 45        	li	a1, 1
   15f2c: 23 0e b1 04  	sb	a1, 92(sp)
   15f30: 83 45 b1 05  	lbu	a1, 91(sp)
   15f34: 03 46 c1 05  	lbu	a2, 92(sp)
   15f38: a3 0b b1 0c  	sb	a1, 215(sp)
   15f3c: aa ed        	sd	a0, 216(sp)
   15f3e: 23 03 c1 0e  	sb	a2, 230(sp)
;             self.0.store(status as u8, ordering);
   15f42: 83 45 71 0d  	lbu	a1, 215(sp)
   15f46: 97 f0 ff ff  	auipc	ra, 1048575
   15f4a: e7 80 40 13  	jalr	308(ra)
;                     return Err(err);
   15f4e: 00 00        	unimp
; //!  `print!``println!`  `log::Log`
   15f50: 09 a0        	j	0x15f52 <_ZN4spin4once17Once$LT$T$C$R$GT$18try_call_once_slow17h71e7daa4e52ccf9bE+0x1ba>
;     }
   15f52: 03 45 f1 05  	lbu	a0, 95(sp)
   15f56: 05 89        	andi	a0, a0, 1
   15f58: 31 e9        	bnez	a0, 0x15fac <.Lpcrel_hi1+0x24>
   15f5a: a9 a0        	j	0x15fa4 <.Lpcrel_hi1+0x1c>
;             match xchg {
   15f5c: 00 00        	unimp
;                 Err(Status::Running) => match self.poll() {
   15f5e: 02 75        	ld	a0, 32(sp)
   15f60: 97 00 00 00  	auipc	ra, 0
   15f64: e7 80 60 0a  	jalr	166(ra)
   15f68: 2a fc        	sd	a0, 56(sp)
   15f6a: 62 75        	ld	a0, 56(sp)
   15f6c: e3 05 05 e4  	beqz	a0, 0x15db6 <_ZN4spin4once17Once$LT$T$C$R$GT$18try_call_once_slow17h71e7daa4e52ccf9bE+0x1e>
   15f70: 35 a0        	j	0x15f9c <.Lpcrel_hi1+0x14>
;                         self.force_get()
   15f72: 02 75        	ld	a0, 32(sp)
   15f74: 97 00 00 00  	auipc	ra, 0
   15f78: e7 80 e0 17  	jalr	382(ra)
;                     return Ok(unsafe {
   15f7c: 2a f4        	sd	a0, 40(sp)
; //!  `print!``println!`  `log::Log`
   15f7e: d1 bf        	j	0x15f52 <_ZN4spin4once17Once$LT$T$C$R$GT$18try_call_once_slow17h71e7daa4e52ccf9bE+0x1ba>

0000000000015f80 <.Lpcrel_hi0>:
;                 Err(Status::Panicked) => panic!("Once panicked"),
   15f80: 17 b5 ff ff  	auipc	a0, 1048571
   15f84: 13 05 85 3a  	addi	a0, a0, 936

0000000000015f88 <.Lpcrel_hi1>:
   15f88: 97 b5 ff ff  	auipc	a1, 1048571
   15f8c: 13 86 85 40  	addi	a2, a1, 1032
   15f90: b5 45        	li	a1, 13
   15f92: 97 20 00 00  	auipc	ra, 2
   15f96: e7 80 00 f5  	jalr	-176(ra)
   15f9a: 00 00        	unimp
;                     Some(v) => return Ok(v),
   15f9c: 62 75        	ld	a0, 56(sp)
   15f9e: 2a e9        	sd	a0, 144(sp)
   15fa0: 2a f4        	sd	a0, 40(sp)
; //!  `print!``println!`  `log::Log`
   15fa2: 45 bf        	j	0x15f52 <_ZN4spin4once17Once$LT$T$C$R$GT$18try_call_once_slow17h71e7daa4e52ccf9bE+0x1ba>
;     }
   15fa4: 22 75        	ld	a0, 40(sp)
   15fa6: ee 70        	ld	ra, 248(sp)
   15fa8: 11 61        	addi	sp, sp, 256
   15faa: 82 80        	ret
   15fac: e5 bf        	j	0x15fa4 <.Lpcrel_hi1+0x1c>

0000000000015fae <_ZN4spin4once17Once$LT$T$C$R$GT$3get17hd7bd8be8429d15d7E>:
;     pub fn get(&self) -> Option<&T> {
   15fae: 39 71        	addi	sp, sp, -64
   15fb0: 06 fc        	sd	ra, 56(sp)
   15fb2: 2a e0        	sd	a0, 0(sp)
   15fb4: 2a f0        	sd	a0, 32(sp)
;         match self.status.load(Ordering::Acquire) {
   15fb6: 41 05        	addi	a0, a0, 16
   15fb8: 89 45        	li	a1, 2
   15fba: 2e e4        	sd	a1, 8(sp)
   15fbc: a3 0f b1 00  	sb	a1, 31(sp)
   15fc0: 83 45 f1 01  	lbu	a1, 31(sp)
   15fc4: 2a f4        	sd	a0, 40(sp)
   15fc6: a3 0b b1 02  	sb	a1, 55(sp)
;             unsafe { Status::new_unchecked(self.0.load(ordering)) }
   15fca: 97 f0 ff ff  	auipc	ra, 1048575
   15fce: e7 80 60 09  	jalr	150(ra)
   15fd2: 97 00 00 00  	auipc	ra, 0
   15fd6: e7 80 60 4d  	jalr	1238(ra)
   15fda: a2 65        	ld	a1, 8(sp)
;         match self.status.load(Ordering::Acquire) {
   15fdc: 23 0f a1 00  	sb	a0, 30(sp)
   15fe0: 03 45 e1 01  	lbu	a0, 30(sp)
   15fe4: 63 1a b5 00  	bne	a0, a1, 0x15ff8 <_ZN4spin4once17Once$LT$T$C$R$GT$3get17hd7bd8be8429d15d7E+0x4a>
   15fe8: 09 a0        	j	0x15fea <_ZN4spin4once17Once$LT$T$C$R$GT$3get17hd7bd8be8429d15d7E+0x3c>
;             Status::Complete => Some(unsafe { self.force_get() }),
   15fea: 02 65        	ld	a0, 0(sp)
   15fec: 97 00 00 00  	auipc	ra, 0
   15ff0: e7 80 60 10  	jalr	262(ra)
   15ff4: 2a e8        	sd	a0, 16(sp)
   15ff6: 21 a0        	j	0x15ffe <_ZN4spin4once17Once$LT$T$C$R$GT$3get17hd7bd8be8429d15d7E+0x50>
   15ff8: 01 45        	li	a0, 0
;             _ => None,
   15ffa: 2a e8        	sd	a0, 16(sp)
   15ffc: 09 a0        	j	0x15ffe <_ZN4spin4once17Once$LT$T$C$R$GT$3get17hd7bd8be8429d15d7E+0x50>
;     }
   15ffe: 42 65        	ld	a0, 16(sp)
   16000: e2 70        	ld	ra, 56(sp)
   16002: 21 61        	addi	sp, sp, 64
   16004: 82 80        	ret

0000000000016006 <_ZN4spin4once17Once$LT$T$C$R$GT$4poll17h5df8abe81498a2a2E>:
;     pub fn poll(&self) -> Option<&T> {
   16006: 39 71        	addi	sp, sp, -64
   16008: 06 fc        	sd	ra, 56(sp)
   1600a: 2a e4        	sd	a0, 8(sp)
   1600c: 2a f0        	sd	a0, 32(sp)
;         loop {
   1600e: 09 a0        	j	0x16010 <_ZN4spin4once17Once$LT$T$C$R$GT$4poll17h5df8abe81498a2a2E+0xa>
;             match self.status.load(Ordering::Acquire) {
   16010: 22 65        	ld	a0, 8(sp)
   16012: 41 05        	addi	a0, a0, 16
   16014: 89 45        	li	a1, 2
   16016: a3 0f b1 00  	sb	a1, 31(sp)
   1601a: 83 45 f1 01  	lbu	a1, 31(sp)
   1601e: 2a f4        	sd	a0, 40(sp)
   16020: a3 0b b1 02  	sb	a1, 55(sp)
;             unsafe { Status::new_unchecked(self.0.load(ordering)) }
   16024: 97 f0 ff ff  	auipc	ra, 1048575
   16028: e7 80 c0 03  	jalr	60(ra)
   1602c: 97 00 00 00  	auipc	ra, 0
   16030: e7 80 c0 47  	jalr	1148(ra)
;             match self.status.load(Ordering::Acquire) {
   16034: 23 0f a1 00  	sb	a0, 30(sp)
   16038: 03 45 e1 01  	lbu	a0, 30(sp)
   1603c: 2a e0        	sd	a0, 0(sp)
   1603e: 15 c1        	beqz	a0, 0x16062 <_ZN4spin4once17Once$LT$T$C$R$GT$4poll17h5df8abe81498a2a2E+0x5c>
   16040: 09 a0        	j	0x16042 <_ZN4spin4once17Once$LT$T$C$R$GT$4poll17h5df8abe81498a2a2E+0x3c>
   16042: 02 65        	ld	a0, 0(sp)
   16044: 13 75 f5 0f  	andi	a0, a0, 255
   16048: 85 45        	li	a1, 1
;             match self.status.load(Ordering::Acquire) {
   1604a: 63 0f b5 00  	beq	a0, a1, 0x16068 <_ZN4spin4once17Once$LT$T$C$R$GT$4poll17h5df8abe81498a2a2E+0x62>
   1604e: 09 a0        	j	0x16050 <_ZN4spin4once17Once$LT$T$C$R$GT$4poll17h5df8abe81498a2a2E+0x4a>
   16050: 02 65        	ld	a0, 0(sp)
   16052: 13 75 f5 0f  	andi	a0, a0, 255
   16056: 89 45        	li	a1, 2
;             match self.status.load(Ordering::Acquire) {
   16058: 63 0d b5 00  	beq	a0, a1, 0x16072 <_ZN4spin4once17Once$LT$T$C$R$GT$4poll17h5df8abe81498a2a2E+0x6c>
   1605c: 09 a0        	j	0x1605e <_ZN4spin4once17Once$LT$T$C$R$GT$4poll17h5df8abe81498a2a2E+0x58>
   1605e: 0d a0        	j	0x16080 <.Lpcrel_hi2>
   16060: 00 00        	unimp
   16062: 01 45        	li	a0, 0
;                 Status::Incomplete => return None,
   16064: 2a e8        	sd	a0, 16(sp)
   16066: 25 a8        	j	0x1609e <.Lpcrel_hi3+0x16>
;         core::sync::atomic::spin_loop_hint();
   16068: 97 f0 ff ff  	auipc	ra, 1048575
   1606c: e7 80 a0 fc  	jalr	-54(ra)
;                 Status::Running => R::relax(), // We spin
   16070: 45 b7        	j	0x16010 <_ZN4spin4once17Once$LT$T$C$R$GT$4poll17h5df8abe81498a2a2E+0xa>
;                 Status::Complete => return Some(unsafe { self.force_get() }),
   16072: 22 65        	ld	a0, 8(sp)
   16074: 97 00 00 00  	auipc	ra, 0
   16078: e7 80 e0 07  	jalr	126(ra)
   1607c: 2a e8        	sd	a0, 16(sp)
; //!  `print!``println!`  `log::Log`
   1607e: 05 a0        	j	0x1609e <.Lpcrel_hi3+0x16>

0000000000016080 <.Lpcrel_hi2>:
;                 Status::Panicked => panic!("Once previously poisoned by a panicked"),
   16080: 17 b5 ff ff  	auipc	a0, 1048571
   16084: 13 05 85 32  	addi	a0, a0, 808

0000000000016088 <.Lpcrel_hi3>:
   16088: 97 b5 ff ff  	auipc	a1, 1048571
   1608c: 13 86 85 34  	addi	a2, a1, 840
   16090: 93 05 60 02  	li	a1, 38
   16094: 97 20 00 00  	auipc	ra, 2
   16098: e7 80 e0 e4  	jalr	-434(ra)
   1609c: 00 00        	unimp
;     }
   1609e: 42 65        	ld	a0, 16(sp)
   160a0: e2 70        	ld	ra, 56(sp)
   160a2: 21 61        	addi	sp, sp, 64
   160a4: 82 80        	ret

00000000000160a6 <_ZN4spin4once17Once$LT$T$C$R$GT$9call_once17h12548fbcf9214969E>:
;     pub fn call_once<F: FnOnce() -> T>(&self, f: F) -> &T {
   160a6: 5d 71        	addi	sp, sp, -80
;             Err(void) => match void {},
   160a8: 86 e4        	sd	ra, 72(sp)
   160aa: 2a f4        	sd	a0, 40(sp)
   160ac: 2e f8        	sd	a1, 48(sp)
   160ae: 32 fc        	sd	a2, 56(sp)
;         match self.try_call_once(|| Ok::<T, core::convert::Infallible>(f())) {
   160b0: 2e ec        	sd	a1, 24(sp)
   160b2: 32 f0        	sd	a2, 32(sp)
   160b4: e2 65        	ld	a1, 24(sp)
   160b6: 02 76        	ld	a2, 32(sp)
   160b8: 97 00 00 00  	auipc	ra, 0
   160bc: e7 80 00 c8  	jalr	-896(ra)
   160c0: 2a e8        	sd	a0, 16(sp)
   160c2: 01 45        	li	a0, 0
   160c4: 19 e5        	bnez	a0, 0x160d2 <_ZN4spin4once17Once$LT$T$C$R$GT$9call_once17h12548fbcf9214969E+0x2c>
   160c6: 09 a0        	j	0x160c8 <_ZN4spin4once17Once$LT$T$C$R$GT$9call_once17h12548fbcf9214969E+0x22>
;             Ok(x) => x,
   160c8: 42 65        	ld	a0, 16(sp)
   160ca: aa e0        	sd	a0, 64(sp)
;     }
   160cc: a6 60        	ld	ra, 72(sp)
   160ce: 61 61        	addi	sp, sp, 80
   160d0: 82 80        	ret
;         match self.try_call_once(|| Ok::<T, core::convert::Infallible>(f())) {
   160d2: 00 00        	unimp

00000000000160d4 <_ZN4spin4once17Once$LT$T$C$R$GT$9call_once28_$u7b$$u7b$closure$u7d$$u7d$17h9e663e9aed5f2b0eE>:
   160d4: 79 71        	addi	sp, sp, -48
   160d6: 06 f4        	sd	ra, 40(sp)
   160d8: 2a ec        	sd	a0, 24(sp)
   160da: 2e f0        	sd	a1, 32(sp)
   160dc: 97 f0 ff ff  	auipc	ra, 1048575
   160e0: e7 80 c0 a1  	jalr	-1508(ra)
   160e4: 2a e4        	sd	a0, 8(sp)
   160e6: 2e e8        	sd	a1, 16(sp)
   160e8: 22 65        	ld	a0, 8(sp)
   160ea: c2 65        	ld	a1, 16(sp)
   160ec: a2 70        	ld	ra, 40(sp)
   160ee: 45 61        	addi	sp, sp, 48
   160f0: 82 80        	ret

00000000000160f2 <_ZN4spin4once17Once$LT$T$C$R$GT$9force_get17h5db84da81b04cc8cE>:
;     unsafe fn force_get(&self) -> &T {
   160f2: 01 11        	addi	sp, sp, -32
   160f4: 2a e4        	sd	a0, 8(sp)
   160f6: 2a ec        	sd	a0, 24(sp)
   160f8: 2a e8        	sd	a0, 16(sp)
;     }
   160fa: 05 61        	addi	sp, sp, 32
   160fc: 82 80        	ret

00000000000160fe <_ZN4core3mem6forget17h015ce6f1a7afb0d9E>:
   160fe: 41 11        	addi	sp, sp, -16
   16100: 2a e4        	sd	a0, 8(sp)
   16102: 41 01        	addi	sp, sp, 16
   16104: 82 80        	ret

0000000000016106 <_ZN4core6option15Option$LT$T$GT$6unwrap17h20f59503b36707eaE>:
   16106: 01 11        	addi	sp, sp, -32
   16108: 2e e4        	sd	a1, 8(sp)
   1610a: 2a e8        	sd	a0, 16(sp)
   1610c: 42 65        	ld	a0, 16(sp)
   1610e: 11 ed        	bnez	a0, 0x1612a <.Lpcrel_hi0+0x16>
   16110: 09 a0        	j	0x16112 <_ZN4core6option15Option$LT$T$GT$6unwrap17h20f59503b36707eaE+0xc>
   16112: 22 66        	ld	a2, 8(sp)

0000000000016114 <.Lpcrel_hi0>:
   16114: 17 b5 ff ff  	auipc	a0, 1048571
   16118: 13 05 45 2d  	addi	a0, a0, 724
   1611c: 93 05 b0 02  	li	a1, 43
   16120: 97 20 00 00  	auipc	ra, 2
   16124: e7 80 20 dc  	jalr	-574(ra)
   16128: 00 00        	unimp
   1612a: 42 65        	ld	a0, 16(sp)
   1612c: 2a ec        	sd	a0, 24(sp)
   1612e: 05 61        	addi	sp, sp, 32
   16130: 82 80        	ret

0000000000016132 <_ZN4core6option15Option$LT$T$GT$8and_then17h2eda65f5a97b9d7dE>:
   16132: 5d 71        	addi	sp, sp, -80
   16134: 86 e4        	sd	ra, 72(sp)
   16136: 2a e4        	sd	a0, 8(sp)
   16138: 2e e8        	sd	a1, 16(sp)
   1613a: 05 45        	li	a0, 1
   1613c: 23 0b a1 02  	sb	a0, 54(sp)
   16140: 22 65        	ld	a0, 8(sp)
   16142: 09 e5        	bnez	a0, 0x1614c <_ZN4core6option15Option$LT$T$GT$8and_then17h2eda65f5a97b9d7dE+0x1a>
   16144: 09 a0        	j	0x16146 <_ZN4core6option15Option$LT$T$GT$8and_then17h2eda65f5a97b9d7dE+0x14>
   16146: 19 45        	li	a0, 6
   16148: 2a ec        	sd	a0, 24(sp)
   1614a: 15 a0        	j	0x1616e <_ZN4core6option15Option$LT$T$GT$8and_then17h2eda65f5a97b9d7dE+0x3c>
   1614c: a2 65        	ld	a1, 8(sp)
   1614e: 42 65        	ld	a0, 16(sp)
   16150: 2e fc        	sd	a1, 56(sp)
   16152: aa e0        	sd	a0, 64(sp)
   16154: 01 46        	li	a2, 0
   16156: 23 0b c1 02  	sb	a2, 54(sp)
   1615a: 2e f0        	sd	a1, 32(sp)
   1615c: 2a f4        	sd	a0, 40(sp)
   1615e: 02 75        	ld	a0, 32(sp)
   16160: a2 75        	ld	a1, 40(sp)
   16162: 97 f0 ff ff  	auipc	ra, 1048575
   16166: e7 80 40 9a  	jalr	-1628(ra)
   1616a: 2a ec        	sd	a0, 24(sp)
   1616c: 09 a0        	j	0x1616e <_ZN4core6option15Option$LT$T$GT$8and_then17h2eda65f5a97b9d7dE+0x3c>
   1616e: 03 45 61 03  	lbu	a0, 54(sp)
   16172: 05 89        	andi	a0, a0, 1
   16174: 11 e5        	bnez	a0, 0x16180 <_ZN4core6option15Option$LT$T$GT$8and_then17h2eda65f5a97b9d7dE+0x4e>
   16176: 09 a0        	j	0x16178 <_ZN4core6option15Option$LT$T$GT$8and_then17h2eda65f5a97b9d7dE+0x46>
   16178: 62 65        	ld	a0, 24(sp)
   1617a: a6 60        	ld	ra, 72(sp)
   1617c: 61 61        	addi	sp, sp, 80
   1617e: 82 80        	ret
   16180: e5 bf        	j	0x16178 <_ZN4core6option15Option$LT$T$GT$8and_then17h2eda65f5a97b9d7dE+0x46>

0000000000016182 <_ZN4core6option15Option$LT$T$GT$9unwrap_or17hd9bbe0a28f6e314aE>:
   16182: 79 71        	addi	sp, sp, -48
   16184: 2e e0        	sd	a1, 0(sp)
   16186: 2a e4        	sd	a0, 8(sp)
   16188: 2e f0        	sd	a1, 32(sp)
   1618a: 05 45        	li	a0, 1
   1618c: a3 0f a1 00  	sb	a0, 31(sp)
   16190: 22 65        	ld	a0, 8(sp)
   16192: 99 45        	li	a1, 6
   16194: 63 19 b5 00  	bne	a0, a1, 0x161a6 <_ZN4core6option15Option$LT$T$GT$9unwrap_or17hd9bbe0a28f6e314aE+0x24>
   16198: 09 a0        	j	0x1619a <_ZN4core6option15Option$LT$T$GT$9unwrap_or17hd9bbe0a28f6e314aE+0x18>
   1619a: 02 65        	ld	a0, 0(sp)
   1619c: 81 45        	li	a1, 0
   1619e: a3 0f b1 00  	sb	a1, 31(sp)
   161a2: 2a e8        	sd	a0, 16(sp)
   161a4: 29 a0        	j	0x161ae <_ZN4core6option15Option$LT$T$GT$9unwrap_or17hd9bbe0a28f6e314aE+0x2c>
   161a6: 22 65        	ld	a0, 8(sp)
   161a8: 2a f4        	sd	a0, 40(sp)
   161aa: 2a e8        	sd	a0, 16(sp)
   161ac: 09 a0        	j	0x161ae <_ZN4core6option15Option$LT$T$GT$9unwrap_or17hd9bbe0a28f6e314aE+0x2c>
   161ae: 03 45 f1 01  	lbu	a0, 31(sp)
   161b2: 05 89        	andi	a0, a0, 1
   161b4: 09 e5        	bnez	a0, 0x161be <_ZN4core6option15Option$LT$T$GT$9unwrap_or17hd9bbe0a28f6e314aE+0x3c>
   161b6: 09 a0        	j	0x161b8 <_ZN4core6option15Option$LT$T$GT$9unwrap_or17hd9bbe0a28f6e314aE+0x36>
   161b8: 42 65        	ld	a0, 16(sp)
   161ba: 45 61        	addi	sp, sp, 48
   161bc: 82 80        	ret
   161be: ed bf        	j	0x161b8 <_ZN4core6option15Option$LT$T$GT$9unwrap_or17hd9bbe0a28f6e314aE+0x36>

00000000000161c0 <_ZN4core3ptr33drop_in_place$LT$$RF$$LP$$RP$$GT$17h0d9532df3e578075E>:
   161c0: 41 11        	addi	sp, sp, -16
   161c2: 2a e4        	sd	a0, 8(sp)
   161c4: 41 01        	addi	sp, sp, 16
   161c6: 82 80        	ret

00000000000161c8 <_ZN4core3ptr37drop_in_place$LT$core..fmt..Error$GT$17hbf10438969b8193cE>:
   161c8: 41 11        	addi	sp, sp, -16
   161ca: 2a e4        	sd	a0, 8(sp)
   161cc: 41 01        	addi	sp, sp, 16
   161ce: 82 80        	ret

00000000000161d0 <_ZN4core3ptr40drop_in_place$LT$log..SetLoggerError$GT$17h39b1eb5f21ab0d29E>:
   161d0: 41 11        	addi	sp, sp, -16
   161d2: 2a e4        	sd	a0, 8(sp)
   161d4: 41 01        	addi	sp, sp, 16
   161d6: 82 80        	ret

00000000000161d8 <_ZN4core3ptr42drop_in_place$LT$rcore_console..Logger$GT$17hbe1f89666b655249E>:
   161d8: 41 11        	addi	sp, sp, -16
   161da: 2a e4        	sd	a0, 8(sp)
   161dc: 41 01        	addi	sp, sp, 16
   161de: 82 80        	ret

00000000000161e0 <_ZN4core6result19Result$LT$T$C$E$GT$2ok17hb4b9953803cad0a2E>:
   161e0: 01 11        	addi	sp, sp, -32
   161e2: 2a e4        	sd	a0, 8(sp)
   161e4: 22 65        	ld	a0, 8(sp)
   161e6: 99 45        	li	a1, 6
   161e8: 63 07 b5 00  	beq	a0, a1, 0x161f6 <_ZN4core6result19Result$LT$T$C$E$GT$2ok17hb4b9953803cad0a2E+0x16>
   161ec: 09 a0        	j	0x161ee <_ZN4core6result19Result$LT$T$C$E$GT$2ok17hb4b9953803cad0a2E+0xe>
   161ee: 22 65        	ld	a0, 8(sp)
   161f0: 2a ec        	sd	a0, 24(sp)
   161f2: 2a e8        	sd	a0, 16(sp)
   161f4: 21 a0        	j	0x161fc <_ZN4core6result19Result$LT$T$C$E$GT$2ok17hb4b9953803cad0a2E+0x1c>
   161f6: 19 45        	li	a0, 6
   161f8: 2a e8        	sd	a0, 16(sp)
   161fa: 09 a0        	j	0x161fc <_ZN4core6result19Result$LT$T$C$E$GT$2ok17hb4b9953803cad0a2E+0x1c>
   161fc: 22 65        	ld	a0, 8(sp)
   161fe: 99 45        	li	a1, 6
   16200: 63 06 b5 00  	beq	a0, a1, 0x1620c <_ZN4core6result19Result$LT$T$C$E$GT$2ok17hb4b9953803cad0a2E+0x2c>
   16204: 09 a0        	j	0x16206 <_ZN4core6result19Result$LT$T$C$E$GT$2ok17hb4b9953803cad0a2E+0x26>
   16206: 42 65        	ld	a0, 16(sp)
   16208: 05 61        	addi	sp, sp, 32
   1620a: 82 80        	ret
   1620c: ed bf        	j	0x16206 <_ZN4core6result19Result$LT$T$C$E$GT$2ok17hb4b9953803cad0a2E+0x26>

000000000001620e <_ZN4core6result19Result$LT$T$C$E$GT$6unwrap17h1e3e04b456ce7cd5E>:
   1620e: 41 11        	addi	sp, sp, -16
   16210: 2e e0        	sd	a1, 0(sp)
   16212: a3 06 a1 00  	sb	a0, 13(sp)
   16216: 03 45 d1 00  	lbu	a0, 13(sp)
   1621a: 05 89        	andi	a0, a0, 1
   1621c: 01 e5        	bnez	a0, 0x16224 <_ZN4core6result19Result$LT$T$C$E$GT$6unwrap17h1e3e04b456ce7cd5E+0x16>
   1621e: 09 a0        	j	0x16220 <_ZN4core6result19Result$LT$T$C$E$GT$6unwrap17h1e3e04b456ce7cd5E+0x12>
   16220: 41 01        	addi	sp, sp, 16
   16222: 82 80        	ret
   16224: 02 67        	ld	a4, 0(sp)

0000000000016226 <.Lpcrel_hi0>:
   16226: 17 b5 ff ff  	auipc	a0, 1048571
   1622a: 13 05 d5 1e  	addi	a0, a0, 493

000000000001622e <.Lpcrel_hi1>:
   1622e: 97 b5 ff ff  	auipc	a1, 1048571
   16232: 93 86 25 21  	addi	a3, a1, 530
   16236: 93 05 b0 02  	li	a1, 43
   1623a: 13 06 e1 00  	addi	a2, sp, 14
   1623e: 97 20 00 00  	auipc	ra, 2
   16242: e7 80 20 df  	jalr	-526(ra)
   16246: 00 00        	unimp

0000000000016248 <_ZN4core6result19Result$LT$T$C$E$GT$6unwrap17h54d38c4a19e4522bE>:
   16248: 41 11        	addi	sp, sp, -16
   1624a: 2e e0        	sd	a1, 0(sp)
   1624c: a3 06 a1 00  	sb	a0, 13(sp)
   16250: 03 45 d1 00  	lbu	a0, 13(sp)
   16254: 05 89        	andi	a0, a0, 1
   16256: 01 e5        	bnez	a0, 0x1625e <_ZN4core6result19Result$LT$T$C$E$GT$6unwrap17h54d38c4a19e4522bE+0x16>
   16258: 09 a0        	j	0x1625a <_ZN4core6result19Result$LT$T$C$E$GT$6unwrap17h54d38c4a19e4522bE+0x12>
   1625a: 41 01        	addi	sp, sp, 16
   1625c: 82 80        	ret
   1625e: 02 67        	ld	a4, 0(sp)

0000000000016260 <.Lpcrel_hi2>:
   16260: 17 b5 ff ff  	auipc	a0, 1048571
   16264: 13 05 35 1b  	addi	a0, a0, 435

0000000000016268 <.Lpcrel_hi3>:
   16268: 97 b5 ff ff  	auipc	a1, 1048571
   1626c: 93 86 85 1f  	addi	a3, a1, 504
   16270: 93 05 b0 02  	li	a1, 43
   16274: 13 06 e1 00  	addi	a2, sp, 14
   16278: 97 20 00 00  	auipc	ra, 2
   1627c: e7 80 80 db  	jalr	-584(ra)
   16280: 00 00        	unimp

0000000000016282 <_ZN106_$LT$core..ops..range..Range$LT$usize$GT$$u20$as$u20$core..slice..index..SliceIndex$LT$$u5b$T$u5d$$GT$$GT$9index_mut17h26c1d0c0b551ad90E>:
   16282: 71 71        	addi	sp, sp, -176
   16284: 3a e4        	sd	a4, 8(sp)
   16286: 36 e8        	sd	a3, 16(sp)
   16288: 32 ec        	sd	a2, 24(sp)
   1628a: 2e f0        	sd	a1, 32(sp)
   1628c: 2a f4        	sd	a0, 40(sp)
   1628e: aa e8        	sd	a0, 80(sp)
   16290: ae ec        	sd	a1, 88(sp)
   16292: b2 f0        	sd	a2, 96(sp)
   16294: b6 f4        	sd	a3, 104(sp)
   16296: 63 e8 a5 00  	bltu	a1, a0, 0x162a6 <_ZN106_$LT$core..ops..range..Range$LT$usize$GT$$u20$as$u20$core..slice..index..SliceIndex$LT$$u5b$T$u5d$$GT$$GT$9index_mut17h26c1d0c0b551ad90E+0x24>
   1629a: 09 a0        	j	0x1629c <_ZN106_$LT$core..ops..range..Range$LT$usize$GT$$u20$as$u20$core..slice..index..SliceIndex$LT$$u5b$T$u5d$$GT$$GT$9index_mut17h26c1d0c0b551ad90E+0x1a>
   1629c: 42 65        	ld	a0, 16(sp)
   1629e: 82 75        	ld	a1, 32(sp)
   162a0: 63 63 b5 04  	bltu	a0, a1, 0x162e6 <_ZN106_$LT$core..ops..range..Range$LT$usize$GT$$u20$as$u20$core..slice..index..SliceIndex$LT$$u5b$T$u5d$$GT$$GT$9index_mut17h26c1d0c0b551ad90E+0x64>
   162a4: 09 a8        	j	0x162b6 <_ZN106_$LT$core..ops..range..Range$LT$usize$GT$$u20$as$u20$core..slice..index..SliceIndex$LT$$u5b$T$u5d$$GT$$GT$9index_mut17h26c1d0c0b551ad90E+0x34>
   162a6: 22 66        	ld	a2, 8(sp)
   162a8: 82 75        	ld	a1, 32(sp)
   162aa: 22 75        	ld	a0, 40(sp)
   162ac: 97 30 00 00  	auipc	ra, 3
   162b0: e7 80 40 87  	jalr	-1932(ra)
   162b4: 00 00        	unimp
   162b6: e2 65        	ld	a1, 24(sp)
   162b8: 22 76        	ld	a2, 40(sp)
   162ba: 02 75        	ld	a0, 32(sp)
   162bc: c2 66        	ld	a3, 16(sp)
   162be: b2 f8        	sd	a2, 112(sp)
   162c0: aa fc        	sd	a0, 120(sp)
   162c2: 2e e1        	sd	a1, 128(sp)
   162c4: 36 e5        	sd	a3, 136(sp)
   162c6: 11 8d        	sub	a0, a0, a2
   162c8: 2a e9        	sd	a0, 144(sp)
   162ca: 2e ed        	sd	a1, 152(sp)
   162cc: b2 95        	add	a1, a1, a2
   162ce: 2e f1        	sd	a1, 160(sp)
   162d0: 2e f5        	sd	a1, 168(sp)
   162d2: ae e0        	sd	a1, 64(sp)
   162d4: aa e4        	sd	a0, 72(sp)
   162d6: 86 65        	ld	a1, 64(sp)
   162d8: 26 65        	ld	a0, 72(sp)
   162da: 2e f8        	sd	a1, 48(sp)
   162dc: 2a fc        	sd	a0, 56(sp)
   162de: 42 75        	ld	a0, 48(sp)
   162e0: e2 75        	ld	a1, 56(sp)
   162e2: 4d 61        	addi	sp, sp, 176
   162e4: 82 80        	ret
   162e6: 22 66        	ld	a2, 8(sp)
   162e8: c2 65        	ld	a1, 16(sp)
   162ea: 02 75        	ld	a0, 32(sp)
   162ec: 97 20 00 00  	auipc	ra, 2
   162f0: e7 80 40 7f  	jalr	2036(ra)
   162f4: 00 00        	unimp

00000000000162f6 <_ZN4core3fmt9Arguments9new_const17hf1ea853db97be969E>:
   162f6: 19 71        	addi	sp, sp, -128
   162f8: 86 fc        	sd	ra, 120(sp)
   162fa: 32 e8        	sd	a2, 16(sp)
   162fc: 2e ec        	sd	a1, 24(sp)
   162fe: 2a f0        	sd	a0, 32(sp)
   16300: ae f4        	sd	a1, 104(sp)
   16302: b2 f8        	sd	a2, 112(sp)
   16304: 05 45        	li	a0, 1
   16306: 63 67 c5 02  	bltu	a0, a2, 0x16334 <.Lpcrel_hi1>
   1630a: 09 a0        	j	0x1630c <_ZN4core3fmt9Arguments9new_const17hf1ea853db97be969E+0x16>
   1630c: 82 75        	ld	a1, 32(sp)
   1630e: 42 66        	ld	a2, 16(sp)
   16310: e2 66        	ld	a3, 24(sp)
   16312: 01 45        	li	a0, 0
   16314: aa ec        	sd	a0, 88(sp)
   16316: 94 e1        	sd	a3, 0(a1)
   16318: 90 e5        	sd	a2, 8(a1)
   1631a: e6 66        	ld	a3, 88(sp)
   1631c: 06 76        	ld	a2, 96(sp)
   1631e: 94 f1        	sd	a3, 32(a1)
   16320: 90 f5        	sd	a2, 40(a1)

0000000000016322 <.Lpcrel_hi0>:
   16322: 17 b6 ff ff  	auipc	a2, 1048571
   16326: 13 06 66 18  	addi	a2, a2, 390
   1632a: 90 e9        	sd	a2, 16(a1)
   1632c: 88 ed        	sd	a0, 24(a1)
   1632e: e6 70        	ld	ra, 120(sp)
   16330: 09 61        	addi	sp, sp, 128
   16332: 82 80        	ret

0000000000016334 <.Lpcrel_hi1>:
   16334: 17 b5 ff ff  	auipc	a0, 1048571
   16338: 93 05 45 18  	addi	a1, a0, 388
   1633c: 28 10        	addi	a0, sp, 40
   1633e: 2a e4        	sd	a0, 8(sp)
   16340: 05 46        	li	a2, 1
   16342: 97 00 00 00  	auipc	ra, 0
   16346: e7 80 40 fb  	jalr	-76(ra)
   1634a: 22 65        	ld	a0, 8(sp)

000000000001634c <.Lpcrel_hi2>:
   1634c: 97 b5 ff ff  	auipc	a1, 1048571
   16350: 93 85 c5 1c  	addi	a1, a1, 460
   16354: 97 20 00 00  	auipc	ra, 2
   16358: e7 80 00 b6  	jalr	-1184(ra)
   1635c: 00 00        	unimp

000000000001635e <_ZN4core4sync6atomic12atomic_store17h32822f3b41cf47d1E>:
   1635e: 4d 71        	addi	sp, sp, -336
   16360: 86 e6        	sd	ra, 328(sp)
   16362: 2a ec        	sd	a0, 24(sp)
   16364: ae 86        	mv	a3, a1
   16366: 36 f0        	sd	a3, 32(sp)
   16368: a3 0b c1 02  	sb	a2, 55(sp)
   1636c: 2a ee        	sd	a0, 280(sp)
   1636e: a3 03 b1 12  	sb	a1, 295(sp)
   16372: 03 45 71 03  	lbu	a0, 55(sp)
   16376: 2a f4        	sd	a0, 40(sp)
   16378: 22 75        	ld	a0, 40(sp)
   1637a: 0e 05        	slli	a0, a0, 3

000000000001637c <.Lpcrel_hi3>:
   1637c: 97 b5 ff ff  	auipc	a1, 1048571
   16380: 93 85 45 10  	addi	a1, a1, 260
   16384: 2e 95        	add	a0, a0, a1
   16386: 08 61        	ld	a0, 0(a0)
   16388: 02 85        	jr	a0
   1638a: 00 00        	unimp

000000000001638c <.LBB1_3>:
   1638c: 02 75        	ld	a0, 32(sp)
   1638e: e2 65        	ld	a1, 24(sp)
   16390: 23 80 a5 00  	sb	a0, 0(a1)
   16394: 99 a0        	j	0x163da <.LBB1_7+0xe>

0000000000016396 <.LBB1_4>:
   16396: 02 75        	ld	a0, 32(sp)
   16398: e2 65        	ld	a1, 24(sp)
   1639a: 0f 00 10 03  	fence	rw, w
   1639e: 23 80 a5 00  	sb	a0, 0(a1)
   163a2: 25 a8        	j	0x163da <.LBB1_7+0xe>

00000000000163a4 <.Lpcrel_hi4>:
   163a4: 17 b5 ff ff  	auipc	a0, 1048571
   163a8: 13 05 c5 1b  	addi	a0, a0, 444
   163ac: 2a f6        	sd	a0, 296(sp)
   163ae: 05 45        	li	a0, 1
   163b0: 2a fa        	sd	a0, 304(sp)
   163b2: 01 45        	li	a0, 0
   163b4: 3d e1        	bnez	a0, 0x1641a <.Lpcrel_hi9>
   163b6: 2d a0        	j	0x163e0 <.LBB1_7+0x14>

00000000000163b8 <.Lpcrel_hi5>:
   163b8: 17 b5 ff ff  	auipc	a0, 1048571
   163bc: 13 05 85 25  	addi	a0, a0, 600
   163c0: 2a fe        	sd	a0, 312(sp)
   163c2: 05 45        	li	a0, 1
   163c4: aa e2        	sd	a0, 320(sp)
   163c6: 01 45        	li	a0, 0
   163c8: 5d e9        	bnez	a0, 0x1647e <.Lpcrel_hi14>
   163ca: ad a8        	j	0x16444 <.Lpcrel_hi10+0x12>

00000000000163cc <.LBB1_7>:
   163cc: 02 75        	ld	a0, 32(sp)
   163ce: e2 65        	ld	a1, 24(sp)
   163d0: 0f 00 10 03  	fence	rw, w
   163d4: 23 80 a5 00  	sb	a0, 0(a1)
   163d8: 09 a0        	j	0x163da <.LBB1_7+0xe>
   163da: b6 60        	ld	ra, 328(sp)
   163dc: 71 61        	addi	sp, sp, 336
   163de: 82 80        	ret
   163e0: 01 45        	li	a0, 0
   163e2: 2a e6        	sd	a0, 264(sp)

00000000000163e4 <.Lpcrel_hi6>:
   163e4: 97 b5 ff ff  	auipc	a1, 1048571
   163e8: 93 85 c5 17  	addi	a1, a1, 380
   163ec: 2e fc        	sd	a1, 56(sp)
   163ee: 85 45        	li	a1, 1
   163f0: ae e0        	sd	a1, 64(sp)
   163f2: 32 66        	ld	a2, 264(sp)
   163f4: d2 65        	ld	a1, 272(sp)
   163f6: b2 ec        	sd	a2, 88(sp)
   163f8: ae f0        	sd	a1, 96(sp)

00000000000163fa <.Lpcrel_hi7>:
   163fa: 97 b5 ff ff  	auipc	a1, 1048571
   163fe: 93 85 e5 0a  	addi	a1, a1, 174
   16402: ae e4        	sd	a1, 72(sp)
   16404: aa e8        	sd	a0, 80(sp)

0000000000016406 <.Lpcrel_hi8>:
   16406: 17 b5 ff ff  	auipc	a0, 1048571
   1640a: 93 05 a5 1b  	addi	a1, a0, 442
   1640e: 28 18        	addi	a0, sp, 56
   16410: 97 20 00 00  	auipc	ra, 2
   16414: e7 80 40 aa  	jalr	-1372(ra)
   16418: 00 00        	unimp

000000000001641a <.Lpcrel_hi9>:
   1641a: 17 b5 ff ff  	auipc	a0, 1048571
   1641e: 93 05 e5 09  	addi	a1, a0, 158
   16422: a8 09        	addi	a0, sp, 216
   16424: 2a e8        	sd	a0, 16(sp)
   16426: 05 46        	li	a2, 1
   16428: 97 00 00 00  	auipc	ra, 0
   1642c: e7 80 e0 ec  	jalr	-306(ra)
   16430: 42 65        	ld	a0, 16(sp)

0000000000016432 <.Lpcrel_hi10>:
   16432: 97 b5 ff ff  	auipc	a1, 1048571
   16436: 93 85 65 0e  	addi	a1, a1, 230
   1643a: 97 20 00 00  	auipc	ra, 2
   1643e: e7 80 a0 a7  	jalr	-1414(ra)
   16442: 00 00        	unimp
   16444: 01 45        	li	a0, 0
   16446: aa e5        	sd	a0, 200(sp)

0000000000016448 <.Lpcrel_hi11>:
   16448: 97 b5 ff ff  	auipc	a1, 1048571
   1644c: 93 85 85 1c  	addi	a1, a1, 456
   16450: ae f4        	sd	a1, 104(sp)
   16452: 85 45        	li	a1, 1
   16454: ae f8        	sd	a1, 112(sp)
   16456: 2e 66        	ld	a2, 200(sp)
   16458: ce 65        	ld	a1, 208(sp)
   1645a: 32 e5        	sd	a2, 136(sp)
   1645c: 2e e9        	sd	a1, 144(sp)

000000000001645e <.Lpcrel_hi12>:
   1645e: 97 b5 ff ff  	auipc	a1, 1048571
   16462: 93 85 a5 04  	addi	a1, a1, 74
   16466: ae fc        	sd	a1, 120(sp)
   16468: 2a e1        	sd	a0, 128(sp)

000000000001646a <.Lpcrel_hi13>:
   1646a: 17 b5 ff ff  	auipc	a0, 1048571
   1646e: 93 05 65 1b  	addi	a1, a0, 438
   16472: a8 10        	addi	a0, sp, 104
   16474: 97 20 00 00  	auipc	ra, 2
   16478: e7 80 00 a4  	jalr	-1472(ra)
   1647c: 00 00        	unimp

000000000001647e <.Lpcrel_hi14>:
   1647e: 17 b5 ff ff  	auipc	a0, 1048571
   16482: 93 05 a5 03  	addi	a1, a0, 58
   16486: 28 09        	addi	a0, sp, 152
   16488: 2a e4        	sd	a0, 8(sp)
   1648a: 05 46        	li	a2, 1
   1648c: 97 00 00 00  	auipc	ra, 0
   16490: e7 80 a0 e6  	jalr	-406(ra)
   16494: 22 65        	ld	a0, 8(sp)

0000000000016496 <.Lpcrel_hi15>:
   16496: 97 b5 ff ff  	auipc	a1, 1048571
   1649a: 93 85 25 08  	addi	a1, a1, 130
   1649e: 97 20 00 00  	auipc	ra, 2
   164a2: e7 80 60 a1  	jalr	-1514(ra)
   164a6: 00 00        	unimp

00000000000164a8 <_ZN4spin4once6status6Status13new_unchecked17h9aa8f93fd3b66c26E>:
;         unsafe fn new_unchecked(inner: u8) -> Self {
   164a8: 41 11        	addi	sp, sp, -16
   164aa: a3 07 a1 00  	sb	a0, 15(sp)
;         }
   164ae: 41 01        	addi	sp, sp, 16
   164b0: 82 80        	ret

00000000000164b2 <_ZN102_$LT$core..iter..adapters..zip..Zip$LT$A$C$B$GT$$u20$as$u20$core..iter..traits..iterator..Iterator$GT$4next17h53c28621cb10e3ccE>:
   164b2: 41 11        	addi	sp, sp, -16
   164b4: 06 e4        	sd	ra, 8(sp)
   164b6: 2a e0        	sd	a0, 0(sp)
   164b8: 97 00 00 00  	auipc	ra, 0
   164bc: e7 80 a0 07  	jalr	122(ra)
   164c0: a2 60        	ld	ra, 8(sp)
   164c2: 41 01        	addi	sp, sp, 16
   164c4: 82 80        	ret

00000000000164c6 <_ZN104_$LT$core..ops..control_flow..ControlFlow$LT$B$C$C$GT$$u20$as$u20$core..ops..try_trait..FromResidual$GT$13from_residual17ha045629bed94ca47E>:
   164c6: 41 11        	addi	sp, sp, -16
   164c8: 05 45        	li	a0, 1
   164ca: a3 06 a1 00  	sb	a0, 13(sp)
   164ce: 03 45 d1 00  	lbu	a0, 13(sp)
   164d2: 41 01        	addi	sp, sp, 16
   164d4: 82 80        	ret

00000000000164d6 <_ZN111_$LT$core..iter..adapters..zip..Zip$LT$A$C$B$GT$$u20$as$u20$core..iter..adapters..zip..ZipImpl$LT$A$C$B$GT$$GT$3new17h3aa5ac4f9a5371ebE>:
   164d6: 5d 71        	addi	sp, sp, -80
   164d8: 86 e4        	sd	ra, 72(sp)
   164da: 2a e0        	sd	a0, 0(sp)
   164dc: 2e e8        	sd	a1, 16(sp)
   164de: 32 ec        	sd	a2, 24(sp)
   164e0: 36 f0        	sd	a3, 32(sp)
   164e2: 3a f4        	sd	a4, 40(sp)
   164e4: 08 08        	addi	a0, sp, 16
   164e6: 97 00 00 00  	auipc	ra, 0
   164ea: e7 80 e0 39  	jalr	926(ra)
   164ee: 2a e4        	sd	a0, 8(sp)
   164f0: 2a f8        	sd	a0, 48(sp)
   164f2: 08 10        	addi	a0, sp, 32
   164f4: 97 00 00 00  	auipc	ra, 0
   164f8: e7 80 00 39  	jalr	912(ra)
   164fc: aa 85        	mv	a1, a0
   164fe: 22 65        	ld	a0, 8(sp)
   16500: 2e fc        	sd	a1, 56(sp)
   16502: 97 00 00 00  	auipc	ra, 0
   16506: e7 80 40 11  	jalr	276(ra)
   1650a: 82 65        	ld	a1, 0(sp)
   1650c: 2a 86        	mv	a2, a0
   1650e: 22 65        	ld	a0, 8(sp)
   16510: b2 e0        	sd	a2, 64(sp)
   16512: 42 68        	ld	a6, 16(sp)
   16514: e2 67        	ld	a5, 24(sp)
   16516: 02 77        	ld	a4, 32(sp)
   16518: a2 76        	ld	a3, 40(sp)
   1651a: 23 b0 05 01  	sd	a6, 0(a1)
   1651e: 9c e5        	sd	a5, 8(a1)
   16520: 98 e9        	sd	a4, 16(a1)
   16522: 94 ed        	sd	a3, 24(a1)
   16524: 81 46        	li	a3, 0
   16526: 94 f1        	sd	a3, 32(a1)
   16528: 90 f5        	sd	a2, 40(a1)
   1652a: 88 f9        	sd	a0, 48(a1)
   1652c: a6 60        	ld	ra, 72(sp)
   1652e: 61 61        	addi	sp, sp, 80
   16530: 82 80        	ret

0000000000016532 <_ZN111_$LT$core..iter..adapters..zip..Zip$LT$A$C$B$GT$$u20$as$u20$core..iter..adapters..zip..ZipImpl$LT$A$C$B$GT$$GT$4next17h50990a33c03745a4E>:
   16532: 1d 71        	addi	sp, sp, -96
   16534: 86 ec        	sd	ra, 88(sp)
   16536: aa 85        	mv	a1, a0
   16538: 2e ec        	sd	a1, 24(sp)
   1653a: ae e0        	sd	a1, 64(sp)
   1653c: 88 71        	ld	a0, 32(a1)
   1653e: 8c 75        	ld	a1, 40(a1)
   16540: 63 66 b5 00  	bltu	a0, a1, 0x1654c <_ZN111_$LT$core..iter..adapters..zip..Zip$LT$A$C$B$GT$$u20$as$u20$core..iter..adapters..zip..ZipImpl$LT$A$C$B$GT$$GT$4next17h50990a33c03745a4E+0x1a>
   16544: 09 a0        	j	0x16546 <_ZN111_$LT$core..iter..adapters..zip..Zip$LT$A$C$B$GT$$u20$as$u20$core..iter..adapters..zip..ZipImpl$LT$A$C$B$GT$$GT$4next17h50990a33c03745a4E+0x14>
   16546: 01 45        	li	a0, 0
   16548: 29 e1        	bnez	a0, 0x1658a <_ZN111_$LT$core..iter..adapters..zip..Zip$LT$A$C$B$GT$$u20$as$u20$core..iter..adapters..zip..ZipImpl$LT$A$C$B$GT$$GT$4next17h50990a33c03745a4E+0x58>
   1654a: 2d a8        	j	0x16584 <_ZN111_$LT$core..iter..adapters..zip..Zip$LT$A$C$B$GT$$u20$as$u20$core..iter..adapters..zip..ZipImpl$LT$A$C$B$GT$$GT$4next17h50990a33c03745a4E+0x52>
   1654c: 62 65        	ld	a0, 24(sp)
   1654e: 0c 71        	ld	a1, 32(a0)
   16550: 2e e4        	sd	a1, 8(sp)
   16552: ae e8        	sd	a1, 80(sp)
   16554: 10 71        	ld	a2, 32(a0)
   16556: 05 06        	addi	a2, a2, 1
   16558: 10 f1        	sd	a2, 32(a0)
   1655a: 97 10 00 00  	auipc	ra, 1
   1655e: e7 80 20 dc  	jalr	-574(ra)
   16562: a2 65        	ld	a1, 8(sp)
   16564: 2a 86        	mv	a2, a0
   16566: 62 65        	ld	a0, 24(sp)
   16568: 32 e8        	sd	a2, 16(sp)
   1656a: 41 05        	addi	a0, a0, 16
   1656c: 97 10 00 00  	auipc	ra, 1
   16570: e7 80 00 db  	jalr	-592(ra)
   16574: c2 65        	ld	a1, 16(sp)
   16576: 2e f8        	sd	a1, 48(sp)
   16578: 2a fc        	sd	a0, 56(sp)
   1657a: c2 75        	ld	a1, 48(sp)
   1657c: 62 75        	ld	a0, 56(sp)
   1657e: 2e f0        	sd	a1, 32(sp)
   16580: 2a f4        	sd	a0, 40(sp)
   16582: 25 a8        	j	0x165ba <_ZN111_$LT$core..iter..adapters..zip..Zip$LT$A$C$B$GT$$u20$as$u20$core..iter..adapters..zip..ZipImpl$LT$A$C$B$GT$$GT$4next17h50990a33c03745a4E+0x88>
   16584: 01 45        	li	a0, 0
   16586: 2a f0        	sd	a0, 32(sp)
   16588: 05 a8        	j	0x165b8 <_ZN111_$LT$core..iter..adapters..zip..Zip$LT$A$C$B$GT$$u20$as$u20$core..iter..adapters..zip..ZipImpl$LT$A$C$B$GT$$GT$4next17h50990a33c03745a4E+0x86>
   1658a: e2 65        	ld	a1, 24(sp)
   1658c: 88 71        	ld	a0, 32(a1)
   1658e: 8c 79        	ld	a1, 48(a1)
   16590: 63 64 b5 00  	bltu	a0, a1, 0x16598 <_ZN111_$LT$core..iter..adapters..zip..Zip$LT$A$C$B$GT$$u20$as$u20$core..iter..adapters..zip..ZipImpl$LT$A$C$B$GT$$GT$4next17h50990a33c03745a4E+0x66>
   16594: 09 a0        	j	0x16596 <_ZN111_$LT$core..iter..adapters..zip..Zip$LT$A$C$B$GT$$u20$as$u20$core..iter..adapters..zip..ZipImpl$LT$A$C$B$GT$$GT$4next17h50990a33c03745a4E+0x64>
; // Copyright 2015 The Rust Project Developers. See the COPYRIGHT
   16596: fd b7        	j	0x16584 <_ZN111_$LT$core..iter..adapters..zip..Zip$LT$A$C$B$GT$$u20$as$u20$core..iter..adapters..zip..ZipImpl$LT$A$C$B$GT$$GT$4next17h50990a33c03745a4E+0x52>
   16598: 62 65        	ld	a0, 24(sp)
   1659a: 0c 71        	ld	a1, 32(a0)
   1659c: ae e4        	sd	a1, 72(sp)
   1659e: 10 71        	ld	a2, 32(a0)
   165a0: 05 06        	addi	a2, a2, 1
   165a2: 10 f1        	sd	a2, 32(a0)
   165a4: 10 75        	ld	a2, 40(a0)
   165a6: 05 06        	addi	a2, a2, 1
   165a8: 10 f5        	sd	a2, 40(a0)
   165aa: 97 10 00 00  	auipc	ra, 1
   165ae: e7 80 20 d7  	jalr	-654(ra)
   165b2: 01 45        	li	a0, 0
   165b4: 2a f0        	sd	a0, 32(sp)
   165b6: 09 a0        	j	0x165b8 <_ZN111_$LT$core..iter..adapters..zip..Zip$LT$A$C$B$GT$$u20$as$u20$core..iter..adapters..zip..ZipImpl$LT$A$C$B$GT$$GT$4next17h50990a33c03745a4E+0x86>
   165b8: 09 a0        	j	0x165ba <_ZN111_$LT$core..iter..adapters..zip..Zip$LT$A$C$B$GT$$u20$as$u20$core..iter..adapters..zip..ZipImpl$LT$A$C$B$GT$$GT$4next17h50990a33c03745a4E+0x88>
   165ba: 02 75        	ld	a0, 32(sp)
   165bc: a2 75        	ld	a1, 40(sp)
   165be: e6 60        	ld	ra, 88(sp)
   165c0: 25 61        	addi	sp, sp, 96
   165c2: 82 80        	ret

00000000000165c4 <_ZN4core3cmp5impls50_$LT$impl$u20$core..cmp..Ord$u20$for$u20$usize$GT$3cmp17hf285fe08a5732494E>:
   165c4: 79 71        	addi	sp, sp, -48
   165c6: 2e e4        	sd	a1, 8(sp)
   165c8: 2a e8        	sd	a0, 16(sp)
   165ca: 2a f0        	sd	a0, 32(sp)
   165cc: 2e f4        	sd	a1, 40(sp)
   165ce: 08 61        	ld	a0, 0(a0)
   165d0: 8c 61        	ld	a1, 0(a1)
   165d2: 63 6a b5 00  	bltu	a0, a1, 0x165e6 <_ZN4core3cmp5impls50_$LT$impl$u20$core..cmp..Ord$u20$for$u20$usize$GT$3cmp17hf285fe08a5732494E+0x22>
   165d6: 09 a0        	j	0x165d8 <_ZN4core3cmp5impls50_$LT$impl$u20$core..cmp..Ord$u20$for$u20$usize$GT$3cmp17hf285fe08a5732494E+0x14>
   165d8: a2 65        	ld	a1, 8(sp)
   165da: 42 65        	ld	a0, 16(sp)
   165dc: 08 61        	ld	a0, 0(a0)
   165de: 8c 61        	ld	a1, 0(a1)
   165e0: 63 0c b5 00  	beq	a0, a1, 0x165f8 <_ZN4core3cmp5impls50_$LT$impl$u20$core..cmp..Ord$u20$for$u20$usize$GT$3cmp17hf285fe08a5732494E+0x34>
   165e4: 31 a0        	j	0x165f0 <_ZN4core3cmp5impls50_$LT$impl$u20$core..cmp..Ord$u20$for$u20$usize$GT$3cmp17hf285fe08a5732494E+0x2c>
   165e6: 13 05 f0 0f  	li	a0, 255
   165ea: a3 0f a1 00  	sb	a0, 31(sp)
   165ee: 11 a8        	j	0x16602 <_ZN4core3cmp5impls50_$LT$impl$u20$core..cmp..Ord$u20$for$u20$usize$GT$3cmp17hf285fe08a5732494E+0x3e>
   165f0: 05 45        	li	a0, 1
   165f2: a3 0f a1 00  	sb	a0, 31(sp)
   165f6: 29 a0        	j	0x16600 <_ZN4core3cmp5impls50_$LT$impl$u20$core..cmp..Ord$u20$for$u20$usize$GT$3cmp17hf285fe08a5732494E+0x3c>
   165f8: 01 45        	li	a0, 0
   165fa: a3 0f a1 00  	sb	a0, 31(sp)
   165fe: 09 a0        	j	0x16600 <_ZN4core3cmp5impls50_$LT$impl$u20$core..cmp..Ord$u20$for$u20$usize$GT$3cmp17hf285fe08a5732494E+0x3c>
   16600: 09 a0        	j	0x16602 <_ZN4core3cmp5impls50_$LT$impl$u20$core..cmp..Ord$u20$for$u20$usize$GT$3cmp17hf285fe08a5732494E+0x3e>
   16602: 03 45 f1 01  	lbu	a0, 31(sp)
   16606: 45 61        	addi	sp, sp, 48
   16608: 82 80        	ret

000000000001660a <_ZN4core3cmp5impls59_$LT$impl$u20$core..cmp..PartialEq$u20$for$u20$$LP$$RP$$GT$2eq17h3ed68859e50cd88dE>:
   1660a: 41 11        	addi	sp, sp, -16
   1660c: 2a e0        	sd	a0, 0(sp)
   1660e: 2e e4        	sd	a1, 8(sp)
   16610: 05 45        	li	a0, 1
   16612: 41 01        	addi	sp, sp, 16
   16614: 82 80        	ret

0000000000016616 <_ZN4core3cmp6min_by17h19ce77847c84bb57E>:
   16616: 39 71        	addi	sp, sp, -64
   16618: 06 fc        	sd	ra, 56(sp)
   1661a: 2a e0        	sd	a0, 0(sp)
   1661c: 2e e4        	sd	a1, 8(sp)
   1661e: 05 45        	li	a0, 1
   16620: 23 0b a1 02  	sb	a0, 54(sp)
   16624: a3 0a a1 02  	sb	a0, 53(sp)
   16628: 0a 85        	mv	a0, sp
   1662a: 2a f0        	sd	a0, 32(sp)
   1662c: 28 00        	addi	a0, sp, 8
   1662e: 2a f4        	sd	a0, 40(sp)
   16630: 02 75        	ld	a0, 32(sp)
   16632: a2 75        	ld	a1, 40(sp)
   16634: 97 00 00 00  	auipc	ra, 0
   16638: e7 80 a0 14  	jalr	330(ra)
   1663c: a3 0f a1 00  	sb	a0, 31(sp)
   16640: 03 45 f1 01  	lbu	a0, 31(sp)
   16644: 05 25        	addiw	a0, a0, 1
   16646: 13 75 f5 0f  	andi	a0, a0, 255
   1664a: 89 45        	li	a1, 2
   1664c: 63 65 b5 00  	bltu	a0, a1, 0x16656 <_ZN4core3cmp6min_by17h19ce77847c84bb57E+0x40>
   16650: 09 a0        	j	0x16652 <_ZN4core3cmp6min_by17h19ce77847c84bb57E+0x3c>
   16652: 01 a8        	j	0x16662 <_ZN4core3cmp6min_by17h19ce77847c84bb57E+0x4c>
   16654: 00 00        	unimp
   16656: 01 45        	li	a0, 0
   16658: 23 0b a1 02  	sb	a0, 54(sp)
   1665c: 02 65        	ld	a0, 0(sp)
   1665e: 2a e8        	sd	a0, 16(sp)
   16660: 39 a0        	j	0x1666e <_ZN4core3cmp6min_by17h19ce77847c84bb57E+0x58>
   16662: 01 45        	li	a0, 0
   16664: a3 0a a1 02  	sb	a0, 53(sp)
   16668: 22 65        	ld	a0, 8(sp)
   1666a: 2a e8        	sd	a0, 16(sp)
   1666c: 09 a0        	j	0x1666e <_ZN4core3cmp6min_by17h19ce77847c84bb57E+0x58>
   1666e: 03 45 51 03  	lbu	a0, 53(sp)
   16672: 05 89        	andi	a0, a0, 1
   16674: 19 e5        	bnez	a0, 0x16682 <_ZN4core3cmp6min_by17h19ce77847c84bb57E+0x6c>
   16676: 09 a0        	j	0x16678 <_ZN4core3cmp6min_by17h19ce77847c84bb57E+0x62>
   16678: 03 45 61 03  	lbu	a0, 54(sp)
   1667c: 05 89        	andi	a0, a0, 1
   1667e: 19 e5        	bnez	a0, 0x1668c <_ZN4core3cmp6min_by17h19ce77847c84bb57E+0x76>
   16680: 11 a0        	j	0x16684 <_ZN4core3cmp6min_by17h19ce77847c84bb57E+0x6e>
   16682: dd bf        	j	0x16678 <_ZN4core3cmp6min_by17h19ce77847c84bb57E+0x62>
   16684: 42 65        	ld	a0, 16(sp)
   16686: e2 70        	ld	ra, 56(sp)
   16688: 21 61        	addi	sp, sp, 64
   1668a: 82 80        	ret
   1668c: e5 bf        	j	0x16684 <_ZN4core3cmp6min_by17h19ce77847c84bb57E+0x6e>

000000000001668e <_ZN4core3fmt9Arguments9new_const17hd5389acc6d17c944E>:
   1668e: 19 71        	addi	sp, sp, -128
   16690: 86 fc        	sd	ra, 120(sp)
   16692: 32 e8        	sd	a2, 16(sp)
   16694: 2e ec        	sd	a1, 24(sp)
   16696: 2a f0        	sd	a0, 32(sp)
   16698: ae f4        	sd	a1, 104(sp)
   1669a: b2 f8        	sd	a2, 112(sp)
   1669c: 05 45        	li	a0, 1
   1669e: 63 67 c5 02  	bltu	a0, a2, 0x166cc <.Lpcrel_hi4>
   166a2: 09 a0        	j	0x166a4 <_ZN4core3fmt9Arguments9new_const17hd5389acc6d17c944E+0x16>
   166a4: 82 75        	ld	a1, 32(sp)
   166a6: 42 66        	ld	a2, 16(sp)
   166a8: e2 66        	ld	a3, 24(sp)
   166aa: 01 45        	li	a0, 0
   166ac: aa ec        	sd	a0, 88(sp)
   166ae: 94 e1        	sd	a3, 0(a1)
   166b0: 90 e5        	sd	a2, 8(a1)
   166b2: e6 66        	ld	a3, 88(sp)
   166b4: 06 76        	ld	a2, 96(sp)
   166b6: 94 f1        	sd	a3, 32(a1)
   166b8: 90 f5        	sd	a2, 40(a1)

00000000000166ba <.Lpcrel_hi3>:
   166ba: 17 b6 ff ff  	auipc	a2, 1048571
   166be: 13 06 66 04  	addi	a2, a2, 70
   166c2: 90 e9        	sd	a2, 16(a1)
   166c4: 88 ed        	sd	a0, 24(a1)
   166c6: e6 70        	ld	ra, 120(sp)
   166c8: 09 61        	addi	sp, sp, 128
   166ca: 82 80        	ret

00000000000166cc <.Lpcrel_hi4>:
   166cc: 17 b5 ff ff  	auipc	a0, 1048571
   166d0: 93 05 45 02  	addi	a1, a0, 36
   166d4: 28 10        	addi	a0, sp, 40
   166d6: 2a e4        	sd	a0, 8(sp)
   166d8: 05 46        	li	a2, 1
   166da: 97 00 00 00  	auipc	ra, 0
   166de: e7 80 40 fb  	jalr	-76(ra)
   166e2: 22 65        	ld	a0, 8(sp)

00000000000166e4 <.Lpcrel_hi5>:
   166e4: 97 b5 ff ff  	auipc	a1, 1048571
   166e8: 93 85 c5 06  	addi	a1, a1, 108
   166ec: 97 10 00 00  	auipc	ra, 1
   166f0: e7 80 80 7c  	jalr	1992(ra)
   166f4: 00 00        	unimp

00000000000166f6 <_ZN4core3num20_$LT$impl$u20$u8$GT$20eq_ignore_ascii_case17hdeddd231d930c55fE>:
   166f6: 39 71        	addi	sp, sp, -64
   166f8: 2e e8        	sd	a1, 16(sp)
   166fa: 2a ec        	sd	a0, 24(sp)
   166fc: 2a f8        	sd	a0, 48(sp)
   166fe: 2e fc        	sd	a1, 56(sp)
   16700: 83 45 05 00  	lbu	a1, 0(a0)
   16704: 2e f0        	sd	a1, 32(sp)
   16706: 13 05 00 04  	li	a0, 64
   1670a: 63 67 b5 00  	bltu	a0, a1, 0x16718 <_ZN4core3num20_$LT$impl$u20$u8$GT$20eq_ignore_ascii_case17hdeddd231d930c55fE+0x22>
   1670e: 09 a0        	j	0x16710 <_ZN4core3num20_$LT$impl$u20$u8$GT$20eq_ignore_ascii_case17hdeddd231d930c55fE+0x1a>
   16710: 01 45        	li	a0, 0
   16712: 23 07 a1 02  	sb	a0, 46(sp)
   16716: 09 a8        	j	0x16728 <_ZN4core3num20_$LT$impl$u20$u8$GT$20eq_ignore_ascii_case17hdeddd231d930c55fE+0x32>
   16718: 62 65        	ld	a0, 24(sp)
   1671a: 03 45 05 00  	lbu	a0, 0(a0)
   1671e: 13 35 b5 05  	sltiu	a0, a0, 91
   16722: 23 07 a1 02  	sb	a0, 46(sp)
   16726: 09 a0        	j	0x16728 <_ZN4core3num20_$LT$impl$u20$u8$GT$20eq_ignore_ascii_case17hdeddd231d930c55fE+0x32>
   16728: 42 65        	ld	a0, 16(sp)
   1672a: 82 75        	ld	a1, 32(sp)
   1672c: 03 46 e1 02  	lbu	a2, 46(sp)
   16730: 16 06        	slli	a2, a2, 5
   16732: d1 8d        	or	a1, a1, a2
   16734: 2e e0        	sd	a1, 0(sp)
   16736: 83 45 05 00  	lbu	a1, 0(a0)
   1673a: 2e e4        	sd	a1, 8(sp)
   1673c: 13 05 00 04  	li	a0, 64
   16740: 63 67 b5 00  	bltu	a0, a1, 0x1674e <_ZN4core3num20_$LT$impl$u20$u8$GT$20eq_ignore_ascii_case17hdeddd231d930c55fE+0x58>
   16744: 09 a0        	j	0x16746 <_ZN4core3num20_$LT$impl$u20$u8$GT$20eq_ignore_ascii_case17hdeddd231d930c55fE+0x50>
   16746: 01 45        	li	a0, 0
   16748: a3 07 a1 02  	sb	a0, 47(sp)
   1674c: 09 a8        	j	0x1675e <_ZN4core3num20_$LT$impl$u20$u8$GT$20eq_ignore_ascii_case17hdeddd231d930c55fE+0x68>
   1674e: 42 65        	ld	a0, 16(sp)
   16750: 03 45 05 00  	lbu	a0, 0(a0)
   16754: 13 35 b5 05  	sltiu	a0, a0, 91
   16758: a3 07 a1 02  	sb	a0, 47(sp)
   1675c: 09 a0        	j	0x1675e <_ZN4core3num20_$LT$impl$u20$u8$GT$20eq_ignore_ascii_case17hdeddd231d930c55fE+0x68>
   1675e: 02 65        	ld	a0, 0(sp)
   16760: a2 65        	ld	a1, 8(sp)
   16762: 03 46 f1 02  	lbu	a2, 47(sp)
   16766: 1b 16 56 00  	slliw	a2, a2, 5
   1676a: d1 8d        	or	a1, a1, a2
   1676c: 93 f5 f5 0f  	andi	a1, a1, 255
   16770: 13 75 f5 0f  	andi	a0, a0, 255
   16774: 2d 8d        	xor	a0, a0, a1
   16776: 13 35 15 00  	seqz	a0, a0
   1677a: 21 61        	addi	sp, sp, 64
   1677c: 82 80        	ret

000000000001677e <_ZN4core3ops8function6FnOnce9call_once17h1fbecb3a019fd72bE>:
   1677e: 01 11        	addi	sp, sp, -32
   16780: 06 ec        	sd	ra, 24(sp)
   16782: 2a e0        	sd	a0, 0(sp)
   16784: 2e e4        	sd	a1, 8(sp)
   16786: 02 65        	ld	a0, 0(sp)
   16788: a2 65        	ld	a1, 8(sp)
   1678a: 97 00 00 00  	auipc	ra, 0
   1678e: e7 80 a0 e3  	jalr	-454(ra)
   16792: e2 60        	ld	ra, 24(sp)
   16794: 05 61        	addi	sp, sp, 32
   16796: 82 80        	ret

0000000000016798 <_ZN4core3ops8function6FnOnce9call_once17hfa067f8bb402f7bfE>:
   16798: 01 11        	addi	sp, sp, -32
   1679a: 06 ec        	sd	ra, 24(sp)
   1679c: 2e e0        	sd	a1, 0(sp)
   1679e: 32 e4        	sd	a2, 8(sp)
   167a0: 82 65        	ld	a1, 0(sp)
   167a2: 22 66        	ld	a2, 8(sp)
   167a4: 97 10 00 00  	auipc	ra, 1
   167a8: e7 80 00 3f  	jalr	1008(ra)
   167ac: e2 60        	ld	ra, 24(sp)
   167ae: 05 61        	addi	sp, sp, 32
   167b0: 82 80        	ret

00000000000167b2 <_ZN4core3ptr35drop_in_place$LT$log..NopLogger$GT$17h3f8c20c01b7f8035E>:
   167b2: 41 11        	addi	sp, sp, -16
   167b4: 2a e4        	sd	a0, 8(sp)
   167b6: 41 01        	addi	sp, sp, 16
   167b8: 82 80        	ret

00000000000167ba <_ZN4core3str21_$LT$impl$u20$str$GT$20eq_ignore_ascii_case17h57d53e15710eb0b0E>:
   167ba: 79 71        	addi	sp, sp, -48
   167bc: 06 f4        	sd	ra, 40(sp)
   167be: 2a e4        	sd	a0, 8(sp)
   167c0: 2e e8        	sd	a1, 16(sp)
   167c2: 32 ec        	sd	a2, 24(sp)
   167c4: 36 f0        	sd	a3, 32(sp)
   167c6: 97 10 00 00  	auipc	ra, 1
   167ca: e7 80 00 8a  	jalr	-1888(ra)
   167ce: a2 70        	ld	ra, 40(sp)
   167d0: 45 61        	addi	sp, sp, 48
   167d2: 82 80        	ret

00000000000167d4 <_ZN4core4iter6traits8iterator8Iterator3all5check28_$u7b$$u7b$closure$u7d$$u7d$17h1fb37b6008548790E>:
   167d4: 39 71        	addi	sp, sp, -64
   167d6: 06 fc        	sd	ra, 56(sp)
   167d8: 2a ec        	sd	a0, 24(sp)
   167da: 2e f4        	sd	a1, 40(sp)
   167dc: 32 f8        	sd	a2, 48(sp)
   167de: 2e e4        	sd	a1, 8(sp)
   167e0: 32 e8        	sd	a2, 16(sp)
   167e2: a2 65        	ld	a1, 8(sp)
   167e4: 42 66        	ld	a2, 16(sp)
   167e6: 97 10 00 00  	auipc	ra, 1
   167ea: e7 80 a0 8e  	jalr	-1814(ra)
   167ee: 11 e5        	bnez	a0, 0x167fa <_ZN4core4iter6traits8iterator8Iterator3all5check28_$u7b$$u7b$closure$u7d$$u7d$17h1fb37b6008548790E+0x26>
   167f0: 09 a0        	j	0x167f2 <_ZN4core4iter6traits8iterator8Iterator3all5check28_$u7b$$u7b$closure$u7d$$u7d$17h1fb37b6008548790E+0x1e>
   167f2: 05 45        	li	a0, 1
   167f4: a3 03 a1 00  	sb	a0, 7(sp)
   167f8: 29 a0        	j	0x16802 <_ZN4core4iter6traits8iterator8Iterator3all5check28_$u7b$$u7b$closure$u7d$$u7d$17h1fb37b6008548790E+0x2e>
   167fa: 01 45        	li	a0, 0
   167fc: a3 03 a1 00  	sb	a0, 7(sp)
   16800: 09 a0        	j	0x16802 <_ZN4core4iter6traits8iterator8Iterator3all5check28_$u7b$$u7b$closure$u7d$$u7d$17h1fb37b6008548790E+0x2e>
   16802: 03 45 71 00  	lbu	a0, 7(sp)
   16806: e2 70        	ld	ra, 56(sp)
   16808: 21 61        	addi	sp, sp, 64
   1680a: 82 80        	ret

000000000001680c <_ZN4core4iter6traits8iterator8Iterator8try_fold17hd61a49451b0bd74fE>:
   1680c: 1d 71        	addi	sp, sp, -96
   1680e: 86 ec        	sd	ra, 88(sp)
   16810: 2a e0        	sd	a0, 0(sp)
   16812: 2a fc        	sd	a0, 56(sp)
   16814: 09 a0        	j	0x16816 <_ZN4core4iter6traits8iterator8Iterator8try_fold17hd61a49451b0bd74fE+0xa>
   16816: 02 65        	ld	a0, 0(sp)
   16818: 97 00 00 00  	auipc	ra, 0
   1681c: e7 80 a0 c9  	jalr	-870(ra)
   16820: 2e ec        	sd	a1, 24(sp)
   16822: 2a e8        	sd	a0, 16(sp)
   16824: 42 65        	ld	a0, 16(sp)
   16826: 1d c9        	beqz	a0, 0x1685c <_ZN4core4iter6traits8iterator8Iterator8try_fold17hd61a49451b0bd74fE+0x50>
   16828: 09 a0        	j	0x1682a <_ZN4core4iter6traits8iterator8Iterator8try_fold17hd61a49451b0bd74fE+0x1e>
   1682a: c2 65        	ld	a1, 16(sp)
   1682c: 62 65        	ld	a0, 24(sp)
   1682e: ae e4        	sd	a1, 72(sp)
   16830: aa e8        	sd	a0, 80(sp)
   16832: 2e f4        	sd	a1, 40(sp)
   16834: 2a f8        	sd	a0, 48(sp)
   16836: a2 75        	ld	a1, 40(sp)
   16838: 42 76        	ld	a2, 48(sp)
   1683a: 13 05 e1 00  	addi	a0, sp, 14
   1683e: 97 00 00 00  	auipc	ra, 0
   16842: e7 80 60 f9  	jalr	-106(ra)
   16846: 97 10 00 00  	auipc	ra, 1
   1684a: e7 80 40 d0  	jalr	-764(ra)
   1684e: a3 03 a1 02  	sb	a0, 39(sp)
   16852: 03 45 71 02  	lbu	a0, 39(sp)
   16856: 05 89        	andi	a0, a0, 1
   16858: 09 c9        	beqz	a0, 0x1686a <_ZN4core4iter6traits8iterator8Iterator8try_fold17hd61a49451b0bd74fE+0x5e>
   1685a: 09 a8        	j	0x1686c <_ZN4core4iter6traits8iterator8Iterator8try_fold17hd61a49451b0bd74fE+0x60>
   1685c: 97 10 00 00  	auipc	ra, 1
   16860: e7 80 e0 cd  	jalr	-802(ra)
   16864: a3 07 a1 00  	sb	a0, 15(sp)
   16868: 09 a8        	j	0x1687a <_ZN4core4iter6traits8iterator8Iterator8try_fold17hd61a49451b0bd74fE+0x6e>
   1686a: 75 b7        	j	0x16816 <_ZN4core4iter6traits8iterator8Iterator8try_fold17hd61a49451b0bd74fE+0xa>
   1686c: 97 00 00 00  	auipc	ra, 0
   16870: e7 80 a0 c5  	jalr	-934(ra)
   16874: a3 07 a1 00  	sb	a0, 15(sp)
   16878: 09 a0        	j	0x1687a <_ZN4core4iter6traits8iterator8Iterator8try_fold17hd61a49451b0bd74fE+0x6e>
   1687a: 03 45 f1 00  	lbu	a0, 15(sp)
   1687e: e6 60        	ld	ra, 88(sp)
   16880: 25 61        	addi	sp, sp, 96
   16882: 82 80        	ret

0000000000016884 <_ZN4core4iter8adapters3zip27TrustedRandomAccessNoCoerce4size17hece144e2f050cdcaE>:
   16884: 79 71        	addi	sp, sp, -48
   16886: 06 f4        	sd	ra, 40(sp)
   16888: aa 85        	mv	a1, a0
   1688a: 2e f0        	sd	a1, 32(sp)
   1688c: 28 00        	addi	a0, sp, 8
   1688e: 97 10 00 00  	auipc	ra, 1
   16892: e7 80 c0 c2  	jalr	-980(ra)
   16896: 22 65        	ld	a0, 8(sp)
   16898: a2 70        	ld	ra, 40(sp)
   1689a: 45 61        	addi	sp, sp, 48
   1689c: 82 80        	ret

000000000001689e <_ZN4core4iter8adapters3zip3zip17h5360ccc6089d0261E>:
   1689e: 1d 71        	addi	sp, sp, -96
   168a0: 86 ec        	sd	ra, 88(sp)
   168a2: 3a ec        	sd	a4, 24(sp)
   168a4: 36 e8        	sd	a3, 16(sp)
   168a6: 32 e0        	sd	a2, 0(sp)
   168a8: 2e 86        	mv	a2, a1
   168aa: 82 65        	ld	a1, 0(sp)
   168ac: 32 e4        	sd	a2, 8(sp)
   168ae: 2a 86        	mv	a2, a0
   168b0: 22 65        	ld	a0, 8(sp)
   168b2: 32 f4        	sd	a2, 40(sp)
   168b4: 2a fc        	sd	a0, 56(sp)
   168b6: ae e0        	sd	a1, 64(sp)
   168b8: b6 e4        	sd	a3, 72(sp)
   168ba: ba e8        	sd	a4, 80(sp)
   168bc: 97 00 00 00  	auipc	ra, 0
   168c0: e7 80 e0 76  	jalr	1902(ra)
   168c4: 2a 86        	mv	a2, a0
   168c6: 42 65        	ld	a0, 16(sp)
   168c8: 32 f8        	sd	a2, 48(sp)
   168ca: 2e 86        	mv	a2, a1
   168cc: e2 65        	ld	a1, 24(sp)
   168ce: 32 f0        	sd	a2, 32(sp)
   168d0: 97 00 00 00  	auipc	ra, 0
   168d4: e7 80 a0 75  	jalr	1882(ra)
   168d8: 02 76        	ld	a2, 32(sp)
   168da: aa 86        	mv	a3, a0
   168dc: 22 75        	ld	a0, 40(sp)
   168de: 2e 87        	mv	a4, a1
   168e0: c2 75        	ld	a1, 48(sp)
   168e2: 97 00 00 00  	auipc	ra, 0
   168e6: e7 80 40 bf  	jalr	-1036(ra)
   168ea: e6 60        	ld	ra, 88(sp)
   168ec: 25 61        	addi	sp, sp, 96
   168ee: 82 80        	ret

00000000000168f0 <_ZN4core4sync6atomic11AtomicUsize16compare_exchange17h3ac64a038fbe8e55E>:
   168f0: 79 71        	addi	sp, sp, -48
   168f2: 06 f4        	sd	ra, 40(sp)
   168f4: 2a e0        	sd	a0, 0(sp)
   168f6: 2e e4        	sd	a1, 8(sp)
   168f8: 32 e8        	sd	a2, 16(sp)
   168fa: 23 0f d1 00  	sb	a3, 30(sp)
   168fe: a3 0f e1 00  	sb	a4, 31(sp)
   16902: 2a f0        	sd	a0, 32(sp)
   16904: 97 00 00 00  	auipc	ra, 0
   16908: e7 80 60 2c  	jalr	710(ra)
   1690c: a2 70        	ld	ra, 40(sp)
   1690e: 45 61        	addi	sp, sp, 48
   16910: 82 80        	ret

0000000000016912 <_ZN4core4sync6atomic11AtomicUsize4load17ha1744c2ba976d59bE>:
   16912: 01 11        	addi	sp, sp, -32
   16914: 06 ec        	sd	ra, 24(sp)
   16916: 2a e0        	sd	a0, 0(sp)
   16918: a3 07 b1 00  	sb	a1, 15(sp)
   1691c: 2a e8        	sd	a0, 16(sp)
   1691e: 97 00 00 00  	auipc	ra, 0
   16922: e7 80 a0 02  	jalr	42(ra)
   16926: e2 60        	ld	ra, 24(sp)
   16928: 05 61        	addi	sp, sp, 32
   1692a: 82 80        	ret

000000000001692c <_ZN4core4sync6atomic11AtomicUsize5store17h93d7d9bcc4902a21E>:
   1692c: 79 71        	addi	sp, sp, -48
   1692e: 06 f4        	sd	ra, 40(sp)
   16930: 2a e4        	sd	a0, 8(sp)
   16932: 2e e8        	sd	a1, 16(sp)
   16934: a3 0f c1 00  	sb	a2, 31(sp)
   16938: 2a f0        	sd	a0, 32(sp)
   1693a: 97 00 00 00  	auipc	ra, 0
   1693e: e7 80 00 15  	jalr	336(ra)
   16942: a2 70        	ld	ra, 40(sp)
   16944: 45 61        	addi	sp, sp, 48
   16946: 82 80        	ret

0000000000016948 <_ZN4core4sync6atomic11atomic_load17hf375ffade56cac7dE>:
   16948: 29 71        	addi	sp, sp, -320
   1694a: 06 fe        	sd	ra, 312(sp)
   1694c: 2a e8        	sd	a0, 16(sp)
   1694e: a3 03 b1 02  	sb	a1, 39(sp)
   16952: 2a ea        	sd	a0, 272(sp)
   16954: 03 45 71 02  	lbu	a0, 39(sp)
   16958: 2a ec        	sd	a0, 24(sp)
   1695a: 62 65        	ld	a0, 24(sp)
   1695c: 0e 05        	slli	a0, a0, 3

000000000001695e <.Lpcrel_hi6>:
   1695e: 97 b5 ff ff  	auipc	a1, 1048571
   16962: 93 85 a5 cd  	addi	a1, a1, -806
   16966: 2e 95        	add	a0, a0, a1
   16968: 08 61        	ld	a0, 0(a0)
   1696a: 02 85        	jr	a0
   1696c: 00 00        	unimp

000000000001696e <.LBB33_3>:
   1696e: 42 65        	ld	a0, 16(sp)
   16970: 08 61        	ld	a0, 0(a0)
   16972: 2a f4        	sd	a0, 40(sp)
   16974: 99 a0        	j	0x169ba <.LBB33_7+0x10>

0000000000016976 <.Lpcrel_hi7>:
   16976: 17 b5 ff ff  	auipc	a0, 1048571
   1697a: 13 05 a5 e1  	addi	a0, a0, -486
   1697e: 2a ee        	sd	a0, 280(sp)
   16980: 05 45        	li	a0, 1
   16982: 2a f2        	sd	a0, 288(sp)
   16984: 01 45        	li	a0, 0
   16986: 3d e9        	bnez	a0, 0x169fc <.Lpcrel_hi12>
   16988: 2d a8        	j	0x169c2 <.LBB33_7+0x18>

000000000001698a <.LBB33_5>:
   1698a: 42 65        	ld	a0, 16(sp)
   1698c: 08 61        	ld	a0, 0(a0)
   1698e: 0f 00 30 02  	fence	r, rw
   16992: 2a f4        	sd	a0, 40(sp)
   16994: 1d a0        	j	0x169ba <.LBB33_7+0x10>

0000000000016996 <.Lpcrel_hi8>:
   16996: 17 b5 ff ff  	auipc	a0, 1048571
   1699a: 13 05 a5 ea  	addi	a0, a0, -342
   1699e: 2a f6        	sd	a0, 296(sp)
   169a0: 05 45        	li	a0, 1
   169a2: 2a fa        	sd	a0, 304(sp)
   169a4: 01 45        	li	a0, 0
   169a6: 4d ed        	bnez	a0, 0x16a60 <.Lpcrel_hi17>
   169a8: bd a8        	j	0x16a26 <.Lpcrel_hi13+0x12>

00000000000169aa <.LBB33_7>:
   169aa: 42 65        	ld	a0, 16(sp)
   169ac: 0f 00 30 03  	fence	rw, rw
   169b0: 08 61        	ld	a0, 0(a0)
   169b2: 0f 00 30 02  	fence	r, rw
   169b6: 2a f4        	sd	a0, 40(sp)
   169b8: 09 a0        	j	0x169ba <.LBB33_7+0x10>
   169ba: 22 75        	ld	a0, 40(sp)
   169bc: f2 70        	ld	ra, 312(sp)
   169be: 31 61        	addi	sp, sp, 320
   169c0: 82 80        	ret
   169c2: 01 45        	li	a0, 0
   169c4: 2a e2        	sd	a0, 256(sp)

00000000000169c6 <.Lpcrel_hi9>:
   169c6: 97 b5 ff ff  	auipc	a1, 1048571
   169ca: 93 85 a5 dc  	addi	a1, a1, -566
   169ce: 2e f8        	sd	a1, 48(sp)
   169d0: 85 45        	li	a1, 1
   169d2: 2e fc        	sd	a1, 56(sp)
   169d4: 12 66        	ld	a2, 256(sp)
   169d6: b2 65        	ld	a1, 264(sp)
   169d8: b2 e8        	sd	a2, 80(sp)
   169da: ae ec        	sd	a1, 88(sp)

00000000000169dc <.Lpcrel_hi10>:
   169dc: 97 b5 ff ff  	auipc	a1, 1048571
   169e0: 93 85 45 d2  	addi	a1, a1, -732
   169e4: ae e0        	sd	a1, 64(sp)
   169e6: aa e4        	sd	a0, 72(sp)

00000000000169e8 <.Lpcrel_hi11>:
   169e8: 17 b5 ff ff  	auipc	a0, 1048571
   169ec: 93 05 85 e0  	addi	a1, a0, -504
   169f0: 08 18        	addi	a0, sp, 48
   169f2: 97 10 00 00  	auipc	ra, 1
   169f6: e7 80 20 4c  	jalr	1218(ra)
   169fa: 00 00        	unimp

00000000000169fc <.Lpcrel_hi12>:
   169fc: 17 b5 ff ff  	auipc	a0, 1048571
   16a00: 93 05 45 cf  	addi	a1, a0, -780
   16a04: 88 09        	addi	a0, sp, 208
   16a06: 2a e4        	sd	a0, 8(sp)
   16a08: 05 46        	li	a2, 1
   16a0a: 97 00 00 00  	auipc	ra, 0
   16a0e: e7 80 40 c8  	jalr	-892(ra)
   16a12: 22 65        	ld	a0, 8(sp)

0000000000016a14 <.Lpcrel_hi13>:
   16a14: 97 b5 ff ff  	auipc	a1, 1048571
   16a18: 93 85 c5 d3  	addi	a1, a1, -708
   16a1c: 97 10 00 00  	auipc	ra, 1
   16a20: e7 80 80 49  	jalr	1176(ra)
   16a24: 00 00        	unimp
   16a26: 01 45        	li	a0, 0
   16a28: aa e1        	sd	a0, 192(sp)

0000000000016a2a <.Lpcrel_hi14>:
   16a2a: 97 b5 ff ff  	auipc	a1, 1048571
   16a2e: 93 85 65 e1  	addi	a1, a1, -490
   16a32: ae f0        	sd	a1, 96(sp)
   16a34: 85 45        	li	a1, 1
   16a36: ae f4        	sd	a1, 104(sp)
   16a38: 0e 66        	ld	a2, 192(sp)
   16a3a: ae 65        	ld	a1, 200(sp)
   16a3c: 32 e1        	sd	a2, 128(sp)
   16a3e: 2e e5        	sd	a1, 136(sp)

0000000000016a40 <.Lpcrel_hi15>:
   16a40: 97 b5 ff ff  	auipc	a1, 1048571
   16a44: 93 85 05 cc  	addi	a1, a1, -832
   16a48: ae f8        	sd	a1, 112(sp)
   16a4a: aa fc        	sd	a0, 120(sp)

0000000000016a4c <.Lpcrel_hi16>:
   16a4c: 17 b5 ff ff  	auipc	a0, 1048571
   16a50: 93 05 45 e0  	addi	a1, a0, -508
   16a54: 88 10        	addi	a0, sp, 96
   16a56: 97 10 00 00  	auipc	ra, 1
   16a5a: e7 80 e0 45  	jalr	1118(ra)
   16a5e: 00 00        	unimp

0000000000016a60 <.Lpcrel_hi17>:
   16a60: 17 b5 ff ff  	auipc	a0, 1048571
   16a64: 93 05 05 c9  	addi	a1, a0, -880
   16a68: 08 09        	addi	a0, sp, 144
   16a6a: 2a e0        	sd	a0, 0(sp)
   16a6c: 05 46        	li	a2, 1
   16a6e: 97 00 00 00  	auipc	ra, 0
   16a72: e7 80 00 c2  	jalr	-992(ra)
   16a76: 02 65        	ld	a0, 0(sp)

0000000000016a78 <.Lpcrel_hi18>:
   16a78: 97 b5 ff ff  	auipc	a1, 1048571
   16a7c: 93 85 85 cd  	addi	a1, a1, -808
   16a80: 97 10 00 00  	auipc	ra, 1
   16a84: e7 80 40 43  	jalr	1076(ra)
   16a88: 00 00        	unimp

0000000000016a8a <_ZN4core4sync6atomic12atomic_store17h4539e5cca515d6d7E>:
   16a8a: 4d 71        	addi	sp, sp, -336
   16a8c: 86 e6        	sd	ra, 328(sp)
   16a8e: 2e ec        	sd	a1, 24(sp)
   16a90: 2a f0        	sd	a0, 32(sp)
   16a92: a3 0b c1 02  	sb	a2, 55(sp)
   16a96: 2a ee        	sd	a0, 280(sp)
   16a98: 2e f2        	sd	a1, 288(sp)
   16a9a: 03 45 71 03  	lbu	a0, 55(sp)
   16a9e: 2a f4        	sd	a0, 40(sp)
   16aa0: 22 75        	ld	a0, 40(sp)
   16aa2: 0e 05        	slli	a0, a0, 3

0000000000016aa4 <.Lpcrel_hi19>:
   16aa4: 97 b5 ff ff  	auipc	a1, 1048571
   16aa8: 93 85 c5 bb  	addi	a1, a1, -1092
   16aac: 2e 95        	add	a0, a0, a1
   16aae: 08 61        	ld	a0, 0(a0)
   16ab0: 02 85        	jr	a0
   16ab2: 00 00        	unimp

0000000000016ab4 <.LBB34_3>:
   16ab4: 62 65        	ld	a0, 24(sp)
   16ab6: 82 75        	ld	a1, 32(sp)
   16ab8: 88 e1        	sd	a0, 0(a1)
   16aba: 89 a0        	j	0x16afc <.LBB34_7+0xc>

0000000000016abc <.LBB34_4>:
   16abc: 62 65        	ld	a0, 24(sp)
   16abe: 82 75        	ld	a1, 32(sp)
   16ac0: 0f 00 10 03  	fence	rw, w
   16ac4: 88 e1        	sd	a0, 0(a1)
   16ac6: 1d a8        	j	0x16afc <.LBB34_7+0xc>

0000000000016ac8 <.Lpcrel_hi20>:
   16ac8: 17 b5 ff ff  	auipc	a0, 1048571
   16acc: 13 05 05 dd  	addi	a0, a0, -560
   16ad0: 2a f6        	sd	a0, 296(sp)
   16ad2: 05 45        	li	a0, 1
   16ad4: 2a fa        	sd	a0, 304(sp)
   16ad6: 01 45        	li	a0, 0
   16ad8: 35 e1        	bnez	a0, 0x16b3c <.Lpcrel_hi25>
   16ada: 25 a0        	j	0x16b02 <.LBB34_7+0x12>

0000000000016adc <.Lpcrel_hi21>:
   16adc: 17 b5 ff ff  	auipc	a0, 1048571
   16ae0: 13 05 c5 e1  	addi	a0, a0, -484
   16ae4: 2a fe        	sd	a0, 312(sp)
   16ae6: 05 45        	li	a0, 1
   16ae8: aa e2        	sd	a0, 320(sp)
   16aea: 01 45        	li	a0, 0
   16aec: 55 e9        	bnez	a0, 0x16ba0 <.Lpcrel_hi30>
   16aee: a5 a8        	j	0x16b66 <.Lpcrel_hi26+0x12>

0000000000016af0 <.LBB34_7>:
   16af0: 62 65        	ld	a0, 24(sp)
   16af2: 82 75        	ld	a1, 32(sp)
   16af4: 0f 00 10 03  	fence	rw, w
   16af8: 88 e1        	sd	a0, 0(a1)
   16afa: 09 a0        	j	0x16afc <.LBB34_7+0xc>
   16afc: b6 60        	ld	ra, 328(sp)
   16afe: 71 61        	addi	sp, sp, 336
   16b00: 82 80        	ret
   16b02: 01 45        	li	a0, 0
   16b04: 2a e6        	sd	a0, 264(sp)

0000000000016b06 <.Lpcrel_hi22>:
   16b06: 97 b5 ff ff  	auipc	a1, 1048571
   16b0a: 93 85 25 d9  	addi	a1, a1, -622
   16b0e: 2e fc        	sd	a1, 56(sp)
   16b10: 85 45        	li	a1, 1
   16b12: ae e0        	sd	a1, 64(sp)
   16b14: 32 66        	ld	a2, 264(sp)
   16b16: d2 65        	ld	a1, 272(sp)
   16b18: b2 ec        	sd	a2, 88(sp)
   16b1a: ae f0        	sd	a1, 96(sp)

0000000000016b1c <.Lpcrel_hi23>:
   16b1c: 97 b5 ff ff  	auipc	a1, 1048571
   16b20: 93 85 45 be  	addi	a1, a1, -1052
   16b24: ae e4        	sd	a1, 72(sp)
   16b26: aa e8        	sd	a0, 80(sp)

0000000000016b28 <.Lpcrel_hi24>:
   16b28: 17 b5 ff ff  	auipc	a0, 1048571
   16b2c: 93 05 05 d8  	addi	a1, a0, -640
   16b30: 28 18        	addi	a0, sp, 56
   16b32: 97 10 00 00  	auipc	ra, 1
   16b36: e7 80 20 38  	jalr	898(ra)
   16b3a: 00 00        	unimp

0000000000016b3c <.Lpcrel_hi25>:
   16b3c: 17 b5 ff ff  	auipc	a0, 1048571
   16b40: 93 05 45 bb  	addi	a1, a0, -1100
   16b44: a8 09        	addi	a0, sp, 216
   16b46: 2a e8        	sd	a0, 16(sp)
   16b48: 05 46        	li	a2, 1
   16b4a: 97 00 00 00  	auipc	ra, 0
   16b4e: e7 80 40 b4  	jalr	-1212(ra)
   16b52: 42 65        	ld	a0, 16(sp)

0000000000016b54 <.Lpcrel_hi26>:
   16b54: 97 b5 ff ff  	auipc	a1, 1048571
   16b58: 93 85 c5 bf  	addi	a1, a1, -1028
   16b5c: 97 10 00 00  	auipc	ra, 1
   16b60: e7 80 80 35  	jalr	856(ra)
   16b64: 00 00        	unimp
   16b66: 01 45        	li	a0, 0
   16b68: aa e5        	sd	a0, 200(sp)

0000000000016b6a <.Lpcrel_hi27>:
   16b6a: 97 b5 ff ff  	auipc	a1, 1048571
   16b6e: 93 85 e5 d8  	addi	a1, a1, -626
   16b72: ae f4        	sd	a1, 104(sp)
   16b74: 85 45        	li	a1, 1
   16b76: ae f8        	sd	a1, 112(sp)
   16b78: 2e 66        	ld	a2, 200(sp)
   16b7a: ce 65        	ld	a1, 208(sp)
   16b7c: 32 e5        	sd	a2, 136(sp)
   16b7e: 2e e9        	sd	a1, 144(sp)

0000000000016b80 <.Lpcrel_hi28>:
   16b80: 97 b5 ff ff  	auipc	a1, 1048571
   16b84: 93 85 05 b8  	addi	a1, a1, -1152
   16b88: ae fc        	sd	a1, 120(sp)
   16b8a: 2a e1        	sd	a0, 128(sp)

0000000000016b8c <.Lpcrel_hi29>:
   16b8c: 17 b5 ff ff  	auipc	a0, 1048571
   16b90: 93 05 c5 d7  	addi	a1, a0, -644
   16b94: a8 10        	addi	a0, sp, 104
   16b96: 97 10 00 00  	auipc	ra, 1
   16b9a: e7 80 e0 31  	jalr	798(ra)
   16b9e: 00 00        	unimp

0000000000016ba0 <.Lpcrel_hi30>:
   16ba0: 17 b5 ff ff  	auipc	a0, 1048571
   16ba4: 93 05 05 b5  	addi	a1, a0, -1200
   16ba8: 28 09        	addi	a0, sp, 152
   16baa: 2a e4        	sd	a0, 8(sp)
   16bac: 05 46        	li	a2, 1
   16bae: 97 00 00 00  	auipc	ra, 0
   16bb2: e7 80 00 ae  	jalr	-1312(ra)
   16bb6: 22 65        	ld	a0, 8(sp)

0000000000016bb8 <.Lpcrel_hi31>:
   16bb8: 97 b5 ff ff  	auipc	a1, 1048571
   16bbc: 93 85 85 b9  	addi	a1, a1, -1128
   16bc0: 97 10 00 00  	auipc	ra, 1
   16bc4: e7 80 40 2f  	jalr	756(ra)
   16bc8: 00 00        	unimp

0000000000016bca <_ZN4core4sync6atomic23atomic_compare_exchange17h0181f2f0199bfa73E>:
   16bca: 21 71        	addi	sp, sp, -448
   16bcc: 06 ff        	sd	ra, 440(sp)
   16bce: b2 e4        	sd	a2, 72(sp)
   16bd0: ae e8        	sd	a1, 80(sp)
   16bd2: aa ec        	sd	a0, 88(sp)
   16bd4: 23 07 d1 06  	sb	a3, 110(sp)
   16bd8: a3 07 e1 06  	sb	a4, 111(sp)
   16bdc: aa fa        	sd	a0, 368(sp)
   16bde: ae fe        	sd	a1, 376(sp)
   16be0: 32 e3        	sd	a2, 384(sp)
   16be2: 03 45 e1 06  	lbu	a0, 110(sp)
   16be6: aa f0        	sd	a0, 96(sp)
   16be8: 06 75        	ld	a0, 96(sp)
   16bea: 0e 05        	slli	a0, a0, 3

0000000000016bec <.Lpcrel_hi32>:
   16bec: 97 b5 ff ff  	auipc	a1, 1048571
   16bf0: 93 85 c5 a9  	addi	a1, a1, -1380
   16bf4: 2e 95        	add	a0, a0, a1
   16bf6: 08 61        	ld	a0, 0(a0)
   16bf8: 02 85        	jr	a0
   16bfa: 00 00        	unimp

0000000000016bfc <.LBB35_3>:
   16bfc: 03 45 f1 06  	lbu	a0, 111(sp)
   16c00: aa e0        	sd	a0, 64(sp)
   16c02: 55 c1        	beqz	a0, 0x16ca6 <.LBB35_15+0x2c>
   16c04: 09 a0        	j	0x16c06 <.LBB35_3+0xa>
   16c06: 06 65        	ld	a0, 64(sp)
   16c08: 89 45        	li	a1, 2
   16c0a: 63 0f b5 0a  	beq	a0, a1, 0x16cc8 <.LBB35_15+0x4e>
   16c0e: 09 a0        	j	0x16c10 <.LBB35_3+0x14>
   16c10: 06 65        	ld	a0, 64(sp)
   16c12: 91 45        	li	a1, 4
   16c14: 63 0b b5 0c  	beq	a0, a1, 0x16cea <.LBB35_15+0x70>
   16c18: 49 a0        	j	0x16c9a <.LBB35_15+0x20>

0000000000016c1a <.LBB35_6>:
   16c1a: 03 45 f1 06  	lbu	a0, 111(sp)
   16c1e: 2a fc        	sd	a0, 56(sp)
   16c20: 63 02 05 10  	beqz	a0, 0x16d24 <.LBB35_15+0xaa>
   16c24: 09 a0        	j	0x16c26 <.LBB35_6+0xc>
   16c26: 62 75        	ld	a0, 56(sp)
   16c28: 89 45        	li	a1, 2
   16c2a: 63 0e b5 10  	beq	a0, a1, 0x16d46 <.LBB35_15+0xcc>
   16c2e: 09 a0        	j	0x16c30 <.LBB35_6+0x16>
   16c30: 62 75        	ld	a0, 56(sp)
   16c32: 91 45        	li	a1, 4
   16c34: 63 0a b5 12  	beq	a0, a1, 0x16d68 <.LBB35_15+0xee>
   16c38: 8d a0        	j	0x16c9a <.LBB35_15+0x20>

0000000000016c3a <.LBB35_9>:
   16c3a: 03 45 f1 06  	lbu	a0, 111(sp)
   16c3e: 2a f8        	sd	a0, 48(sp)
   16c40: 63 05 05 14  	beqz	a0, 0x16d8a <.LBB35_15+0x110>
   16c44: 09 a0        	j	0x16c46 <.LBB35_9+0xc>
   16c46: 42 75        	ld	a0, 48(sp)
   16c48: 89 45        	li	a1, 2
   16c4a: 63 01 b5 16  	beq	a0, a1, 0x16dac <.LBB35_15+0x132>
   16c4e: 09 a0        	j	0x16c50 <.LBB35_9+0x16>
   16c50: 42 75        	ld	a0, 48(sp)
   16c52: 91 45        	li	a1, 4
   16c54: 63 0d b5 16  	beq	a0, a1, 0x16dce <.LBB35_15+0x154>
   16c58: 89 a0        	j	0x16c9a <.LBB35_15+0x20>

0000000000016c5a <.LBB35_12>:
   16c5a: 03 45 f1 06  	lbu	a0, 111(sp)
   16c5e: 2a f4        	sd	a0, 40(sp)
   16c60: 63 08 05 18  	beqz	a0, 0x16df0 <.LBB35_15+0x176>
   16c64: 09 a0        	j	0x16c66 <.LBB35_12+0xc>
   16c66: 22 75        	ld	a0, 40(sp)
   16c68: 89 45        	li	a1, 2
   16c6a: 63 04 b5 1a  	beq	a0, a1, 0x16e12 <.LBB35_15+0x198>
   16c6e: 09 a0        	j	0x16c70 <.LBB35_12+0x16>
   16c70: 22 75        	ld	a0, 40(sp)
   16c72: 91 45        	li	a1, 4
   16c74: 63 00 b5 1c  	beq	a0, a1, 0x16e34 <.LBB35_15+0x1ba>
   16c78: 0d a0        	j	0x16c9a <.LBB35_15+0x20>

0000000000016c7a <.LBB35_15>:
   16c7a: 03 45 f1 06  	lbu	a0, 111(sp)
   16c7e: 2a f0        	sd	a0, 32(sp)
   16c80: 63 0b 05 1c  	beqz	a0, 0x16e56 <.LBB35_15+0x1dc>
   16c84: 09 a0        	j	0x16c86 <.LBB35_15+0xc>
   16c86: 02 75        	ld	a0, 32(sp)
   16c88: 89 45        	li	a1, 2
   16c8a: 63 07 b5 1e  	beq	a0, a1, 0x16e78 <.LBB35_15+0x1fe>
   16c8e: 09 a0        	j	0x16c90 <.LBB35_15+0x16>
   16c90: 02 75        	ld	a0, 32(sp)
   16c92: 91 45        	li	a1, 4
   16c94: 63 03 b5 20  	beq	a0, a1, 0x16e9a <.LBB35_15+0x220>
   16c98: 09 a0        	j	0x16c9a <.LBB35_15+0x20>
   16c9a: 03 45 f1 06  	lbu	a0, 111(sp)
   16c9e: 85 45        	li	a1, 1
   16ca0: 63 0d b5 22  	beq	a0, a1, 0x16eda <.Lpcrel_hi33>
   16ca4: a9 a4        	j	0x16eee <.Lpcrel_hi34>
   16ca6: 46 65        	ld	a0, 80(sp)
   16ca8: e6 66        	ld	a3, 88(sp)
   16caa: 26 67        	ld	a4, 72(sp)
   16cac: af b5 06 10  	lr.d	a1, (a3)
   16cb0: 63 95 a5 00  	bne	a1, a0, 0x16cba <.LBB35_15+0x40>
   16cb4: 2f b6 e6 18  	sc.d	a2, a4, (a3)
   16cb8: 75 fa        	bnez	a2, 0x16cac <.LBB35_15+0x32>
   16cba: 2d 8d        	xor	a0, a0, a1
   16cbc: 13 35 15 00  	seqz	a0, a0
   16cc0: 2e e1        	sd	a1, 128(sp)
   16cc2: 23 04 a1 08  	sb	a0, 136(sp)
   16cc6: 99 a0        	j	0x16d0c <.LBB35_15+0x92>
   16cc8: 46 65        	ld	a0, 80(sp)
   16cca: e6 66        	ld	a3, 88(sp)
   16ccc: 26 67        	ld	a4, 72(sp)
   16cce: af b5 06 14  	lr.d.aq	a1, (a3)
   16cd2: 63 95 a5 00  	bne	a1, a0, 0x16cdc <.LBB35_15+0x62>
   16cd6: 2f b6 e6 18  	sc.d	a2, a4, (a3)
   16cda: 75 fa        	bnez	a2, 0x16cce <.LBB35_15+0x54>
   16cdc: 2d 8d        	xor	a0, a0, a1
   16cde: 13 35 15 00  	seqz	a0, a0
   16ce2: 2e e1        	sd	a1, 128(sp)
   16ce4: 23 04 a1 08  	sb	a0, 136(sp)
   16ce8: 15 a0        	j	0x16d0c <.LBB35_15+0x92>
   16cea: 46 65        	ld	a0, 80(sp)
   16cec: e6 66        	ld	a3, 88(sp)
   16cee: 26 67        	ld	a4, 72(sp)
   16cf0: af b5 06 16  	lr.d.aqrl	a1, (a3)
   16cf4: 63 95 a5 00  	bne	a1, a0, 0x16cfe <.LBB35_15+0x84>
   16cf8: 2f b6 e6 1a  	sc.d.rl	a2, a4, (a3)
   16cfc: 75 fa        	bnez	a2, 0x16cf0 <.LBB35_15+0x76>
   16cfe: 2d 8d        	xor	a0, a0, a1
   16d00: 13 35 15 00  	seqz	a0, a0
   16d04: 2e e1        	sd	a1, 128(sp)
   16d06: 23 04 a1 08  	sb	a0, 136(sp)
   16d0a: 09 a0        	j	0x16d0c <.LBB35_15+0x92>
   16d0c: 0a 65        	ld	a0, 128(sp)
   16d0e: 2a ec        	sd	a0, 24(sp)
   16d10: 2a e7        	sd	a0, 392(sp)
   16d12: 83 45 81 08  	lbu	a1, 136(sp)
   16d16: 13 f5 15 00  	andi	a0, a1, 1
   16d1a: a3 0b b1 18  	sb	a1, 407(sp)
   16d1e: 63 14 05 1a  	bnez	a0, 0x16ec6 <.LBB35_15+0x24c>
   16d22: 69 aa        	j	0x16ebc <.LBB35_15+0x242>
   16d24: 46 65        	ld	a0, 80(sp)
   16d26: e6 66        	ld	a3, 88(sp)
   16d28: 26 67        	ld	a4, 72(sp)
   16d2a: af b5 06 10  	lr.d	a1, (a3)
   16d2e: 63 95 a5 00  	bne	a1, a0, 0x16d38 <.LBB35_15+0xbe>
   16d32: 2f b6 e6 1a  	sc.d.rl	a2, a4, (a3)
   16d36: 75 fa        	bnez	a2, 0x16d2a <.LBB35_15+0xb0>
   16d38: 2d 8d        	xor	a0, a0, a1
   16d3a: 13 35 15 00  	seqz	a0, a0
   16d3e: 2e e1        	sd	a1, 128(sp)
   16d40: 23 04 a1 08  	sb	a0, 136(sp)
   16d44: e1 b7        	j	0x16d0c <.LBB35_15+0x92>
   16d46: 46 65        	ld	a0, 80(sp)
   16d48: e6 66        	ld	a3, 88(sp)
   16d4a: 26 67        	ld	a4, 72(sp)
   16d4c: af b5 06 14  	lr.d.aq	a1, (a3)
   16d50: 63 95 a5 00  	bne	a1, a0, 0x16d5a <.LBB35_15+0xe0>
   16d54: 2f b6 e6 1a  	sc.d.rl	a2, a4, (a3)
   16d58: 75 fa        	bnez	a2, 0x16d4c <.LBB35_15+0xd2>
   16d5a: 2d 8d        	xor	a0, a0, a1
   16d5c: 13 35 15 00  	seqz	a0, a0
   16d60: 2e e1        	sd	a1, 128(sp)
   16d62: 23 04 a1 08  	sb	a0, 136(sp)
   16d66: 5d b7        	j	0x16d0c <.LBB35_15+0x92>
   16d68: 46 65        	ld	a0, 80(sp)
   16d6a: e6 66        	ld	a3, 88(sp)
   16d6c: 26 67        	ld	a4, 72(sp)
   16d6e: af b5 06 16  	lr.d.aqrl	a1, (a3)
   16d72: 63 95 a5 00  	bne	a1, a0, 0x16d7c <.LBB35_15+0x102>
   16d76: 2f b6 e6 1a  	sc.d.rl	a2, a4, (a3)
   16d7a: 75 fa        	bnez	a2, 0x16d6e <.LBB35_15+0xf4>
   16d7c: 2d 8d        	xor	a0, a0, a1
   16d7e: 13 35 15 00  	seqz	a0, a0
   16d82: 2e e1        	sd	a1, 128(sp)
   16d84: 23 04 a1 08  	sb	a0, 136(sp)
   16d88: 51 b7        	j	0x16d0c <.LBB35_15+0x92>
   16d8a: 46 65        	ld	a0, 80(sp)
   16d8c: e6 66        	ld	a3, 88(sp)
   16d8e: 26 67        	ld	a4, 72(sp)
   16d90: af b5 06 14  	lr.d.aq	a1, (a3)
   16d94: 63 95 a5 00  	bne	a1, a0, 0x16d9e <.LBB35_15+0x124>
   16d98: 2f b6 e6 18  	sc.d	a2, a4, (a3)
   16d9c: 75 fa        	bnez	a2, 0x16d90 <.LBB35_15+0x116>
   16d9e: 2d 8d        	xor	a0, a0, a1
   16da0: 13 35 15 00  	seqz	a0, a0
   16da4: 2e e1        	sd	a1, 128(sp)
   16da6: 23 04 a1 08  	sb	a0, 136(sp)
   16daa: 8d b7        	j	0x16d0c <.LBB35_15+0x92>
   16dac: 46 65        	ld	a0, 80(sp)
   16dae: e6 66        	ld	a3, 88(sp)
   16db0: 26 67        	ld	a4, 72(sp)
   16db2: af b5 06 14  	lr.d.aq	a1, (a3)
   16db6: 63 95 a5 00  	bne	a1, a0, 0x16dc0 <.LBB35_15+0x146>
   16dba: 2f b6 e6 18  	sc.d	a2, a4, (a3)
   16dbe: 75 fa        	bnez	a2, 0x16db2 <.LBB35_15+0x138>
   16dc0: 2d 8d        	xor	a0, a0, a1
   16dc2: 13 35 15 00  	seqz	a0, a0
   16dc6: 2e e1        	sd	a1, 128(sp)
   16dc8: 23 04 a1 08  	sb	a0, 136(sp)
   16dcc: 81 b7        	j	0x16d0c <.LBB35_15+0x92>
   16dce: 46 65        	ld	a0, 80(sp)
   16dd0: e6 66        	ld	a3, 88(sp)
   16dd2: 26 67        	ld	a4, 72(sp)
   16dd4: af b5 06 16  	lr.d.aqrl	a1, (a3)
   16dd8: 63 95 a5 00  	bne	a1, a0, 0x16de2 <.LBB35_15+0x168>
   16ddc: 2f b6 e6 1a  	sc.d.rl	a2, a4, (a3)
   16de0: 75 fa        	bnez	a2, 0x16dd4 <.LBB35_15+0x15a>
   16de2: 2d 8d        	xor	a0, a0, a1
   16de4: 13 35 15 00  	seqz	a0, a0
   16de8: 2e e1        	sd	a1, 128(sp)
   16dea: 23 04 a1 08  	sb	a0, 136(sp)
   16dee: 39 bf        	j	0x16d0c <.LBB35_15+0x92>
   16df0: 46 65        	ld	a0, 80(sp)
   16df2: e6 66        	ld	a3, 88(sp)
   16df4: 26 67        	ld	a4, 72(sp)
   16df6: af b5 06 14  	lr.d.aq	a1, (a3)
   16dfa: 63 95 a5 00  	bne	a1, a0, 0x16e04 <.LBB35_15+0x18a>
   16dfe: 2f b6 e6 1a  	sc.d.rl	a2, a4, (a3)
   16e02: 75 fa        	bnez	a2, 0x16df6 <.LBB35_15+0x17c>
   16e04: 2d 8d        	xor	a0, a0, a1
   16e06: 13 35 15 00  	seqz	a0, a0
   16e0a: 2e e1        	sd	a1, 128(sp)
   16e0c: 23 04 a1 08  	sb	a0, 136(sp)
   16e10: f5 bd        	j	0x16d0c <.LBB35_15+0x92>
   16e12: 46 65        	ld	a0, 80(sp)
   16e14: e6 66        	ld	a3, 88(sp)
   16e16: 26 67        	ld	a4, 72(sp)
   16e18: af b5 06 14  	lr.d.aq	a1, (a3)
   16e1c: 63 95 a5 00  	bne	a1, a0, 0x16e26 <.LBB35_15+0x1ac>
   16e20: 2f b6 e6 1a  	sc.d.rl	a2, a4, (a3)
   16e24: 75 fa        	bnez	a2, 0x16e18 <.LBB35_15+0x19e>
   16e26: 2d 8d        	xor	a0, a0, a1
   16e28: 13 35 15 00  	seqz	a0, a0
   16e2c: 2e e1        	sd	a1, 128(sp)
   16e2e: 23 04 a1 08  	sb	a0, 136(sp)
   16e32: e9 bd        	j	0x16d0c <.LBB35_15+0x92>
   16e34: 46 65        	ld	a0, 80(sp)
   16e36: e6 66        	ld	a3, 88(sp)
   16e38: 26 67        	ld	a4, 72(sp)
   16e3a: af b5 06 16  	lr.d.aqrl	a1, (a3)
   16e3e: 63 95 a5 00  	bne	a1, a0, 0x16e48 <.LBB35_15+0x1ce>
   16e42: 2f b6 e6 1a  	sc.d.rl	a2, a4, (a3)
   16e46: 75 fa        	bnez	a2, 0x16e3a <.LBB35_15+0x1c0>
   16e48: 2d 8d        	xor	a0, a0, a1
   16e4a: 13 35 15 00  	seqz	a0, a0
   16e4e: 2e e1        	sd	a1, 128(sp)
   16e50: 23 04 a1 08  	sb	a0, 136(sp)
   16e54: 65 bd        	j	0x16d0c <.LBB35_15+0x92>
   16e56: 46 65        	ld	a0, 80(sp)
   16e58: e6 66        	ld	a3, 88(sp)
   16e5a: 26 67        	ld	a4, 72(sp)
   16e5c: af b5 06 16  	lr.d.aqrl	a1, (a3)
   16e60: 63 95 a5 00  	bne	a1, a0, 0x16e6a <.LBB35_15+0x1f0>
   16e64: 2f b6 e6 1a  	sc.d.rl	a2, a4, (a3)
   16e68: 75 fa        	bnez	a2, 0x16e5c <.LBB35_15+0x1e2>
   16e6a: 2d 8d        	xor	a0, a0, a1
   16e6c: 13 35 15 00  	seqz	a0, a0
   16e70: 2e e1        	sd	a1, 128(sp)
   16e72: 23 04 a1 08  	sb	a0, 136(sp)
   16e76: 59 bd        	j	0x16d0c <.LBB35_15+0x92>
   16e78: 46 65        	ld	a0, 80(sp)
   16e7a: e6 66        	ld	a3, 88(sp)
   16e7c: 26 67        	ld	a4, 72(sp)
   16e7e: af b5 06 16  	lr.d.aqrl	a1, (a3)
   16e82: 63 95 a5 00  	bne	a1, a0, 0x16e8c <.LBB35_15+0x212>
   16e86: 2f b6 e6 1a  	sc.d.rl	a2, a4, (a3)
   16e8a: 75 fa        	bnez	a2, 0x16e7e <.LBB35_15+0x204>
   16e8c: 2d 8d        	xor	a0, a0, a1
   16e8e: 13 35 15 00  	seqz	a0, a0
   16e92: 2e e1        	sd	a1, 128(sp)
   16e94: 23 04 a1 08  	sb	a0, 136(sp)
   16e98: 95 bd        	j	0x16d0c <.LBB35_15+0x92>
   16e9a: 46 65        	ld	a0, 80(sp)
   16e9c: e6 66        	ld	a3, 88(sp)
   16e9e: 26 67        	ld	a4, 72(sp)
   16ea0: af b5 06 16  	lr.d.aqrl	a1, (a3)
   16ea4: 63 95 a5 00  	bne	a1, a0, 0x16eae <.LBB35_15+0x234>
   16ea8: 2f b6 e6 1a  	sc.d.rl	a2, a4, (a3)
   16eac: 75 fa        	bnez	a2, 0x16ea0 <.LBB35_15+0x226>
   16eae: 2d 8d        	xor	a0, a0, a1
   16eb0: 13 35 15 00  	seqz	a0, a0
   16eb4: 2e e1        	sd	a1, 128(sp)
   16eb6: 23 04 a1 08  	sb	a0, 136(sp)
   16eba: 89 bd        	j	0x16d0c <.LBB35_15+0x92>
   16ebc: 62 65        	ld	a0, 24(sp)
   16ebe: aa fc        	sd	a0, 120(sp)
   16ec0: 05 45        	li	a0, 1
   16ec2: aa f8        	sd	a0, 112(sp)
   16ec4: 31 a0        	j	0x16ed0 <.LBB35_15+0x256>
   16ec6: 62 65        	ld	a0, 24(sp)
   16ec8: aa fc        	sd	a0, 120(sp)
   16eca: 01 45        	li	a0, 0
   16ecc: aa f8        	sd	a0, 112(sp)
   16ece: 09 a0        	j	0x16ed0 <.LBB35_15+0x256>
   16ed0: 46 75        	ld	a0, 112(sp)
   16ed2: e6 75        	ld	a1, 120(sp)
   16ed4: fa 70        	ld	ra, 440(sp)
   16ed6: 39 61        	addi	sp, sp, 448
   16ed8: 82 80        	ret

0000000000016eda <.Lpcrel_hi33>:
   16eda: 17 b5 ff ff  	auipc	a0, 1048571
   16ede: 13 05 e5 a7  	addi	a0, a0, -1410
   16ee2: 2a ef        	sd	a0, 408(sp)
   16ee4: 05 45        	li	a0, 1
   16ee6: 2a f3        	sd	a0, 416(sp)
   16ee8: 01 45        	li	a0, 0
   16eea: 29 e9        	bnez	a0, 0x16f3c <.Lpcrel_hi38>
   16eec: 19 a8        	j	0x16f02 <.Lpcrel_hi34+0x14>

0000000000016eee <.Lpcrel_hi34>:
   16eee: 17 b5 ff ff  	auipc	a0, 1048571
   16ef2: 13 05 25 ad  	addi	a0, a0, -1326
   16ef6: 2a f7        	sd	a0, 424(sp)
   16ef8: 05 45        	li	a0, 1
   16efa: 2a fb        	sd	a0, 432(sp)
   16efc: 01 45        	li	a0, 0
   16efe: 4d e1        	bnez	a0, 0x16fa0 <.Lpcrel_hi43>
   16f00: 9d a0        	j	0x16f66 <.Lpcrel_hi39+0x12>
   16f02: 01 45        	li	a0, 0
   16f04: 2a f2        	sd	a0, 288(sp)

0000000000016f06 <.Lpcrel_hi35>:
   16f06: 97 b5 ff ff  	auipc	a1, 1048571
   16f0a: 93 85 25 a5  	addi	a1, a1, -1454
   16f0e: ae e1        	sd	a1, 192(sp)
   16f10: 85 45        	li	a1, 1
   16f12: ae e5        	sd	a1, 200(sp)
   16f14: 12 76        	ld	a2, 288(sp)
   16f16: b2 75        	ld	a1, 296(sp)
   16f18: b2 f1        	sd	a2, 224(sp)
   16f1a: ae f5        	sd	a1, 232(sp)

0000000000016f1c <.Lpcrel_hi36>:
   16f1c: 97 a5 ff ff  	auipc	a1, 1048570
   16f20: 93 85 45 7e  	addi	a1, a1, 2020
   16f24: ae e9        	sd	a1, 208(sp)
   16f26: aa ed        	sd	a0, 216(sp)

0000000000016f28 <.Lpcrel_hi37>:
   16f28: 17 b5 ff ff  	auipc	a0, 1048571
   16f2c: 93 05 05 a4  	addi	a1, a0, -1472
   16f30: 88 01        	addi	a0, sp, 192
   16f32: 97 10 00 00  	auipc	ra, 1
   16f36: e7 80 20 f8  	jalr	-126(ra)
   16f3a: 00 00        	unimp

0000000000016f3c <.Lpcrel_hi38>:
   16f3c: 17 a5 ff ff  	auipc	a0, 1048570
   16f40: 93 05 45 7b  	addi	a1, a0, 1972
   16f44: 88 19        	addi	a0, sp, 240
   16f46: 2a e8        	sd	a0, 16(sp)
   16f48: 05 46        	li	a2, 1
   16f4a: 97 f0 ff ff  	auipc	ra, 1048575
   16f4e: e7 80 40 74  	jalr	1860(ra)
   16f52: 42 65        	ld	a0, 16(sp)

0000000000016f54 <.Lpcrel_hi39>:
   16f54: 97 a5 ff ff  	auipc	a1, 1048570
   16f58: 93 85 c5 7f  	addi	a1, a1, 2044
   16f5c: 97 10 00 00  	auipc	ra, 1
   16f60: e7 80 80 f5  	jalr	-168(ra)
   16f64: 00 00        	unimp
   16f66: 01 45        	li	a0, 0
   16f68: aa f2        	sd	a0, 352(sp)

0000000000016f6a <.Lpcrel_hi40>:
   16f6a: 97 b5 ff ff  	auipc	a1, 1048571
   16f6e: 93 85 65 a5  	addi	a1, a1, -1450
   16f72: 2e e9        	sd	a1, 144(sp)
   16f74: 85 45        	li	a1, 1
   16f76: 2e ed        	sd	a1, 152(sp)
   16f78: 16 76        	ld	a2, 352(sp)
   16f7a: b6 75        	ld	a1, 360(sp)
   16f7c: 32 f9        	sd	a2, 176(sp)
   16f7e: 2e fd        	sd	a1, 184(sp)

0000000000016f80 <.Lpcrel_hi41>:
   16f80: 97 a5 ff ff  	auipc	a1, 1048570
   16f84: 93 85 05 78  	addi	a1, a1, 1920
   16f88: 2e f1        	sd	a1, 160(sp)
   16f8a: 2a f5        	sd	a0, 168(sp)

0000000000016f8c <.Lpcrel_hi42>:
   16f8c: 17 b5 ff ff  	auipc	a0, 1048571
   16f90: 93 05 45 a4  	addi	a1, a0, -1468
   16f94: 08 09        	addi	a0, sp, 144
   16f96: 97 10 00 00  	auipc	ra, 1
   16f9a: e7 80 e0 f1  	jalr	-226(ra)
   16f9e: 00 00        	unimp

0000000000016fa0 <.Lpcrel_hi43>:
   16fa0: 17 a5 ff ff  	auipc	a0, 1048570
   16fa4: 93 05 05 75  	addi	a1, a0, 1872
   16fa8: 08 1a        	addi	a0, sp, 304
   16faa: 2a e4        	sd	a0, 8(sp)
   16fac: 05 46        	li	a2, 1
   16fae: 97 f0 ff ff  	auipc	ra, 1048575
   16fb2: e7 80 00 6e  	jalr	1760(ra)
   16fb6: 22 65        	ld	a0, 8(sp)

0000000000016fb8 <.Lpcrel_hi44>:
   16fb8: 97 a5 ff ff  	auipc	a1, 1048570
   16fbc: 93 85 85 79  	addi	a1, a1, 1944
   16fc0: 97 10 00 00  	auipc	ra, 1
   16fc4: e7 80 40 ef  	jalr	-268(ra)
   16fc8: 00 00        	unimp

0000000000016fca <_ZN4core5panic8location8Location4file17hcebfac98bb5c94ebE>:
   16fca: 41 11        	addi	sp, sp, -16
   16fcc: aa 85        	mv	a1, a0
   16fce: 2e e4        	sd	a1, 8(sp)
   16fd0: 88 61        	ld	a0, 0(a1)
   16fd2: 8c 65        	ld	a1, 8(a1)
   16fd4: 41 01        	addi	sp, sp, 16
   16fd6: 82 80        	ret

0000000000016fd8 <_ZN4core5panic8location8Location4line17h5404b606e0cce232E>:
   16fd8: 41 11        	addi	sp, sp, -16
   16fda: 2a e4        	sd	a0, 8(sp)
   16fdc: 08 49        	lw	a0, 16(a0)
   16fde: 41 01        	addi	sp, sp, 16
   16fe0: 82 80        	ret

0000000000016fe2 <_ZN4core5panic8location8Location6caller17ha2dfc2b1c216ffe6E>:
   16fe2: 41 11        	addi	sp, sp, -16
   16fe4: 2a e4        	sd	a0, 8(sp)
   16fe6: 22 65        	ld	a0, 8(sp)
   16fe8: 41 01        	addi	sp, sp, 16
   16fea: 82 80        	ret

0000000000016fec <_ZN4core5slice29_$LT$impl$u20$$u5b$T$u5d$$GT$4iter17h7e5ec1dfd8284646E>:
   16fec: 1d 71        	addi	sp, sp, -96
   16fee: 2e e0        	sd	a1, 0(sp)
   16ff0: 2a e4        	sd	a0, 8(sp)
   16ff2: 2a f8        	sd	a0, 48(sp)
   16ff4: 2e fc        	sd	a1, 56(sp)
   16ff6: aa e0        	sd	a0, 64(sp)
   16ff8: 01 45        	li	a0, 0
   16ffa: 09 e9        	bnez	a0, 0x1700c <_ZN4core5slice29_$LT$impl$u20$$u5b$T$u5d$$GT$4iter17h7e5ec1dfd8284646E+0x20>
   16ffc: 09 a0        	j	0x16ffe <_ZN4core5slice29_$LT$impl$u20$$u5b$T$u5d$$GT$4iter17h7e5ec1dfd8284646E+0x12>
   16ffe: 22 65        	ld	a0, 8(sp)
   17000: 82 65        	ld	a1, 0(sp)
   17002: ae e4        	sd	a1, 72(sp)
   17004: 92 05        	slli	a1, a1, 4
   17006: 2e 95        	add	a0, a0, a1
   17008: 2a f0        	sd	a0, 32(sp)
   1700a: 29 a0        	j	0x17014 <_ZN4core5slice29_$LT$impl$u20$$u5b$T$u5d$$GT$4iter17h7e5ec1dfd8284646E+0x28>
   1700c: 02 65        	ld	a0, 0(sp)
   1700e: aa e8        	sd	a0, 80(sp)
   17010: 2a f0        	sd	a0, 32(sp)
   17012: 09 a0        	j	0x17014 <_ZN4core5slice29_$LT$impl$u20$$u5b$T$u5d$$GT$4iter17h7e5ec1dfd8284646E+0x28>
   17014: 22 65        	ld	a0, 8(sp)
   17016: aa ec        	sd	a0, 88(sp)
   17018: 2a f4        	sd	a0, 40(sp)
   1701a: 02 75        	ld	a0, 32(sp)
   1701c: a2 75        	ld	a1, 40(sp)
   1701e: 2e e8        	sd	a1, 16(sp)
   17020: 2a ec        	sd	a0, 24(sp)
   17022: 42 65        	ld	a0, 16(sp)
   17024: e2 65        	ld	a1, 24(sp)
   17026: 25 61        	addi	sp, sp, 96
   17028: 82 80        	ret

000000000001702a <_ZN4core5slice4iter87_$LT$impl$u20$core..iter..traits..collect..IntoIterator$u20$for$u20$$RF$$u5b$T$u5d$$GT$9into_iter17ha79dbdeb47511733E>:
   1702a: 1d 71        	addi	sp, sp, -96
   1702c: 2e e0        	sd	a1, 0(sp)
   1702e: 2a e4        	sd	a0, 8(sp)
   17030: 2a f8        	sd	a0, 48(sp)
   17032: 2e fc        	sd	a1, 56(sp)
   17034: aa e0        	sd	a0, 64(sp)
   17036: 01 45        	li	a0, 0
   17038: 01 e9        	bnez	a0, 0x17048 <_ZN4core5slice4iter87_$LT$impl$u20$core..iter..traits..collect..IntoIterator$u20$for$u20$$RF$$u5b$T$u5d$$GT$9into_iter17ha79dbdeb47511733E+0x1e>
   1703a: 09 a0        	j	0x1703c <_ZN4core5slice4iter87_$LT$impl$u20$core..iter..traits..collect..IntoIterator$u20$for$u20$$RF$$u5b$T$u5d$$GT$9into_iter17ha79dbdeb47511733E+0x12>
   1703c: 22 65        	ld	a0, 8(sp)
   1703e: 82 65        	ld	a1, 0(sp)
   17040: ae e4        	sd	a1, 72(sp)
   17042: 2e 95        	add	a0, a0, a1
   17044: 2a f0        	sd	a0, 32(sp)
   17046: 29 a0        	j	0x17050 <_ZN4core5slice4iter87_$LT$impl$u20$core..iter..traits..collect..IntoIterator$u20$for$u20$$RF$$u5b$T$u5d$$GT$9into_iter17ha79dbdeb47511733E+0x26>
   17048: 02 65        	ld	a0, 0(sp)
   1704a: aa e8        	sd	a0, 80(sp)
   1704c: 2a f0        	sd	a0, 32(sp)
   1704e: 09 a0        	j	0x17050 <_ZN4core5slice4iter87_$LT$impl$u20$core..iter..traits..collect..IntoIterator$u20$for$u20$$RF$$u5b$T$u5d$$GT$9into_iter17ha79dbdeb47511733E+0x26>
   17050: 22 65        	ld	a0, 8(sp)
   17052: aa ec        	sd	a0, 88(sp)
   17054: 2a f4        	sd	a0, 40(sp)
   17056: 02 75        	ld	a0, 32(sp)
   17058: a2 75        	ld	a1, 40(sp)
   1705a: 2e e8        	sd	a1, 16(sp)
   1705c: 2a ec        	sd	a0, 24(sp)
   1705e: 42 65        	ld	a0, 16(sp)
   17060: e2 65        	ld	a1, 24(sp)
   17062: 25 61        	addi	sp, sp, 96
   17064: 82 80        	ret

0000000000017066 <_ZN4core5slice5ascii30_$LT$impl$u20$$u5b$u8$u5d$$GT$20eq_ignore_ascii_case17h1b9b8121f52b396bE>:
   17066: 35 71        	addi	sp, sp, -160
   17068: 06 ed        	sd	ra, 152(sp)
   1706a: 36 e4        	sd	a3, 8(sp)
   1706c: 32 e8        	sd	a2, 16(sp)
   1706e: 2e ec        	sd	a1, 24(sp)
   17070: 2a f0        	sd	a0, 32(sp)
   17072: aa f8        	sd	a0, 112(sp)
   17074: ae fc        	sd	a1, 120(sp)
   17076: 32 e1        	sd	a2, 128(sp)
   17078: 36 e5        	sd	a3, 136(sp)
   1707a: 63 87 d5 00  	beq	a1, a3, 0x17088 <_ZN4core5slice5ascii30_$LT$impl$u20$$u5b$u8$u5d$$GT$20eq_ignore_ascii_case17h1b9b8121f52b396bE+0x22>
   1707e: 09 a0        	j	0x17080 <_ZN4core5slice5ascii30_$LT$impl$u20$$u5b$u8$u5d$$GT$20eq_ignore_ascii_case17h1b9b8121f52b396bE+0x1a>
   17080: 01 45        	li	a0, 0
   17082: a3 07 a1 02  	sb	a0, 47(sp)
   17086: 81 a0        	j	0x170c6 <.Lpcrel_hi45+0x1a>
   17088: 22 67        	ld	a4, 8(sp)
   1708a: c2 66        	ld	a3, 16(sp)
   1708c: 62 66        	ld	a2, 24(sp)
   1708e: 82 75        	ld	a1, 32(sp)
   17090: 08 18        	addi	a0, sp, 48
   17092: 2a e0        	sd	a0, 0(sp)
   17094: 97 00 00 00  	auipc	ra, 0
   17098: e7 80 a0 80  	jalr	-2038(ra)
   1709c: 02 65        	ld	a0, 0(sp)
   1709e: 2a e9        	sd	a0, 144(sp)
   170a0: 97 f0 ff ff  	auipc	ra, 1048575
   170a4: e7 80 c0 76  	jalr	1900(ra)
   170a8: a3 07 a1 06  	sb	a0, 111(sp)

00000000000170ac <.Lpcrel_hi45>:
   170ac: 17 b5 ff ff  	auipc	a0, 1048571
   170b0: 93 05 c5 93  	addi	a1, a0, -1732
   170b4: 13 05 f1 06  	addi	a0, sp, 111
   170b8: 97 00 00 00  	auipc	ra, 0
   170bc: e7 80 40 1f  	jalr	500(ra)
   170c0: a3 07 a1 02  	sb	a0, 47(sp)
   170c4: 09 a0        	j	0x170c6 <.Lpcrel_hi45+0x1a>
   170c6: 03 45 f1 02  	lbu	a0, 47(sp)
   170ca: ea 60        	ld	ra, 152(sp)
   170cc: 0d 61        	addi	sp, sp, 160
   170ce: 82 80        	ret

00000000000170d0 <_ZN4core5slice5ascii30_$LT$impl$u20$$u5b$u8$u5d$$GT$20eq_ignore_ascii_case28_$u7b$$u7b$closure$u7d$$u7d$17h5e324d17a5908ae3E>:
   170d0: 39 71        	addi	sp, sp, -64
   170d2: 06 fc        	sd	ra, 56(sp)
   170d4: 32 e0        	sd	a2, 0(sp)
   170d6: 2e 86        	mv	a2, a1
   170d8: 82 65        	ld	a1, 0(sp)
   170da: 32 e4        	sd	a2, 8(sp)
   170dc: 2a 86        	mv	a2, a0
   170de: 22 65        	ld	a0, 8(sp)
   170e0: 32 e8        	sd	a2, 16(sp)
   170e2: 2a ec        	sd	a0, 24(sp)
   170e4: 2e f0        	sd	a1, 32(sp)
   170e6: 2a f4        	sd	a0, 40(sp)
   170e8: 2e f8        	sd	a1, 48(sp)
   170ea: 97 f0 ff ff  	auipc	ra, 1048575
   170ee: e7 80 c0 60  	jalr	1548(ra)
   170f2: e2 70        	ld	ra, 56(sp)
   170f4: 21 61        	addi	sp, sp, 64
   170f6: 82 80        	ret

00000000000170f8 <_ZN4core6option15Option$LT$T$GT$3map17h1e861fbb0403a963E>:
   170f8: 1d 71        	addi	sp, sp, -96
   170fa: 86 ec        	sd	ra, 88(sp)
   170fc: 2a e0        	sd	a0, 0(sp)
   170fe: 2e e4        	sd	a1, 8(sp)
   17100: 32 e8        	sd	a2, 16(sp)
   17102: 05 45        	li	a0, 1
   17104: 23 03 a1 04  	sb	a0, 70(sp)
   17108: 22 65        	ld	a0, 8(sp)
   1710a: 11 e5        	bnez	a0, 0x17116 <_ZN4core6option15Option$LT$T$GT$3map17h1e861fbb0403a963E+0x1e>
   1710c: 09 a0        	j	0x1710e <_ZN4core6option15Option$LT$T$GT$3map17h1e861fbb0403a963E+0x16>
   1710e: 82 65        	ld	a1, 0(sp)
   17110: 09 45        	li	a0, 2
   17112: 88 e1        	sd	a0, 0(a1)
   17114: 0d a8        	j	0x17146 <_ZN4core6option15Option$LT$T$GT$3map17h1e861fbb0403a963E+0x4e>
   17116: a2 65        	ld	a1, 8(sp)
   17118: 42 65        	ld	a0, 16(sp)
   1711a: ae e4        	sd	a1, 72(sp)
   1711c: aa e8        	sd	a0, 80(sp)
   1711e: 01 46        	li	a2, 0
   17120: 23 03 c1 04  	sb	a2, 70(sp)
   17124: 2e f8        	sd	a1, 48(sp)
   17126: 2a fc        	sd	a0, 56(sp)
   17128: c2 75        	ld	a1, 48(sp)
   1712a: 62 76        	ld	a2, 56(sp)
   1712c: 28 08        	addi	a0, sp, 24
   1712e: 97 f0 ff ff  	auipc	ra, 1048575
   17132: e7 80 a0 66  	jalr	1642(ra)
   17136: 82 65        	ld	a1, 0(sp)
   17138: 22 75        	ld	a0, 40(sp)
   1713a: 88 e9        	sd	a0, 16(a1)
   1713c: 02 75        	ld	a0, 32(sp)
   1713e: 88 e5        	sd	a0, 8(a1)
   17140: 62 65        	ld	a0, 24(sp)
   17142: 88 e1        	sd	a0, 0(a1)
   17144: 09 a0        	j	0x17146 <_ZN4core6option15Option$LT$T$GT$3map17h1e861fbb0403a963E+0x4e>
   17146: 03 45 61 04  	lbu	a0, 70(sp)
   1714a: 05 89        	andi	a0, a0, 1
   1714c: 09 e5        	bnez	a0, 0x17156 <_ZN4core6option15Option$LT$T$GT$3map17h1e861fbb0403a963E+0x5e>
   1714e: 09 a0        	j	0x17150 <_ZN4core6option15Option$LT$T$GT$3map17h1e861fbb0403a963E+0x58>
   17150: e6 60        	ld	ra, 88(sp)
   17152: 25 61        	addi	sp, sp, 96
   17154: 82 80        	ret
   17156: ed bf        	j	0x17150 <_ZN4core6option15Option$LT$T$GT$3map17h1e861fbb0403a963E+0x58>

0000000000017158 <_ZN4core6option15Option$LT$T$GT$3map17h459bbe36266a2dbbE>:
   17158: 39 71        	addi	sp, sp, -64
   1715a: 06 fc        	sd	ra, 56(sp)
   1715c: 2a e4        	sd	a0, 8(sp)
   1715e: 2e e8        	sd	a1, 16(sp)
   17160: 05 45        	li	a0, 1
   17162: 23 07 a1 02  	sb	a0, 46(sp)
   17166: 22 65        	ld	a0, 8(sp)
   17168: 09 e5        	bnez	a0, 0x17172 <_ZN4core6option15Option$LT$T$GT$3map17h459bbe36266a2dbbE+0x1a>
   1716a: 09 a0        	j	0x1716c <_ZN4core6option15Option$LT$T$GT$3map17h459bbe36266a2dbbE+0x14>
   1716c: 19 45        	li	a0, 6
   1716e: 2a ec        	sd	a0, 24(sp)
   17170: 31 a8        	j	0x1718c <_ZN4core6option15Option$LT$T$GT$3map17h459bbe36266a2dbbE+0x34>
   17172: 42 65        	ld	a0, 16(sp)
   17174: 2a f8        	sd	a0, 48(sp)
   17176: 81 45        	li	a1, 0
   17178: 23 07 b1 02  	sb	a1, 46(sp)
   1717c: 2a f0        	sd	a0, 32(sp)
   1717e: 02 75        	ld	a0, 32(sp)
   17180: 97 00 00 00  	auipc	ra, 0
   17184: e7 80 40 4d  	jalr	1236(ra)
   17188: 2a ec        	sd	a0, 24(sp)
   1718a: 09 a0        	j	0x1718c <_ZN4core6option15Option$LT$T$GT$3map17h459bbe36266a2dbbE+0x34>
   1718c: 03 45 e1 02  	lbu	a0, 46(sp)
   17190: 05 89        	andi	a0, a0, 1
   17192: 11 e5        	bnez	a0, 0x1719e <_ZN4core6option15Option$LT$T$GT$3map17h459bbe36266a2dbbE+0x46>
   17194: 09 a0        	j	0x17196 <_ZN4core6option15Option$LT$T$GT$3map17h459bbe36266a2dbbE+0x3e>
   17196: 62 65        	ld	a0, 24(sp)
   17198: e2 70        	ld	ra, 56(sp)
   1719a: 21 61        	addi	sp, sp, 64
   1719c: 82 80        	ret
   1719e: e5 bf        	j	0x17196 <_ZN4core6option15Option$LT$T$GT$3map17h459bbe36266a2dbbE+0x3e>

00000000000171a0 <_ZN4core6option15Option$LT$T$GT$5ok_or17h669a26768bd64f9bE>:
   171a0: 01 11        	addi	sp, sp, -32
   171a2: 2a e0        	sd	a0, 0(sp)
   171a4: 05 45        	li	a0, 1
   171a6: 23 0b a1 00  	sb	a0, 22(sp)
   171aa: 02 65        	ld	a0, 0(sp)
   171ac: 99 45        	li	a1, 6
   171ae: 63 19 b5 00  	bne	a0, a1, 0x171c0 <_ZN4core6option15Option$LT$T$GT$5ok_or17h669a26768bd64f9bE+0x20>
   171b2: 09 a0        	j	0x171b4 <_ZN4core6option15Option$LT$T$GT$5ok_or17h669a26768bd64f9bE+0x14>
   171b4: 01 45        	li	a0, 0
   171b6: 23 0b a1 00  	sb	a0, 22(sp)
   171ba: 19 45        	li	a0, 6
   171bc: 2a e4        	sd	a0, 8(sp)
   171be: 29 a0        	j	0x171c8 <_ZN4core6option15Option$LT$T$GT$5ok_or17h669a26768bd64f9bE+0x28>
   171c0: 02 65        	ld	a0, 0(sp)
   171c2: 2a ec        	sd	a0, 24(sp)
   171c4: 2a e4        	sd	a0, 8(sp)
   171c6: 09 a0        	j	0x171c8 <_ZN4core6option15Option$LT$T$GT$5ok_or17h669a26768bd64f9bE+0x28>
   171c8: 03 45 61 01  	lbu	a0, 22(sp)
   171cc: 05 89        	andi	a0, a0, 1
   171ce: 09 e5        	bnez	a0, 0x171d8 <_ZN4core6option15Option$LT$T$GT$5ok_or17h669a26768bd64f9bE+0x38>
   171d0: 09 a0        	j	0x171d2 <_ZN4core6option15Option$LT$T$GT$5ok_or17h669a26768bd64f9bE+0x32>
   171d2: 22 65        	ld	a0, 8(sp)
   171d4: 05 61        	addi	sp, sp, 32
   171d6: 82 80        	ret
   171d8: ed bf        	j	0x171d2 <_ZN4core6option15Option$LT$T$GT$5ok_or17h669a26768bd64f9bE+0x32>

00000000000171da <_ZN4core6option15Option$LT$T$GT$6unwrap17h8dd983e0dc2ad40bE>:
   171da: 01 11        	addi	sp, sp, -32
   171dc: 2e e4        	sd	a1, 8(sp)
   171de: 2a e8        	sd	a0, 16(sp)
   171e0: 42 65        	ld	a0, 16(sp)
   171e2: 99 45        	li	a1, 6
   171e4: 63 1f b5 00  	bne	a0, a1, 0x17202 <.Lpcrel_hi46+0x16>
   171e8: 09 a0        	j	0x171ea <_ZN4core6option15Option$LT$T$GT$6unwrap17h8dd983e0dc2ad40bE+0x10>
   171ea: 22 66        	ld	a2, 8(sp)

00000000000171ec <.Lpcrel_hi46>:
   171ec: 17 a5 ff ff  	auipc	a0, 1048570
   171f0: 13 05 d5 7f  	addi	a0, a0, 2045
   171f4: 93 05 b0 02  	li	a1, 43
   171f8: 97 10 00 00  	auipc	ra, 1
   171fc: e7 80 a0 ce  	jalr	-790(ra)
   17200: 00 00        	unimp
   17202: 42 65        	ld	a0, 16(sp)
   17204: 2a ec        	sd	a0, 24(sp)
   17206: 05 61        	addi	sp, sp, 32
   17208: 82 80        	ret

000000000001720a <_ZN4core6option15Option$LT$T$GT$7is_some17h3fe13bdb81b0289aE>:
   1720a: 41 11        	addi	sp, sp, -16
   1720c: 2a e4        	sd	a0, 8(sp)
   1720e: 08 61        	ld	a0, 0(a0)
   17210: 33 35 a0 00  	snez	a0, a0
   17214: 41 01        	addi	sp, sp, 16
   17216: 82 80        	ret

0000000000017218 <_ZN59_$LT$core..fmt..Arguments$u20$as$u20$core..clone..Clone$GT$5clone17heb271f7c831de256E>:
   17218: 41 11        	addi	sp, sp, -16
   1721a: 2e e0        	sd	a1, 0(sp)
   1721c: aa 85        	mv	a1, a0
   1721e: 02 65        	ld	a0, 0(sp)
   17220: 2a e4        	sd	a0, 8(sp)
   17222: 10 75        	ld	a2, 40(a0)
   17224: 90 f5        	sd	a2, 40(a1)
   17226: 10 71        	ld	a2, 32(a0)
   17228: 90 f1        	sd	a2, 32(a1)
   1722a: 10 6d        	ld	a2, 24(a0)
   1722c: 90 ed        	sd	a2, 24(a1)
   1722e: 10 69        	ld	a2, 16(a0)
   17230: 90 e9        	sd	a2, 16(a1)
   17232: 10 65        	ld	a2, 8(a0)
   17234: 90 e5        	sd	a2, 8(a1)
   17236: 08 61        	ld	a0, 0(a0)
   17238: 88 e1        	sd	a0, 0(a1)
   1723a: 41 01        	addi	sp, sp, 16
   1723c: 82 80        	ret

000000000001723e <_ZN68_$LT$core..option..Option$LT$T$GT$$u20$as$u20$core..clone..Clone$GT$5clone17h933ae394f9cc5350E>:
   1723e: 39 71        	addi	sp, sp, -64
   17240: 06 fc        	sd	ra, 56(sp)
   17242: 2e e0        	sd	a1, 0(sp)
   17244: 2a e4        	sd	a0, 8(sp)
   17246: 2e f4        	sd	a1, 40(sp)
   17248: 88 61        	ld	a0, 0(a1)
   1724a: 89 45        	li	a1, 2
   1724c: 63 17 b5 00  	bne	a0, a1, 0x1725a <_ZN68_$LT$core..option..Option$LT$T$GT$$u20$as$u20$core..clone..Clone$GT$5clone17h933ae394f9cc5350E+0x1c>
   17250: 09 a0        	j	0x17252 <_ZN68_$LT$core..option..Option$LT$T$GT$$u20$as$u20$core..clone..Clone$GT$5clone17h933ae394f9cc5350E+0x14>
   17252: a2 65        	ld	a1, 8(sp)
   17254: 09 45        	li	a0, 2
   17256: 88 e1        	sd	a0, 0(a1)
   17258: 05 a0        	j	0x17278 <_ZN68_$LT$core..option..Option$LT$T$GT$$u20$as$u20$core..clone..Clone$GT$5clone17h933ae394f9cc5350E+0x3a>
   1725a: 82 65        	ld	a1, 0(sp)
   1725c: 2e f8        	sd	a1, 48(sp)
   1725e: 08 08        	addi	a0, sp, 16
   17260: 97 10 00 00  	auipc	ra, 1
   17264: e7 80 c0 94  	jalr	-1716(ra)
   17268: a2 65        	ld	a1, 8(sp)
   1726a: 02 75        	ld	a0, 32(sp)
   1726c: 88 e9        	sd	a0, 16(a1)
   1726e: 62 65        	ld	a0, 24(sp)
   17270: 88 e5        	sd	a0, 8(a1)
   17272: 42 65        	ld	a0, 16(sp)
   17274: 88 e1        	sd	a0, 0(a1)
   17276: 09 a0        	j	0x17278 <_ZN68_$LT$core..option..Option$LT$T$GT$$u20$as$u20$core..clone..Clone$GT$5clone17h933ae394f9cc5350E+0x3a>
   17278: e2 70        	ld	ra, 56(sp)
   1727a: 21 61        	addi	sp, sp, 64
   1727c: 82 80        	ret

000000000001727e <_ZN68_$LT$core..option..Option$LT$T$GT$$u20$as$u20$core..clone..Clone$GT$5clone17hfe8220427ebe2f84E>:
   1727e: 79 71        	addi	sp, sp, -48
   17280: 2a e4        	sd	a0, 8(sp)
   17282: 2a ec        	sd	a0, 24(sp)
   17284: 08 41        	lw	a0, 0(a0)
   17286: 09 e5        	bnez	a0, 0x17290 <_ZN68_$LT$core..option..Option$LT$T$GT$$u20$as$u20$core..clone..Clone$GT$5clone17hfe8220427ebe2f84E+0x12>
   17288: 09 a0        	j	0x1728a <_ZN68_$LT$core..option..Option$LT$T$GT$$u20$as$u20$core..clone..Clone$GT$5clone17hfe8220427ebe2f84E+0xc>
   1728a: 01 45        	li	a0, 0
   1728c: 2a c8        	sw	a0, 16(sp)
   1728e: 19 a8        	j	0x172a4 <_ZN68_$LT$core..option..Option$LT$T$GT$$u20$as$u20$core..clone..Clone$GT$5clone17hfe8220427ebe2f84E+0x26>
   17290: 22 65        	ld	a0, 8(sp)
   17292: 93 05 45 00  	addi	a1, a0, 4
   17296: 2e f0        	sd	a1, 32(sp)
   17298: 2e f4        	sd	a1, 40(sp)
   1729a: 48 41        	lw	a0, 4(a0)
   1729c: 2a ca        	sw	a0, 20(sp)
   1729e: 05 45        	li	a0, 1
   172a0: 2a c8        	sw	a0, 16(sp)
   172a2: 09 a0        	j	0x172a4 <_ZN68_$LT$core..option..Option$LT$T$GT$$u20$as$u20$core..clone..Clone$GT$5clone17hfe8220427ebe2f84E+0x26>
   172a4: 42 45        	lw	a0, 16(sp)
   172a6: d2 45        	lw	a1, 20(sp)
   172a8: 45 61        	addi	sp, sp, 48
   172aa: 82 80        	ret

00000000000172ac <_ZN90_$LT$core..ops..control_flow..ControlFlow$LT$B$C$C$GT$$u20$as$u20$core..cmp..PartialEq$GT$2eq17h5b0cb64556ab9671E>:
   172ac: 1d 71        	addi	sp, sp, -96
   172ae: 86 ec        	sd	ra, 88(sp)
   172b0: 2e e0        	sd	a1, 0(sp)
   172b2: 2a e4        	sd	a0, 8(sp)
   172b4: 2a ec        	sd	a0, 24(sp)
   172b6: 2e f0        	sd	a1, 32(sp)
   172b8: 03 45 05 00  	lbu	a0, 0(a0)
   172bc: 2a f4        	sd	a0, 40(sp)
   172be: 83 c5 05 00  	lbu	a1, 0(a1)
   172c2: 2e f8        	sd	a1, 48(sp)
   172c4: 63 07 b5 00  	beq	a0, a1, 0x172d2 <_ZN90_$LT$core..ops..control_flow..ControlFlow$LT$B$C$C$GT$$u20$as$u20$core..cmp..PartialEq$GT$2eq17h5b0cb64556ab9671E+0x26>
   172c8: 09 a0        	j	0x172ca <_ZN90_$LT$core..ops..control_flow..ControlFlow$LT$B$C$C$GT$$u20$as$u20$core..cmp..PartialEq$GT$2eq17h5b0cb64556ab9671E+0x1e>
   172ca: 01 45        	li	a0, 0
   172cc: a3 0b a1 00  	sb	a0, 23(sp)
   172d0: 39 a0        	j	0x172de <_ZN90_$LT$core..ops..control_flow..ControlFlow$LT$B$C$C$GT$$u20$as$u20$core..cmp..PartialEq$GT$2eq17h5b0cb64556ab9671E+0x32>
   172d2: 22 65        	ld	a0, 8(sp)
   172d4: 03 45 05 00  	lbu	a0, 0(a0)
   172d8: 05 89        	andi	a0, a0, 1
   172da: 19 c5        	beqz	a0, 0x172e8 <_ZN90_$LT$core..ops..control_flow..ControlFlow$LT$B$C$C$GT$$u20$as$u20$core..cmp..PartialEq$GT$2eq17h5b0cb64556ab9671E+0x3c>
   172dc: 1d a0        	j	0x17302 <_ZN90_$LT$core..ops..control_flow..ControlFlow$LT$B$C$C$GT$$u20$as$u20$core..cmp..PartialEq$GT$2eq17h5b0cb64556ab9671E+0x56>
   172de: 03 45 71 01  	lbu	a0, 23(sp)
   172e2: e6 60        	ld	ra, 88(sp)
   172e4: 25 61        	addi	sp, sp, 96
   172e6: 82 80        	ret
   172e8: 82 65        	ld	a1, 0(sp)
   172ea: 22 65        	ld	a0, 8(sp)
   172ec: 05 05        	addi	a0, a0, 1
   172ee: 2a fc        	sd	a0, 56(sp)
   172f0: 85 05        	addi	a1, a1, 1
   172f2: ae e0        	sd	a1, 64(sp)
   172f4: 97 f0 ff ff  	auipc	ra, 1048575
   172f8: e7 80 60 31  	jalr	790(ra)
   172fc: a3 0b a1 00  	sb	a0, 23(sp)
   17300: f9 bf        	j	0x172de <_ZN90_$LT$core..ops..control_flow..ControlFlow$LT$B$C$C$GT$$u20$as$u20$core..cmp..PartialEq$GT$2eq17h5b0cb64556ab9671E+0x32>
   17302: 82 65        	ld	a1, 0(sp)
   17304: 22 65        	ld	a0, 8(sp)
   17306: 05 05        	addi	a0, a0, 1
   17308: aa e4        	sd	a0, 72(sp)
   1730a: 85 05        	addi	a1, a1, 1
   1730c: ae e8        	sd	a1, 80(sp)
   1730e: 97 f0 ff ff  	auipc	ra, 1048575
   17312: e7 80 c0 2f  	jalr	764(ra)
   17316: a3 0b a1 00  	sb	a0, 23(sp)
   1731a: d1 b7        	j	0x172de <_ZN90_$LT$core..ops..control_flow..ControlFlow$LT$B$C$C$GT$$u20$as$u20$core..cmp..PartialEq$GT$2eq17h5b0cb64556ab9671E+0x32>

000000000001731c <_ZN91_$LT$core..slice..iter..Iter$LT$T$GT$$u20$as$u20$core..iter..traits..iterator..Iterator$GT$24__iterator_get_unchecked17hb0bb1b23ffe460d2E>:
   1731c: 01 11        	addi	sp, sp, -32
   1731e: 2a e0        	sd	a0, 0(sp)
   17320: 2e e4        	sd	a1, 8(sp)
   17322: 08 61        	ld	a0, 0(a0)
   17324: 2a e8        	sd	a0, 16(sp)
   17326: 2a ec        	sd	a0, 24(sp)
   17328: 2e 95        	add	a0, a0, a1
   1732a: 05 61        	addi	sp, sp, 32
   1732c: 82 80        	ret

000000000001732e <_ZN91_$LT$core..slice..iter..Iter$LT$T$GT$$u20$as$u20$core..iter..traits..iterator..Iterator$GT$4next17h17e108d4bf98f046E>:
   1732e: 55 71        	addi	sp, sp, -208
   17330: 2a e0        	sd	a0, 0(sp)
   17332: 85 45        	li	a1, 1
   17334: 2e e4        	sd	a1, 8(sp)
   17336: 2e e8        	sd	a1, 16(sp)
   17338: 2e ec        	sd	a1, 24(sp)
   1733a: aa e4        	sd	a0, 72(sp)
   1733c: 01 45        	li	a0, 0
   1733e: 0d e5        	bnez	a0, 0x17368 <_ZN91_$LT$core..slice..iter..Iter$LT$T$GT$$u20$as$u20$core..iter..traits..iterator..Iterator$GT$4next17h17e108d4bf98f046E+0x3a>
   17340: 09 a0        	j	0x17342 <_ZN91_$LT$core..slice..iter..Iter$LT$T$GT$$u20$as$u20$core..iter..traits..iterator..Iterator$GT$4next17h17e108d4bf98f046E+0x14>
   17342: 02 65        	ld	a0, 0(sp)
   17344: 93 05 85 00  	addi	a1, a0, 8
   17348: ae e8        	sd	a1, 80(sp)
   1734a: 0c 65        	ld	a1, 8(a0)
   1734c: 2e f8        	sd	a1, 48(sp)
   1734e: aa ec        	sd	a0, 88(sp)
   17350: 0c 18        	addi	a1, sp, 48
   17352: ae f0        	sd	a1, 96(sp)
   17354: 08 61        	ld	a0, 0(a0)
   17356: aa f4        	sd	a0, 104(sp)
   17358: c2 75        	ld	a1, 48(sp)
   1735a: ae f8        	sd	a1, 112(sp)
   1735c: 2d 8d        	xor	a0, a0, a1
   1735e: 13 35 15 00  	seqz	a0, a0
   17362: a3 07 a1 02  	sb	a0, 47(sp)
   17366: 11 a8        	j	0x1737a <_ZN91_$LT$core..slice..iter..Iter$LT$T$GT$$u20$as$u20$core..iter..traits..iterator..Iterator$GT$4next17h17e108d4bf98f046E+0x4c>
   17368: 02 65        	ld	a0, 0(sp)
   1736a: 08 65        	ld	a0, 8(a0)
   1736c: aa fc        	sd	a0, 120(sp)
   1736e: 2a e1        	sd	a0, 128(sp)
   17370: 13 35 15 00  	seqz	a0, a0
   17374: a3 07 a1 02  	sb	a0, 47(sp)
   17378: 09 a0        	j	0x1737a <_ZN91_$LT$core..slice..iter..Iter$LT$T$GT$$u20$as$u20$core..iter..traits..iterator..Iterator$GT$4next17h17e108d4bf98f046E+0x4c>
   1737a: 03 45 f1 02  	lbu	a0, 47(sp)
   1737e: 05 89        	andi	a0, a0, 1
   17380: 01 e9        	bnez	a0, 0x17390 <_ZN91_$LT$core..slice..iter..Iter$LT$T$GT$$u20$as$u20$core..iter..traits..iterator..Iterator$GT$4next17h17e108d4bf98f046E+0x62>
   17382: 09 a0        	j	0x17384 <_ZN91_$LT$core..slice..iter..Iter$LT$T$GT$$u20$as$u20$core..iter..traits..iterator..Iterator$GT$4next17h17e108d4bf98f046E+0x56>
   17384: 02 65        	ld	a0, 0(sp)
   17386: 08 61        	ld	a0, 0(a0)
   17388: 2a fc        	sd	a0, 56(sp)
   1738a: 01 45        	li	a0, 0
   1738c: 0d e1        	bnez	a0, 0x173ae <_ZN91_$LT$core..slice..iter..Iter$LT$T$GT$$u20$as$u20$core..iter..traits..iterator..Iterator$GT$4next17h17e108d4bf98f046E+0x80>
   1738e: 21 a0        	j	0x17396 <_ZN91_$LT$core..slice..iter..Iter$LT$T$GT$$u20$as$u20$core..iter..traits..iterator..Iterator$GT$4next17h17e108d4bf98f046E+0x68>
   17390: 01 45        	li	a0, 0
   17392: 2a f0        	sd	a0, 32(sp)
   17394: 35 a8        	j	0x173d0 <_ZN91_$LT$core..slice..iter..Iter$LT$T$GT$$u20$as$u20$core..iter..traits..iterator..Iterator$GT$4next17h17e108d4bf98f046E+0xa2>
   17396: 82 65        	ld	a1, 0(sp)
   17398: 13 85 85 00  	addi	a0, a1, 8
   1739c: 2a e5        	sd	a0, 136(sp)
   1739e: 2a e9        	sd	a0, 144(sp)
   173a0: 88 61        	ld	a0, 0(a1)
   173a2: 2a ed        	sd	a0, 152(sp)
   173a4: 41 05        	addi	a0, a0, 16
   173a6: aa e0        	sd	a0, 64(sp)
   173a8: 06 65        	ld	a0, 64(sp)
   173aa: 88 e1        	sd	a0, 0(a1)
   173ac: 19 a8        	j	0x173c2 <_ZN91_$LT$core..slice..iter..Iter$LT$T$GT$$u20$as$u20$core..iter..traits..iterator..Iterator$GT$4next17h17e108d4bf98f046E+0x94>
   173ae: 82 65        	ld	a1, 0(sp)
   173b0: 13 85 85 00  	addi	a0, a1, 8
   173b4: 2a f1        	sd	a0, 160(sp)
   173b6: 2a f5        	sd	a0, 168(sp)
   173b8: 88 65        	ld	a0, 8(a1)
   173ba: 2a f9        	sd	a0, 176(sp)
   173bc: 7d 15        	addi	a0, a0, -1
   173be: 88 e5        	sd	a0, 8(a1)
   173c0: 09 a0        	j	0x173c2 <_ZN91_$LT$core..slice..iter..Iter$LT$T$GT$$u20$as$u20$core..iter..traits..iterator..Iterator$GT$4next17h17e108d4bf98f046E+0x94>
   173c2: 28 18        	addi	a0, sp, 56
   173c4: 2a fd        	sd	a0, 184(sp)
   173c6: 62 75        	ld	a0, 56(sp)
   173c8: aa e1        	sd	a0, 192(sp)
   173ca: aa e5        	sd	a0, 200(sp)
   173cc: 2a f0        	sd	a0, 32(sp)
   173ce: 09 a0        	j	0x173d0 <_ZN91_$LT$core..slice..iter..Iter$LT$T$GT$$u20$as$u20$core..iter..traits..iterator..Iterator$GT$4next17h17e108d4bf98f046E+0xa2>
   173d0: 02 75        	ld	a0, 32(sp)
   173d2: 69 61        	addi	sp, sp, 208
   173d4: 82 80        	ret

00000000000173d6 <_ZN91_$LT$core..slice..iter..Iter$LT$T$GT$$u20$as$u20$core..iter..traits..iterator..Iterator$GT$8position17hc87c8c43c5309b42E>:
   173d6: 31 71        	addi	sp, sp, -192
   173d8: 06 fd        	sd	ra, 184(sp)
   173da: 2a f0        	sd	a0, 32(sp)
   173dc: 2e f4        	sd	a1, 40(sp)
   173de: 32 f8        	sd	a2, 48(sp)
   173e0: aa f4        	sd	a0, 104(sp)
   173e2: 01 45        	li	a0, 0
   173e4: 1d e1        	bnez	a0, 0x1740a <_ZN91_$LT$core..slice..iter..Iter$LT$T$GT$$u20$as$u20$core..iter..traits..iterator..Iterator$GT$8position17hc87c8c43c5309b42E+0x34>
   173e6: 09 a0        	j	0x173e8 <_ZN91_$LT$core..slice..iter..Iter$LT$T$GT$$u20$as$u20$core..iter..traits..iterator..Iterator$GT$8position17hc87c8c43c5309b42E+0x12>
   173e8: 02 75        	ld	a0, 32(sp)
   173ea: 93 05 85 00  	addi	a1, a0, 8
   173ee: ae f8        	sd	a1, 112(sp)
   173f0: 0c 65        	ld	a1, 8(a0)
   173f2: 2e e8        	sd	a1, 16(sp)
   173f4: ae fc        	sd	a1, 120(sp)
   173f6: 08 61        	ld	a0, 0(a0)
   173f8: 2a ec        	sd	a0, 24(sp)
   173fa: 2a e1        	sd	a0, 128(sp)
   173fc: 2e e5        	sd	a1, 136(sp)
   173fe: 2a e9        	sd	a0, 144(sp)
   17400: 41 45        	li	a0, 16
   17402: 2a ed        	sd	a0, 152(sp)
   17404: 05 45        	li	a0, 1
   17406: 1d e5        	bnez	a0, 0x17434 <.Lpcrel_hi53+0x16>
   17408: 39 a0        	j	0x17416 <.Lpcrel_hi52>
   1740a: 02 75        	ld	a0, 32(sp)
   1740c: 08 65        	ld	a0, 8(a0)
   1740e: 2a f1        	sd	a0, 160(sp)
   17410: 2a f5        	sd	a0, 168(sp)
   17412: aa e4        	sd	a0, 72(sp)
   17414: 0d a8        	j	0x17446 <.Lpcrel_hi53+0x28>

0000000000017416 <.Lpcrel_hi52>:
   17416: 17 a5 ff ff  	auipc	a0, 1048570
   1741a: 13 05 e5 5f  	addi	a0, a0, 1534

000000000001741e <.Lpcrel_hi53>:
   1741e: 97 a5 ff ff  	auipc	a1, 1048570
   17422: 13 86 25 69  	addi	a2, a1, 1682
   17426: 93 05 90 04  	li	a1, 73
   1742a: 97 10 00 00  	auipc	ra, 1
   1742e: e7 80 80 ab  	jalr	-1352(ra)
   17432: 00 00        	unimp
   17434: 01 45        	li	a0, 0
   17436: 65 f1        	bnez	a0, 0x17416 <.Lpcrel_hi52>
   17438: 09 a0        	j	0x1743a <.Lpcrel_hi53+0x1c>
   1743a: 42 65        	ld	a0, 16(sp)
   1743c: e2 65        	ld	a1, 24(sp)
   1743e: 0d 8d        	sub	a0, a0, a1
   17440: 11 81        	srli	a0, a0, 4
   17442: aa e4        	sd	a0, 72(sp)
   17444: 09 a0        	j	0x17446 <.Lpcrel_hi53+0x28>
   17446: 01 45        	li	a0, 0
   17448: aa e8        	sd	a0, 80(sp)
   1744a: 09 a0        	j	0x1744c <.Lpcrel_hi53+0x2e>
   1744c: 02 75        	ld	a0, 32(sp)
   1744e: 97 00 00 00  	auipc	ra, 0
   17452: e7 80 00 ee  	jalr	-288(ra)
   17456: aa ec        	sd	a0, 88(sp)
   17458: 66 65        	ld	a0, 88(sp)
   1745a: 09 cd        	beqz	a0, 0x17474 <.Lpcrel_hi53+0x56>
   1745c: 09 a0        	j	0x1745e <.Lpcrel_hi53+0x40>
   1745e: 66 65        	ld	a0, 88(sp)
   17460: 2a f9        	sd	a0, 176(sp)
   17462: aa f0        	sd	a0, 96(sp)
   17464: 86 75        	ld	a1, 96(sp)
   17466: 28 10        	addi	a0, sp, 40
   17468: 97 00 00 00  	auipc	ra, 0
   1746c: e7 80 80 1c  	jalr	456(ra)
   17470: 11 e9        	bnez	a0, 0x17484 <.Lpcrel_hi53+0x66>
   17472: 21 a0        	j	0x1747a <.Lpcrel_hi53+0x5c>
   17474: 01 45        	li	a0, 0
   17476: 2a fc        	sd	a0, 56(sp)
   17478: 25 a8        	j	0x174b0 <.Lpcrel_hi55+0x14>
   1747a: 46 65        	ld	a0, 80(sp)
   1747c: 05 05        	addi	a0, a0, 1
   1747e: 2a e4        	sd	a0, 8(sp)
   17480: 11 c9        	beqz	a0, 0x17494 <.Lpcrel_hi54>
   17482: 31 a0        	j	0x1748e <.Lpcrel_hi53+0x70>
   17484: 46 65        	ld	a0, 80(sp)
   17486: aa e0        	sd	a0, 64(sp)
   17488: 05 45        	li	a0, 1
   1748a: 2a fc        	sd	a0, 56(sp)
   1748c: 15 a0        	j	0x174b0 <.Lpcrel_hi55+0x14>
   1748e: 22 65        	ld	a0, 8(sp)
   17490: aa e8        	sd	a0, 80(sp)
   17492: 6d bf        	j	0x1744c <.Lpcrel_hi53+0x2e>

0000000000017494 <.Lpcrel_hi54>:
   17494: 17 a5 ff ff  	auipc	a0, 1048570
   17498: 13 05 c5 69  	addi	a0, a0, 1692

000000000001749c <.Lpcrel_hi55>:
   1749c: 97 a5 ff ff  	auipc	a1, 1048570
   174a0: 13 86 c5 67  	addi	a2, a1, 1660
   174a4: f1 45        	li	a1, 28
   174a6: 97 10 00 00  	auipc	ra, 1
   174aa: e7 80 c0 a3  	jalr	-1476(ra)
   174ae: 00 00        	unimp
   174b0: 62 75        	ld	a0, 56(sp)
   174b2: 86 65        	ld	a1, 64(sp)
   174b4: ea 70        	ld	ra, 184(sp)
   174b6: 29 61        	addi	sp, sp, 192
   174b8: 82 80        	ret

00000000000174ba <_ZN91_$LT$core..slice..iter..Iter$LT$T$GT$$u20$as$u20$core..iter..traits..iterator..Iterator$GT$9size_hint17hcafe303b341826a0E>:
   174ba: 19 71        	addi	sp, sp, -128
   174bc: 2e e8        	sd	a1, 16(sp)
   174be: 2a ec        	sd	a0, 24(sp)
   174c0: 2e fc        	sd	a1, 56(sp)
   174c2: 01 45        	li	a0, 0
   174c4: 15 e1        	bnez	a0, 0x174e8 <_ZN91_$LT$core..slice..iter..Iter$LT$T$GT$$u20$as$u20$core..iter..traits..iterator..Iterator$GT$9size_hint17hcafe303b341826a0E+0x2e>
   174c6: 09 a0        	j	0x174c8 <_ZN91_$LT$core..slice..iter..Iter$LT$T$GT$$u20$as$u20$core..iter..traits..iterator..Iterator$GT$9size_hint17hcafe303b341826a0E+0xe>
   174c8: 42 65        	ld	a0, 16(sp)
   174ca: 93 05 85 00  	addi	a1, a0, 8
   174ce: ae e0        	sd	a1, 64(sp)
   174d0: 0c 65        	ld	a1, 8(a0)
   174d2: 2e e0        	sd	a1, 0(sp)
   174d4: ae e4        	sd	a1, 72(sp)
   174d6: 08 61        	ld	a0, 0(a0)
   174d8: 2a e4        	sd	a0, 8(sp)
   174da: aa e8        	sd	a0, 80(sp)
   174dc: ae ec        	sd	a1, 88(sp)
   174de: aa f0        	sd	a0, 96(sp)
   174e0: 05 45        	li	a0, 1
   174e2: aa f4        	sd	a0, 104(sp)
   174e4: 1d e5        	bnez	a0, 0x17512 <.Lpcrel_hi57+0x16>
   174e6: 39 a0        	j	0x174f4 <.Lpcrel_hi56>
   174e8: 42 65        	ld	a0, 16(sp)
   174ea: 08 65        	ld	a0, 8(a0)
   174ec: aa f8        	sd	a0, 112(sp)
   174ee: aa fc        	sd	a0, 120(sp)
   174f0: 2a f0        	sd	a0, 32(sp)
   174f2: 05 a8        	j	0x17522 <.Lpcrel_hi57+0x26>

00000000000174f4 <.Lpcrel_hi56>:
   174f4: 17 a5 ff ff  	auipc	a0, 1048570
   174f8: 13 05 05 52  	addi	a0, a0, 1312

00000000000174fc <.Lpcrel_hi57>:
   174fc: 97 a5 ff ff  	auipc	a1, 1048570
   17500: 13 86 45 5b  	addi	a2, a1, 1460
   17504: 93 05 90 04  	li	a1, 73
   17508: 97 10 00 00  	auipc	ra, 1
   1750c: e7 80 a0 9d  	jalr	-1574(ra)
   17510: 00 00        	unimp
   17512: 01 45        	li	a0, 0
   17514: 65 f1        	bnez	a0, 0x174f4 <.Lpcrel_hi56>
   17516: 09 a0        	j	0x17518 <.Lpcrel_hi57+0x1c>
   17518: 02 65        	ld	a0, 0(sp)
   1751a: a2 65        	ld	a1, 8(sp)
   1751c: 0d 8d        	sub	a0, a0, a1
   1751e: 2a f0        	sd	a0, 32(sp)
   17520: 09 a0        	j	0x17522 <.Lpcrel_hi57+0x26>
   17522: e2 65        	ld	a1, 24(sp)
   17524: 02 75        	ld	a0, 32(sp)
   17526: 2a f8        	sd	a0, 48(sp)
   17528: 05 46        	li	a2, 1
   1752a: 32 f4        	sd	a2, 40(sp)
   1752c: 88 e1        	sd	a0, 0(a1)
   1752e: 22 76        	ld	a2, 40(sp)
   17530: 42 75        	ld	a0, 48(sp)
   17532: 90 e5        	sd	a2, 8(a1)
   17534: 88 e9        	sd	a0, 16(a1)
   17536: 09 61        	addi	sp, sp, 128
   17538: 82 80        	ret

000000000001753a <_ZN95_$LT$core..ops..control_flow..ControlFlow$LT$B$C$C$GT$$u20$as$u20$core..ops..try_trait..Try$GT$11from_output17h15ee3e8774970197E>:
   1753a: 41 11        	addi	sp, sp, -16
   1753c: 01 45        	li	a0, 0
   1753e: 23 07 a1 00  	sb	a0, 14(sp)
   17542: 03 45 e1 00  	lbu	a0, 14(sp)
   17546: 41 01        	addi	sp, sp, 16
   17548: 82 80        	ret

000000000001754a <_ZN95_$LT$core..ops..control_flow..ControlFlow$LT$B$C$C$GT$$u20$as$u20$core..ops..try_trait..Try$GT$6branch17hb93b1a7f64bebbefE>:
   1754a: 41 11        	addi	sp, sp, -16
   1754c: 23 06 a1 00  	sb	a0, 12(sp)
   17550: 03 45 c1 00  	lbu	a0, 12(sp)
   17554: 05 89        	andi	a0, a0, 1
   17556: 11 e5        	bnez	a0, 0x17562 <_ZN95_$LT$core..ops..control_flow..ControlFlow$LT$B$C$C$GT$$u20$as$u20$core..ops..try_trait..Try$GT$6branch17hb93b1a7f64bebbefE+0x18>
   17558: 09 a0        	j	0x1755a <_ZN95_$LT$core..ops..control_flow..ControlFlow$LT$B$C$C$GT$$u20$as$u20$core..ops..try_trait..Try$GT$6branch17hb93b1a7f64bebbefE+0x10>
   1755a: 01 45        	li	a0, 0
   1755c: a3 06 a1 00  	sb	a0, 13(sp)
   17560: 29 a0        	j	0x1756a <_ZN95_$LT$core..ops..control_flow..ControlFlow$LT$B$C$C$GT$$u20$as$u20$core..ops..try_trait..Try$GT$6branch17hb93b1a7f64bebbefE+0x20>
   17562: 05 45        	li	a0, 1
   17564: a3 06 a1 00  	sb	a0, 13(sp)
   17568: 09 a0        	j	0x1756a <_ZN95_$LT$core..ops..control_flow..ControlFlow$LT$B$C$C$GT$$u20$as$u20$core..ops..try_trait..Try$GT$6branch17hb93b1a7f64bebbefE+0x20>
   1756a: 03 45 d1 00  	lbu	a0, 13(sp)
   1756e: 41 01        	addi	sp, sp, 16
   17570: 82 80        	ret

0000000000017572 <_ZN49_$LT$log..Level$u20$as$u20$core..fmt..Display$GT$3fmt17h605722f2e1abb018E>:
;     fn fmt(&self, fmt: &mut fmt::Formatter) -> fmt::Result {
   17572: 79 71        	addi	sp, sp, -48
   17574: 06 f4        	sd	ra, 40(sp)
   17576: 2e e4        	sd	a1, 8(sp)
   17578: 2a ec        	sd	a0, 24(sp)
   1757a: 2e f0        	sd	a1, 32(sp)
;         fmt.pad(self.as_str())
   1757c: 97 00 00 00  	auipc	ra, 0
   17580: e7 80 00 02  	jalr	32(ra)
   17584: 2a 86        	mv	a2, a0
   17586: 22 65        	ld	a0, 8(sp)
   17588: 32 e8        	sd	a2, 16(sp)
   1758a: 2e 86        	mv	a2, a1
   1758c: c2 65        	ld	a1, 16(sp)
   1758e: 97 10 00 00  	auipc	ra, 1
   17592: e7 80 a0 22  	jalr	554(ra)
;     }
   17596: a2 70        	ld	ra, 40(sp)
   17598: 45 61        	addi	sp, sp, 48
   1759a: 82 80        	ret

000000000001759c <_ZN3log5Level6as_str17he65fc297ce0fc02dE>:
;     pub fn as_str(&self) -> &'static str {
   1759c: 01 11        	addi	sp, sp, -32
   1759e: 2a ec        	sd	a0, 24(sp)
;         LOG_LEVEL_NAMES[*self as usize]
   175a0: 08 61        	ld	a0, 0(a0)
   175a2: 2a e8        	sd	a0, 16(sp)
   175a4: c2 65        	ld	a1, 16(sp)
   175a6: 2e e4        	sd	a1, 8(sp)
   175a8: 15 45        	li	a0, 5
   175aa: 63 6f b5 00  	bltu	a0, a1, 0x175c8 <.Lpcrel_hi61+0x12>
   175ae: 09 a0        	j	0x175b0 <_ZN3log5Level6as_str17he65fc297ce0fc02dE+0x14>
   175b0: 22 65        	ld	a0, 8(sp)
   175b2: 93 15 45 00  	slli	a1, a0, 4

00000000000175b6 <.Lpcrel_hi61>:
   175b6: 17 a5 ff ff  	auipc	a0, 1048570
   175ba: 13 05 25 5e  	addi	a0, a0, 1506
   175be: aa 95        	add	a1, a1, a0
   175c0: 88 61        	ld	a0, 0(a1)
   175c2: 8c 65        	ld	a1, 8(a1)
;     }
   175c4: 05 61        	addi	sp, sp, 32
   175c6: 82 80        	ret
;         LOG_LEVEL_NAMES[*self as usize]
   175c8: 22 65        	ld	a0, 8(sp)

00000000000175ca <.Lpcrel_hi62>:
   175ca: 97 a5 ff ff  	auipc	a1, 1048570
   175ce: 13 86 65 68  	addi	a2, a1, 1670
   175d2: 99 45        	li	a1, 6
   175d4: 97 10 00 00  	auipc	ra, 1
   175d8: e7 80 a0 93  	jalr	-1734(ra)
   175dc: 00 00        	unimp

00000000000175de <_ZN63_$LT$log..LevelFilter$u20$as$u20$core..str..traits..FromStr$GT$8from_str17h70dfb7c8bc217210E>:
;     fn from_str(level: &str) -> Result<LevelFilter, Self::Err> {
   175de: 5d 71        	addi	sp, sp, -80
   175e0: 86 e4        	sd	ra, 72(sp)
   175e2: 2e e8        	sd	a1, 16(sp)
   175e4: 2a e4        	sd	a0, 8(sp)
   175e6: 2a fc        	sd	a0, 56(sp)
   175e8: ae e0        	sd	a1, 64(sp)

00000000000175ea <.Lpcrel_hi63>:
;         LOG_LEVEL_NAMES
   175ea: 17 a5 ff ff  	auipc	a0, 1048570
   175ee: 13 05 e5 5a  	addi	a0, a0, 1454
   175f2: 99 45        	li	a1, 6
   175f4: 97 00 00 00  	auipc	ra, 0
   175f8: e7 80 80 9f  	jalr	-1544(ra)
   175fc: 2a 86        	mv	a2, a0
   175fe: 22 65        	ld	a0, 8(sp)
   17600: ae 86        	mv	a3, a1
   17602: c2 65        	ld	a1, 16(sp)
   17604: 36 f0        	sd	a3, 32(sp)
   17606: 32 ec        	sd	a2, 24(sp)
;             .position(|&name| name.eq_ignore_ascii_case(level))
   17608: 2a f4        	sd	a0, 40(sp)
   1760a: 2e f8        	sd	a1, 48(sp)
;         LOG_LEVEL_NAMES
   1760c: a2 75        	ld	a1, 40(sp)
   1760e: 42 76        	ld	a2, 48(sp)
   17610: 28 08        	addi	a0, sp, 24
   17612: 97 00 00 00  	auipc	ra, 0
   17616: e7 80 40 dc  	jalr	-572(ra)
   1761a: 97 00 00 00  	auipc	ra, 0
   1761e: e7 80 e0 b3  	jalr	-1218(ra)
   17622: 97 00 00 00  	auipc	ra, 0
   17626: e7 80 e0 b7  	jalr	-1154(ra)
;     }
   1762a: a6 60        	ld	ra, 72(sp)
   1762c: 61 61        	addi	sp, sp, 80
   1762e: 82 80        	ret

0000000000017630 <_ZN63_$LT$log..LevelFilter$u20$as$u20$core..str..traits..FromStr$GT$8from_str28_$u7b$$u7b$closure$u7d$$u7d$17h14487b9e041d20a3E>:
;             .position(|&name| name.eq_ignore_ascii_case(level))
   17630: 79 71        	addi	sp, sp, -48
   17632: 06 f4        	sd	ra, 40(sp)
   17634: aa 86        	mv	a3, a0
   17636: 36 e4        	sd	a3, 8(sp)
   17638: 2e e8        	sd	a1, 16(sp)
   1763a: 88 61        	ld	a0, 0(a1)
   1763c: 8c 65        	ld	a1, 8(a1)
   1763e: 2a ec        	sd	a0, 24(sp)
   17640: 2e f0        	sd	a1, 32(sp)
   17642: 90 62        	ld	a2, 0(a3)
   17644: 94 66        	ld	a3, 8(a3)
   17646: 97 f0 ff ff  	auipc	ra, 1048575
   1764a: e7 80 40 17  	jalr	372(ra)
   1764e: a2 70        	ld	ra, 40(sp)
   17650: 45 61        	addi	sp, sp, 48
   17652: 82 80        	ret

0000000000017654 <_ZN63_$LT$log..LevelFilter$u20$as$u20$core..str..traits..FromStr$GT$8from_str28_$u7b$$u7b$closure$u7d$$u7d$17hb5e0e081b429ea85E>:
;             .map(|p| LevelFilter::from_usize(p).unwrap())
   17654: 01 11        	addi	sp, sp, -32
   17656: 06 ec        	sd	ra, 24(sp)
   17658: 2a e8        	sd	a0, 16(sp)
   1765a: 97 00 00 00  	auipc	ra, 0
   1765e: e7 80 e0 01  	jalr	30(ra)

0000000000017662 <.Lpcrel_hi64>:
   17662: 97 a5 ff ff  	auipc	a1, 1048570
   17666: 93 85 65 60  	addi	a1, a1, 1542
   1766a: 97 00 00 00  	auipc	ra, 0
   1766e: e7 80 00 b7  	jalr	-1168(ra)
   17672: e2 60        	ld	ra, 24(sp)
   17674: 05 61        	addi	sp, sp, 32
   17676: 82 80        	ret

0000000000017678 <_ZN3log11LevelFilter10from_usize17h792ee421cfe8aaf5E>:
;     fn from_usize(u: usize) -> Option<LevelFilter> {
   17678: 5d 71        	addi	sp, sp, -80
   1767a: aa 85        	mv	a1, a0
   1767c: ae e4        	sd	a1, 72(sp)
;         match u {
   1767e: 2e 85        	mv	a0, a1
   17680: 2a e4        	sd	a0, 8(sp)
   17682: 15 45        	li	a0, 5
   17684: 63 6b b5 00  	bltu	a0, a1, 0x1769a <.Lpcrel_hi65+0xe>
   17688: 22 65        	ld	a0, 8(sp)
   1768a: 0e 05        	slli	a0, a0, 3

000000000001768c <.Lpcrel_hi65>:
   1768c: 97 a5 ff ff  	auipc	a1, 1048570
   17690: 93 85 45 02  	addi	a1, a1, 36
   17694: 2e 95        	add	a0, a0, a1
   17696: 08 61        	ld	a0, 0(a0)
   17698: 02 85        	jr	a0
   1769a: 19 45        	li	a0, 6
;             _ => None,
   1769c: 2a e8        	sd	a0, 16(sp)
   1769e: 3d a8        	j	0x176dc <.LBB77_8+0xa>

00000000000176a0 <.LBB77_3>:
   176a0: 01 45        	li	a0, 0
;             0 => Some(LevelFilter::Off),
   176a2: 2a ec        	sd	a0, 24(sp)
   176a4: 62 65        	ld	a0, 24(sp)
   176a6: 2a e8        	sd	a0, 16(sp)
   176a8: 15 a8        	j	0x176dc <.LBB77_8+0xa>

00000000000176aa <.LBB77_4>:
   176aa: 05 45        	li	a0, 1
;             1 => Some(LevelFilter::Error),
   176ac: 2a f0        	sd	a0, 32(sp)
   176ae: 02 75        	ld	a0, 32(sp)
   176b0: 2a e8        	sd	a0, 16(sp)
   176b2: 2d a0        	j	0x176dc <.LBB77_8+0xa>

00000000000176b4 <.LBB77_5>:
   176b4: 09 45        	li	a0, 2
;             2 => Some(LevelFilter::Warn),
   176b6: 2a f4        	sd	a0, 40(sp)
   176b8: 22 75        	ld	a0, 40(sp)
   176ba: 2a e8        	sd	a0, 16(sp)
   176bc: 05 a0        	j	0x176dc <.LBB77_8+0xa>

00000000000176be <.LBB77_6>:
   176be: 0d 45        	li	a0, 3
;             3 => Some(LevelFilter::Info),
   176c0: 2a f8        	sd	a0, 48(sp)
   176c2: 42 75        	ld	a0, 48(sp)
   176c4: 2a e8        	sd	a0, 16(sp)
   176c6: 19 a8        	j	0x176dc <.LBB77_8+0xa>

00000000000176c8 <.LBB77_7>:
   176c8: 11 45        	li	a0, 4
;             4 => Some(LevelFilter::Debug),
   176ca: 2a fc        	sd	a0, 56(sp)
   176cc: 62 75        	ld	a0, 56(sp)
   176ce: 2a e8        	sd	a0, 16(sp)
   176d0: 31 a0        	j	0x176dc <.LBB77_8+0xa>

00000000000176d2 <.LBB77_8>:
   176d2: 15 45        	li	a0, 5
;             5 => Some(LevelFilter::Trace),
   176d4: aa e0        	sd	a0, 64(sp)
   176d6: 06 65        	ld	a0, 64(sp)
   176d8: 2a e8        	sd	a0, 16(sp)
   176da: 09 a0        	j	0x176dc <.LBB77_8+0xa>
;     }
   176dc: 42 65        	ld	a0, 16(sp)
   176de: 61 61        	addi	sp, sp, 80
   176e0: 82 80        	ret

00000000000176e2 <_ZN3log6Record7builder17hb7ee7c882a5e2ba6E>:
;     pub fn builder() -> RecordBuilder<'a> {
   176e2: 41 11        	addi	sp, sp, -16
;         RecordBuilder::new()
   176e4: 06 e4        	sd	ra, 8(sp)
   176e6: 97 00 00 00  	auipc	ra, 0
   176ea: e7 80 e0 00  	jalr	14(ra)
;     }
   176ee: a2 60        	ld	ra, 8(sp)
   176f0: 41 01        	addi	sp, sp, 16
   176f2: 82 80        	ret

00000000000176f4 <_ZN3log13RecordBuilder3new17h49e1780698eef67cE>:
;     pub fn new() -> RecordBuilder<'a> {
   176f4: 29 71        	addi	sp, sp, -320
;                 args: format_args!(""),
   176f6: 06 fe        	sd	ra, 312(sp)
   176f8: 2a ec        	sd	a0, 24(sp)

00000000000176fa <.Lpcrel_hi68>:
   176fa: 17 a5 ff ff  	auipc	a0, 1048570
   176fe: 93 05 65 00  	addi	a1, a0, 6
   17702: 08 11        	addi	a0, sp, 160
   17704: 01 46        	li	a2, 0
   17706: 32 e8        	sd	a2, 16(sp)
   17708: 97 f0 ff ff  	auipc	ra, 1048575
   1770c: e7 80 60 f8  	jalr	-122(ra)
   17710: a8 11        	addi	a0, sp, 232
;                 metadata: Metadata::builder().build(),
   17712: 2a e4        	sd	a0, 8(sp)
   17714: 97 00 00 00  	auipc	ra, 0
   17718: e7 80 20 13  	jalr	306(ra)
   1771c: a2 65        	ld	a1, 8(sp)
   1771e: 88 09        	addi	a0, sp, 208
   17720: 97 00 00 00  	auipc	ra, 0
   17724: e7 80 20 16  	jalr	354(ra)
   17728: c2 65        	ld	a1, 16(sp)
   1772a: 62 65        	ld	a0, 24(sp)
   1772c: 09 46        	li	a2, 2
;                 module_path: None,
   1772e: 32 e2        	sd	a2, 256(sp)
;                 file: None,
   17730: 32 ee        	sd	a2, 280(sp)
;                 line: None,
   17732: 23 28 b1 12  	sw	a1, 304(sp)
;             record: Record {
   17736: 8e 75        	ld	a1, 224(sp)
   17738: ae f0        	sd	a1, 96(sp)
   1773a: ee 65        	ld	a1, 216(sp)
   1773c: ae ec        	sd	a1, 88(sp)
   1773e: ce 65        	ld	a1, 208(sp)
   17740: ae e8        	sd	a1, 80(sp)
   17742: ae 65        	ld	a1, 200(sp)
   17744: 2e ed        	sd	a1, 152(sp)
   17746: 8e 65        	ld	a1, 192(sp)
   17748: 2e e9        	sd	a1, 144(sp)
   1774a: ea 75        	ld	a1, 184(sp)
   1774c: 2e e5        	sd	a1, 136(sp)
   1774e: ca 75        	ld	a1, 176(sp)
   17750: 2e e1        	sd	a1, 128(sp)
   17752: aa 75        	ld	a1, 168(sp)
   17754: ae fc        	sd	a1, 120(sp)
   17756: 8a 75        	ld	a1, 160(sp)
   17758: ae f8        	sd	a1, 112(sp)
   1775a: d2 65        	ld	a1, 272(sp)
   1775c: 2e f8        	sd	a1, 48(sp)
   1775e: b2 65        	ld	a1, 264(sp)
   17760: 2e f4        	sd	a1, 40(sp)
   17762: 92 65        	ld	a1, 256(sp)
   17764: 2e f0        	sd	a1, 32(sp)
   17766: b2 75        	ld	a1, 296(sp)
   17768: ae e4        	sd	a1, 72(sp)
   1776a: 92 75        	ld	a1, 288(sp)
   1776c: ae e0        	sd	a1, 64(sp)
   1776e: f2 65        	ld	a1, 280(sp)
   17770: 2e fc        	sd	a1, 56(sp)
   17772: 03 26 01 13  	lw	a2, 304(sp)
   17776: 83 25 41 13  	lw	a1, 308(sp)
   1777a: b2 d4        	sw	a2, 104(sp)
   1777c: ae d6        	sw	a1, 108(sp)
   1777e: 0c 10        	addi	a1, sp, 32
   17780: 13 06 00 08  	li	a2, 128
;         RecordBuilder {
   17784: 97 20 00 00  	auipc	ra, 2
   17788: e7 80 e0 86  	jalr	-1938(ra)
;     }
   1778c: f2 70        	ld	ra, 312(sp)
   1778e: 31 61        	addi	sp, sp, 320
   17790: 82 80        	ret

0000000000017792 <_ZN3log13RecordBuilder4args17hcb3ab0f316271d32E>:
;     pub fn args(&mut self, args: fmt::Arguments<'a>) -> &mut RecordBuilder<'a> {
   17792: 41 11        	addi	sp, sp, -16
   17794: 2a e4        	sd	a0, 8(sp)
;         self.record.args = args;
   17796: 90 75        	ld	a2, 40(a1)
   17798: 30 fd        	sd	a2, 120(a0)
   1779a: 90 71        	ld	a2, 32(a1)
   1779c: 30 f9        	sd	a2, 112(a0)
   1779e: 90 6d        	ld	a2, 24(a1)
   177a0: 30 f5        	sd	a2, 104(a0)
   177a2: 90 69        	ld	a2, 16(a1)
   177a4: 30 f1        	sd	a2, 96(a0)
   177a6: 90 65        	ld	a2, 8(a1)
   177a8: 30 ed        	sd	a2, 88(a0)
   177aa: 8c 61        	ld	a1, 0(a1)
   177ac: 2c e9        	sd	a1, 80(a0)
;     }
   177ae: 41 01        	addi	sp, sp, 16
   177b0: 82 80        	ret

00000000000177b2 <_ZN3log13RecordBuilder5level17h26fdba16f739845cE>:
;     pub fn level(&mut self, level: Level) -> &mut RecordBuilder<'a> {
   177b2: 41 11        	addi	sp, sp, -16
   177b4: 2a e0        	sd	a0, 0(sp)
   177b6: 2e e4        	sd	a1, 8(sp)
;         self.record.metadata.level = level;
   177b8: 0c f9        	sd	a1, 48(a0)
;     }
   177ba: 41 01        	addi	sp, sp, 16
   177bc: 82 80        	ret

00000000000177be <_ZN3log13RecordBuilder6target17h3ba6c1a1002d25feE>:
;     pub fn target(&mut self, target: &'a str) -> &mut RecordBuilder<'a> {
   177be: 01 11        	addi	sp, sp, -32
   177c0: 2a e4        	sd	a0, 8(sp)
   177c2: 2e e8        	sd	a1, 16(sp)
   177c4: 32 ec        	sd	a2, 24(sp)
;         self.record.metadata.target = target;
   177c6: 0c fd        	sd	a1, 56(a0)
   177c8: 30 e1        	sd	a2, 64(a0)
;     }
   177ca: 05 61        	addi	sp, sp, 32
   177cc: 82 80        	ret

00000000000177ce <_ZN3log13RecordBuilder18module_path_static17hd4ec3ae138161695E>:
;     pub fn module_path_static(&mut self, path: Option<&'static str>) -> &mut RecordBuilder<'a> {
   177ce: 39 71        	addi	sp, sp, -64
   177d0: 06 fc        	sd	ra, 56(sp)
   177d2: 2a e0        	sd	a0, 0(sp)
   177d4: 2a f0        	sd	a0, 32(sp)
   177d6: 2e f4        	sd	a1, 40(sp)
   177d8: 32 f8        	sd	a2, 48(sp)
   177da: 28 00        	addi	a0, sp, 8
;         self.record.module_path = path.map(MaybeStaticStr::Static);
   177dc: 97 00 00 00  	auipc	ra, 0
   177e0: e7 80 c0 91  	jalr	-1764(ra)
   177e4: 02 65        	ld	a0, 0(sp)
   177e6: e2 65        	ld	a1, 24(sp)
   177e8: 0c e9        	sd	a1, 16(a0)
   177ea: c2 65        	ld	a1, 16(sp)
   177ec: 0c e5        	sd	a1, 8(a0)
   177ee: a2 65        	ld	a1, 8(sp)
   177f0: 0c e1        	sd	a1, 0(a0)
;     }
   177f2: e2 70        	ld	ra, 56(sp)
   177f4: 21 61        	addi	sp, sp, 64
   177f6: 82 80        	ret

00000000000177f8 <_ZN3log13RecordBuilder11file_static17hd37a299cc2ea5d2cE>:
;     pub fn file_static(&mut self, file: Option<&'static str>) -> &mut RecordBuilder<'a> {
   177f8: 39 71        	addi	sp, sp, -64
   177fa: 06 fc        	sd	ra, 56(sp)
   177fc: 2a e0        	sd	a0, 0(sp)
   177fe: 2a f0        	sd	a0, 32(sp)
   17800: 2e f4        	sd	a1, 40(sp)
   17802: 32 f8        	sd	a2, 48(sp)
   17804: 28 00        	addi	a0, sp, 8
;         self.record.file = file.map(MaybeStaticStr::Static);
   17806: 97 00 00 00  	auipc	ra, 0
   1780a: e7 80 20 8f  	jalr	-1806(ra)
   1780e: 02 65        	ld	a0, 0(sp)
   17810: e2 65        	ld	a1, 24(sp)
   17812: 0c f5        	sd	a1, 40(a0)
   17814: c2 65        	ld	a1, 16(sp)
   17816: 0c f1        	sd	a1, 32(a0)
   17818: a2 65        	ld	a1, 8(sp)
   1781a: 0c ed        	sd	a1, 24(a0)
;     }
   1781c: e2 70        	ld	ra, 56(sp)
   1781e: 21 61        	addi	sp, sp, 64
   17820: 82 80        	ret

0000000000017822 <_ZN3log13RecordBuilder4line17hedb843c98dacfe20E>:
;     pub fn line(&mut self, line: Option<u32>) -> &mut RecordBuilder<'a> {
   17822: 41 11        	addi	sp, sp, -16
   17824: 2a e0        	sd	a0, 0(sp)
   17826: 2e c4        	sw	a1, 8(sp)
   17828: 32 c6        	sw	a2, 12(sp)
;         self.record.line = line;
   1782a: 2c c5        	sw	a1, 72(a0)
   1782c: 70 c5        	sw	a2, 76(a0)
;     }
   1782e: 41 01        	addi	sp, sp, 16
   17830: 82 80        	ret

0000000000017832 <_ZN3log13RecordBuilder5build17hba9807480bb48ec0E>:
;     pub fn build(&self) -> Record<'a> {
   17832: 41 11        	addi	sp, sp, -16
   17834: 06 e4        	sd	ra, 8(sp)
   17836: 2e e0        	sd	a1, 0(sp)
;         self.record.clone()
   17838: 97 00 00 00  	auipc	ra, 0
   1783c: e7 80 e0 38  	jalr	910(ra)
;     }
   17840: a2 60        	ld	ra, 8(sp)
   17842: 41 01        	addi	sp, sp, 16
   17844: 82 80        	ret

0000000000017846 <_ZN3log8Metadata7builder17h269171f51cc0febdE>:
;     pub fn builder() -> MetadataBuilder<'a> {
   17846: 41 11        	addi	sp, sp, -16
;         MetadataBuilder::new()
   17848: 06 e4        	sd	ra, 8(sp)
   1784a: 97 00 00 00  	auipc	ra, 0
   1784e: e7 80 e0 00  	jalr	14(ra)
;     }
   17852: a2 60        	ld	ra, 8(sp)
   17854: 41 01        	addi	sp, sp, 16
   17856: 82 80        	ret

0000000000017858 <_ZN3log15MetadataBuilder3new17hb9c4620a0e7d086eE>:
;     pub fn new() -> MetadataBuilder<'a> {
   17858: 01 11        	addi	sp, sp, -32
   1785a: aa 85        	mv	a1, a0
   1785c: 0d 45        	li	a0, 3
;                 level: Level::Info,
   1785e: 2a ec        	sd	a0, 24(sp)
;             metadata: Metadata {
   17860: 62 65        	ld	a0, 24(sp)
   17862: 2a e0        	sd	a0, 0(sp)

0000000000017864 <.Lpcrel_hi69>:
   17864: 17 a5 ff ff  	auipc	a0, 1048570
   17868: 13 05 c5 e9  	addi	a0, a0, -356
   1786c: 2a e4        	sd	a0, 8(sp)
   1786e: 01 45        	li	a0, 0
   17870: 2a e8        	sd	a0, 16(sp)
;         MetadataBuilder {
   17872: 42 65        	ld	a0, 16(sp)
   17874: 88 e9        	sd	a0, 16(a1)
   17876: 22 65        	ld	a0, 8(sp)
   17878: 88 e5        	sd	a0, 8(a1)
   1787a: 02 65        	ld	a0, 0(sp)
   1787c: 88 e1        	sd	a0, 0(a1)
;     }
   1787e: 05 61        	addi	sp, sp, 32
   17880: 82 80        	ret

0000000000017882 <_ZN3log15MetadataBuilder5build17h3b3ea45661a935b9E>:
;     pub fn build(&self) -> Metadata<'a> {
   17882: 41 11        	addi	sp, sp, -16
   17884: 06 e4        	sd	ra, 8(sp)
   17886: 2e e0        	sd	a1, 0(sp)
;         self.metadata.clone()
   17888: 97 00 00 00  	auipc	ra, 0
   1788c: e7 80 80 3d  	jalr	984(ra)
;     }
   17890: a2 60        	ld	ra, 8(sp)
   17892: 41 01        	addi	sp, sp, 16
   17894: 82 80        	ret

0000000000017896 <_ZN43_$LT$log..NopLogger$u20$as$u20$log..Log$GT$7enabled17h3f5647394e0ad16dE>:
;     fn enabled(&self, _: &Metadata) -> bool {
   17896: 41 11        	addi	sp, sp, -16
   17898: 2a e0        	sd	a0, 0(sp)
   1789a: 2e e4        	sd	a1, 8(sp)
   1789c: 01 45        	li	a0, 0
;     }
   1789e: 41 01        	addi	sp, sp, 16
   178a0: 82 80        	ret

00000000000178a2 <_ZN43_$LT$log..NopLogger$u20$as$u20$log..Log$GT$3log17h2116ede9c03e2901E>:
;     fn log(&self, _: &Record) {}
   178a2: 41 11        	addi	sp, sp, -16
   178a4: 2a e0        	sd	a0, 0(sp)
   178a6: 2e e4        	sd	a1, 8(sp)
   178a8: 41 01        	addi	sp, sp, 16
   178aa: 82 80        	ret

00000000000178ac <_ZN43_$LT$log..NopLogger$u20$as$u20$log..Log$GT$5flush17h55a9b68775917593E>:
;     fn flush(&self) {}
   178ac: 41 11        	addi	sp, sp, -16
   178ae: 2a e4        	sd	a0, 8(sp)
   178b0: 41 01        	addi	sp, sp, 16
   178b2: 82 80        	ret

00000000000178b4 <_ZN3log10set_logger17h26c40897e22c56aaE>:
; pub fn set_logger(logger: &'static dyn Log) -> Result<(), SetLoggerError> {
   178b4: 79 71        	addi	sp, sp, -48
   178b6: 06 f4        	sd	ra, 40(sp)
   178b8: 2a ec        	sd	a0, 24(sp)
   178ba: 2e f0        	sd	a1, 32(sp)
;     set_logger_inner(|| logger)
   178bc: 2a e4        	sd	a0, 8(sp)
   178be: 2e e8        	sd	a1, 16(sp)
   178c0: 22 65        	ld	a0, 8(sp)
   178c2: c2 65        	ld	a1, 16(sp)
   178c4: 97 00 00 00  	auipc	ra, 0
   178c8: e7 80 c0 01  	jalr	28(ra)
; }
   178cc: a2 70        	ld	ra, 40(sp)
   178ce: 45 61        	addi	sp, sp, 48
   178d0: 82 80        	ret

00000000000178d2 <_ZN3log10set_logger28_$u7b$$u7b$closure$u7d$$u7d$17he2d4a5c827eac340E>:
;     set_logger_inner(|| logger)
   178d2: 41 11        	addi	sp, sp, -16
   178d4: 2a e0        	sd	a0, 0(sp)
   178d6: 2e e4        	sd	a1, 8(sp)
   178d8: 02 65        	ld	a0, 0(sp)
   178da: a2 65        	ld	a1, 8(sp)
   178dc: 41 01        	addi	sp, sp, 16
   178de: 82 80        	ret

00000000000178e0 <_ZN3log16set_logger_inner17h9304b7a71ca427d6E>:
; fn set_logger_inner<F>(make_logger: F) -> Result<(), SetLoggerError>
   178e0: 5d 71        	addi	sp, sp, -80
   178e2: 86 e4        	sd	ra, 72(sp)
   178e4: 2e e4        	sd	a1, 8(sp)
   178e6: 2a e8        	sd	a0, 16(sp)
   178e8: 2a fc        	sd	a0, 56(sp)
   178ea: ae e0        	sd	a1, 64(sp)
   178ec: 81 45        	li	a1, 0
;     match STATE.compare_exchange(
   178ee: a3 0b b1 02  	sb	a1, 55(sp)
   178f2: 05 46        	li	a2, 1
   178f4: a3 0b c1 02  	sb	a2, 55(sp)
   178f8: 09 45        	li	a0, 2
;         Ordering::Acquire,
   178fa: a3 09 a1 02  	sb	a0, 51(sp)
;         Ordering::Relaxed,
   178fe: 23 0a b1 02  	sb	a1, 52(sp)
;     match STATE.compare_exchange(
   17902: 03 47 41 03  	lbu	a4, 52(sp)
   17906: 83 46 31 03  	lbu	a3, 51(sp)

000000000001790a <.Lpcrel_hi70>:
   1790a: 17 35 00 00  	auipc	a0, 3
   1790e: 13 05 e5 9b  	addi	a0, a0, -1602
   17912: 97 f0 ff ff  	auipc	ra, 1048575
   17916: e7 80 e0 fd  	jalr	-34(ra)
   1791a: 2e f4        	sd	a1, 40(sp)
   1791c: 2a f0        	sd	a0, 32(sp)
   1791e: 02 75        	ld	a0, 32(sp)
   17920: 09 e5        	bnez	a0, 0x1792a <.Lpcrel_hi70+0x20>
   17922: 09 a0        	j	0x17924 <.Lpcrel_hi70+0x1a>
   17924: 22 75        	ld	a0, 40(sp)
   17926: 19 c5        	beqz	a0, 0x17934 <.Lpcrel_hi70+0x2a>
   17928: 89 a8        	j	0x1797a <.Lpcrel_hi72+0x1a>
   1792a: 22 75        	ld	a0, 40(sp)
   1792c: 85 45        	li	a1, 1
   1792e: 63 0f b5 04  	beq	a0, a1, 0x1798c <.Lpcrel_hi72+0x2c>
   17932: a1 a0        	j	0x1797a <.Lpcrel_hi72+0x1a>
   17934: a2 65        	ld	a1, 8(sp)
   17936: 42 65        	ld	a0, 16(sp)
   17938: 01 46        	li	a2, 0
;                 LOGGER = make_logger();
   1793a: 32 e0        	sd	a2, 0(sp)
   1793c: a3 0b c1 02  	sb	a2, 55(sp)
   17940: 97 00 00 00  	auipc	ra, 0
   17944: e7 80 20 f9  	jalr	-110(ra)
   17948: 2a 86        	mv	a2, a0

000000000001794a <.Lpcrel_hi71>:
   1794a: 17 25 00 00  	auipc	a0, 2
   1794e: 13 05 65 76  	addi	a0, a0, 1894
   17952: 10 e1        	sd	a2, 0(a0)
   17954: 0c e5        	sd	a1, 8(a0)
   17956: 05 45        	li	a0, 1
;             STATE.store(INITIALIZED, Ordering::Release);
   17958: a3 0a a1 02  	sb	a0, 53(sp)
   1795c: 03 46 51 03  	lbu	a2, 53(sp)

0000000000017960 <.Lpcrel_hi72>:
   17960: 17 35 00 00  	auipc	a0, 3
   17964: 13 05 85 96  	addi	a0, a0, -1688
   17968: 89 45        	li	a1, 2
   1796a: 97 f0 ff ff  	auipc	ra, 1048575
   1796e: e7 80 20 fc  	jalr	-62(ra)
   17972: 02 65        	ld	a0, 0(sp)
;             Ok(())
   17974: a3 0f a1 00  	sb	a0, 31(sp)
   17978: 29 a0        	j	0x17982 <.Lpcrel_hi72+0x22>
   1797a: 05 45        	li	a0, 1
;         _ => Err(SetLoggerError(())),
   1797c: a3 0f a1 00  	sb	a0, 31(sp)
   17980: 09 a0        	j	0x17982 <.Lpcrel_hi72+0x22>
; }
   17982: 03 45 71 03  	lbu	a0, 55(sp)
   17986: 05 89        	andi	a0, a0, 1
   17988: 1d ed        	bnez	a0, 0x179c6 <.Lpcrel_hi73+0x30>
   1798a: 0d a8        	j	0x179bc <.Lpcrel_hi73+0x26>
   1798c: 01 45        	li	a0, 0
;             while STATE.load(Ordering::Relaxed) == INITIALIZING {
   1798e: 23 0b a1 02  	sb	a0, 54(sp)
   17992: 83 45 61 03  	lbu	a1, 54(sp)

0000000000017996 <.Lpcrel_hi73>:
   17996: 17 35 00 00  	auipc	a0, 3
   1799a: 13 05 25 93  	addi	a0, a0, -1742
   1799e: 97 f0 ff ff  	auipc	ra, 1048575
   179a2: e7 80 40 f7  	jalr	-140(ra)
   179a6: 85 45        	li	a1, 1
   179a8: 63 07 b5 00  	beq	a0, a1, 0x179b6 <.Lpcrel_hi73+0x20>
   179ac: 09 a0        	j	0x179ae <.Lpcrel_hi73+0x18>
   179ae: 05 45        	li	a0, 1
;             Err(SetLoggerError(()))
   179b0: a3 0f a1 00  	sb	a0, 31(sp)
   179b4: f9 b7        	j	0x17982 <.Lpcrel_hi72+0x22>
   179b6: 0f 00 00 01  	fence	w, 0
;                 std::hint::spin_loop();
   179ba: c9 bf        	j	0x1798c <.Lpcrel_hi72+0x2c>
; }
   179bc: 03 45 f1 01  	lbu	a0, 31(sp)
   179c0: a6 60        	ld	ra, 72(sp)
   179c2: 61 61        	addi	sp, sp, 80
   179c4: 82 80        	ret
   179c6: dd bf        	j	0x179bc <.Lpcrel_hi73+0x26>

00000000000179c8 <_ZN3log6logger17hf9f311d6004ae56dE>:
; pub fn logger() -> &'static dyn Log {
   179c8: 79 71        	addi	sp, sp, -48
   179ca: 06 f4        	sd	ra, 40(sp)
   179cc: 09 45        	li	a0, 2
;     if STATE.load(Ordering::Acquire) != INITIALIZED {
   179ce: 2a e4        	sd	a0, 8(sp)
   179d0: a3 03 a1 02  	sb	a0, 39(sp)
   179d4: 83 45 71 02  	lbu	a1, 39(sp)

00000000000179d8 <.Lpcrel_hi81>:
   179d8: 17 35 00 00  	auipc	a0, 3
   179dc: 13 05 05 8f  	addi	a0, a0, -1808
   179e0: 97 f0 ff ff  	auipc	ra, 1048575
   179e4: e7 80 20 f3  	jalr	-206(ra)
   179e8: a2 65        	ld	a1, 8(sp)
   179ea: 63 1c b5 00  	bne	a0, a1, 0x17a02 <.Lpcrel_hi83>
   179ee: 09 a0        	j	0x179f0 <.Lpcrel_hi82>

00000000000179f0 <.Lpcrel_hi82>:
;         unsafe { LOGGER }
   179f0: 17 25 00 00  	auipc	a0, 2
   179f4: 13 05 05 6c  	addi	a0, a0, 1728
   179f8: 0c 61        	ld	a1, 0(a0)
   179fa: 08 65        	ld	a0, 8(a0)
   179fc: 2e e8        	sd	a1, 16(sp)
   179fe: 2a ec        	sd	a0, 24(sp)
;     if STATE.load(Ordering::Acquire) != INITIALIZED {
   17a00: 21 a8        	j	0x17a18 <.Lpcrel_hi84+0xc>

0000000000017a02 <.Lpcrel_hi83>:
;         &NOP
   17a02: 17 a5 ff ff  	auipc	a0, 1048570
   17a06: 13 05 e5 27  	addi	a0, a0, 638
   17a0a: 2a e8        	sd	a0, 16(sp)

0000000000017a0c <.Lpcrel_hi84>:
   17a0c: 17 a5 ff ff  	auipc	a0, 1048570
   17a10: 13 05 45 14  	addi	a0, a0, 324
   17a14: 2a ec        	sd	a0, 24(sp)
;     if STATE.load(Ordering::Acquire) != INITIALIZED {
   17a16: 09 a0        	j	0x17a18 <.Lpcrel_hi84+0xc>
   17a18: 42 65        	ld	a0, 16(sp)
   17a1a: e2 65        	ld	a1, 24(sp)
; }
   17a1c: a2 70        	ld	ra, 40(sp)
   17a1e: 45 61        	addi	sp, sp, 48
   17a20: 82 80        	ret

0000000000017a22 <_ZN3log13__private_api8log_impl17h32a52ddb6ea4784cE>:
; fn log_impl(
   17a22: 13 01 01 db  	addi	sp, sp, -592
   17a26: 23 34 11 24  	sd	ra, 584(sp)
   17a2a: ae e0        	sd	a1, 64(sp)
;     args: Arguments,
   17a2c: aa e4        	sd	a0, 72(sp)
   17a2e: b6 fc        	sd	a3, 120(sp)
   17a30: 3a e1        	sd	a4, 128(sp)
   17a32: ae f3        	sd	a1, 480(sp)
   17a34: b2 f7        	sd	a2, 488(sp)
;     &(target, module_path, loc): &(&str, &'static str, &'static Location),
   17a36: 0c 62        	ld	a1, 0(a2)
   17a38: ae e8        	sd	a1, 80(sp)
   17a3a: 08 66        	ld	a0, 8(a2)
   17a3c: aa ec        	sd	a0, 88(sp)
   17a3e: ae fb        	sd	a1, 496(sp)
   17a40: aa ff        	sd	a0, 504(sp)
   17a42: 0c 6a        	ld	a1, 16(a2)
   17a44: ae f0        	sd	a1, 96(sp)
   17a46: 08 6e        	ld	a0, 24(a2)
   17a48: aa f4        	sd	a0, 104(sp)
   17a4a: 23 30 b1 20  	sd	a1, 512(sp)
   17a4e: 23 34 a1 20  	sd	a0, 520(sp)
   17a52: 08 72        	ld	a0, 32(a2)
   17a54: aa f8        	sd	a0, 112(sp)
   17a56: 23 38 a1 20  	sd	a0, 528(sp)
   17a5a: a8 18        	addi	a0, sp, 120
;     if kvs.is_some() {
   17a5c: 97 f0 ff ff  	auipc	ra, 1048575
   17a60: e7 80 e0 7a  	jalr	1966(ra)
   17a64: 6d e5        	bnez	a0, 0x17b4e <.Lpcrel_hi85>
   17a66: 09 a0        	j	0x17a68 <_ZN3log13__private_api8log_impl17h32a52ddb6ea4784cE+0x46>
   17a68: 28 19        	addi	a0, sp, 184
;     let mut builder = Record::builder();
   17a6a: 2a f0        	sd	a0, 32(sp)
   17a6c: 97 00 00 00  	auipc	ra, 0
   17a70: e7 80 60 c7  	jalr	-906(ra)
   17a74: a6 65        	ld	a1, 72(sp)
   17a76: 02 75        	ld	a0, 32(sp)
;     builder
   17a78: 90 75        	ld	a2, 40(a1)
   17a7a: 23 30 c1 24  	sd	a2, 576(sp)
   17a7e: 90 71        	ld	a2, 32(a1)
   17a80: 23 3c c1 22  	sd	a2, 568(sp)
   17a84: 90 6d        	ld	a2, 24(a1)
   17a86: 23 38 c1 22  	sd	a2, 560(sp)
   17a8a: 90 69        	ld	a2, 16(a1)
   17a8c: 23 34 c1 22  	sd	a2, 552(sp)
   17a90: 90 65        	ld	a2, 8(a1)
   17a92: 23 30 c1 22  	sd	a2, 544(sp)
   17a96: 8c 61        	ld	a1, 0(a1)
   17a98: 23 3c b1 20  	sd	a1, 536(sp)
   17a9c: 2c 0c        	addi	a1, sp, 536
   17a9e: 97 00 00 00  	auipc	ra, 0
   17aa2: e7 80 40 cf  	jalr	-780(ra)
   17aa6: 86 65        	ld	a1, 64(sp)
   17aa8: 97 00 00 00  	auipc	ra, 0
   17aac: e7 80 a0 d0  	jalr	-758(ra)
   17ab0: c6 65        	ld	a1, 80(sp)
   17ab2: 66 66        	ld	a2, 88(sp)
   17ab4: 97 00 00 00  	auipc	ra, 0
   17ab8: e7 80 a0 d0  	jalr	-758(ra)
   17abc: 06 76        	ld	a2, 96(sp)
   17abe: a6 75        	ld	a1, 104(sp)
;         .module_path_static(Some(module_path))
   17ac0: 32 fe        	sd	a2, 312(sp)
   17ac2: ae e2        	sd	a1, 320(sp)
;     builder
   17ac4: f2 75        	ld	a1, 312(sp)
   17ac6: 16 66        	ld	a2, 320(sp)
   17ac8: 97 00 00 00  	auipc	ra, 0
   17acc: e7 80 60 d0  	jalr	-762(ra)
   17ad0: aa 85        	mv	a1, a0
;         .file_static(Some(loc.file()))
   17ad2: 46 75        	ld	a0, 112(sp)
   17ad4: 2e e8        	sd	a1, 16(sp)
   17ad6: 97 f0 ff ff  	auipc	ra, 1048575
   17ada: e7 80 40 4f  	jalr	1268(ra)
   17ade: 2a 86        	mv	a2, a0
   17ae0: 42 65        	ld	a0, 16(sp)
   17ae2: b2 e6        	sd	a2, 328(sp)
   17ae4: ae ea        	sd	a1, 336(sp)
;     builder
   17ae6: b6 65        	ld	a1, 328(sp)
   17ae8: 56 66        	ld	a2, 336(sp)
   17aea: 97 00 00 00  	auipc	ra, 0
   17aee: e7 80 e0 d0  	jalr	-754(ra)
   17af2: aa 85        	mv	a1, a0
;         .line(Some(loc.line()));
   17af4: 46 75        	ld	a0, 112(sp)
   17af6: 2e ec        	sd	a1, 24(sp)
   17af8: 97 f0 ff ff  	auipc	ra, 1048575
   17afc: e7 80 00 4e  	jalr	1248(ra)
   17b00: aa 85        	mv	a1, a0
   17b02: 62 65        	ld	a0, 24(sp)
   17b04: 23 2e b1 14  	sw	a1, 348(sp)
   17b08: 85 45        	li	a1, 1
   17b0a: 23 2c b1 14  	sw	a1, 344(sp)
;     builder
   17b0e: 03 26 c1 15  	lw	a2, 348(sp)
   17b12: 83 25 81 15  	lw	a1, 344(sp)
   17b16: 97 00 00 00  	auipc	ra, 0
   17b1a: e7 80 c0 d0  	jalr	-756(ra)
;     crate::logger().log(&builder.build());
   17b1e: 97 00 00 00  	auipc	ra, 0
   17b22: e7 80 a0 ea  	jalr	-342(ra)
   17b26: 2a f8        	sd	a0, 48(sp)
   17b28: 2e 85        	mv	a0, a1
   17b2a: 82 75        	ld	a1, 32(sp)
   17b2c: 2a f4        	sd	a0, 40(sp)
   17b2e: 88 12        	addi	a0, sp, 352
   17b30: 2a fc        	sd	a0, 56(sp)
   17b32: 97 00 00 00  	auipc	ra, 0
   17b36: e7 80 00 d0  	jalr	-768(ra)
   17b3a: 22 76        	ld	a2, 40(sp)
   17b3c: 42 75        	ld	a0, 48(sp)
   17b3e: e2 75        	ld	a1, 56(sp)
   17b40: 10 72        	ld	a2, 32(a2)
   17b42: 02 96        	jalr	a2
; }
   17b44: 83 30 81 24  	ld	ra, 584(sp)
   17b48: 13 01 01 25  	addi	sp, sp, 592
   17b4c: 82 80        	ret

0000000000017b4e <.Lpcrel_hi85>:
;         panic!("key-value support is experimental and must be enabled using the `kv` feature")
   17b4e: 17 a5 ff ff  	auipc	a0, 1048570
   17b52: 93 05 25 18  	addi	a1, a0, 386
   17b56: 28 01        	addi	a0, sp, 136
   17b58: 2a e4        	sd	a0, 8(sp)
   17b5a: 05 46        	li	a2, 1
   17b5c: 97 f0 ff ff  	auipc	ra, 1048575
   17b60: e7 80 20 b3  	jalr	-1230(ra)
   17b64: 22 65        	ld	a0, 8(sp)

0000000000017b66 <.Lpcrel_hi86>:
   17b66: 97 a5 ff ff  	auipc	a1, 1048570
   17b6a: 93 85 a5 1d  	addi	a1, a1, 474
   17b6e: 97 00 00 00  	auipc	ra, 0
   17b72: e7 80 60 34  	jalr	838(ra)
   17b76: 00 00        	unimp

0000000000017b78 <_ZN3log13__private_api3loc17h9400e192fd444fccE>:
; pub fn loc() -> &'static Location<'static> {
   17b78: 41 11        	addi	sp, sp, -16
;     Location::caller()
   17b7a: 06 e4        	sd	ra, 8(sp)
   17b7c: 97 f0 ff ff  	auipc	ra, 1048575
   17b80: e7 80 60 46  	jalr	1126(ra)
; }
   17b84: a2 60        	ld	ra, 8(sp)
   17b86: 41 01        	addi	sp, sp, 16
   17b88: 82 80        	ret

0000000000017b8a <_ZN49_$LT$log..Level$u20$as$u20$core..clone..Clone$GT$5clone17h10e18f4368f8e58dE>:
; #[derive(Clone, Copy, PartialEq, Eq, PartialOrd, Ord, Debug, Hash)]
   17b8a: 41 11        	addi	sp, sp, -16
   17b8c: 2a e4        	sd	a0, 8(sp)
   17b8e: 08 61        	ld	a0, 0(a0)
   17b90: 41 01        	addi	sp, sp, 16
   17b92: 82 80        	ret

0000000000017b94 <_ZN3log14MaybeStaticStr6Static17h6551125f8f86a5d3E>:
;     Static(&'static str),
   17b94: 01 11        	addi	sp, sp, -32
   17b96: 2e e4        	sd	a1, 8(sp)
   17b98: aa 85        	mv	a1, a0
   17b9a: 22 65        	ld	a0, 8(sp)
   17b9c: 2a e8        	sd	a0, 16(sp)
   17b9e: 32 ec        	sd	a2, 24(sp)
   17ba0: 88 e5        	sd	a0, 8(a1)
   17ba2: 90 e9        	sd	a2, 16(a1)
   17ba4: 01 45        	li	a0, 0
   17ba6: 88 e1        	sd	a0, 0(a1)
   17ba8: 05 61        	addi	sp, sp, 32
   17baa: 82 80        	ret

0000000000017bac <_ZN58_$LT$log..MaybeStaticStr$u20$as$u20$core..clone..Clone$GT$5clone17hea3498b21a4365ddE>:
; #[derive(Copy, Clone, Eq, PartialEq, Ord, PartialOrd, Hash, Debug)]
   17bac: 41 11        	addi	sp, sp, -16
   17bae: 2e e0        	sd	a1, 0(sp)
   17bb0: aa 85        	mv	a1, a0
   17bb2: 02 65        	ld	a0, 0(sp)
   17bb4: 2a e4        	sd	a0, 8(sp)
   17bb6: 10 69        	ld	a2, 16(a0)
   17bb8: 90 e9        	sd	a2, 16(a1)
   17bba: 10 65        	ld	a2, 8(a0)
   17bbc: 90 e5        	sd	a2, 8(a1)
   17bbe: 08 61        	ld	a0, 0(a0)
   17bc0: 88 e1        	sd	a0, 0(a1)
   17bc2: 41 01        	addi	sp, sp, 16
   17bc4: 82 80        	ret

0000000000017bc6 <_ZN50_$LT$log..Record$u20$as$u20$core..clone..Clone$GT$5clone17h62c18c8b20603854E>:
; #[derive(Clone, Debug)]
   17bc6: 35 71        	addi	sp, sp, -160
   17bc8: 06 ed        	sd	ra, 152(sp)
   17bca: 2e e4        	sd	a1, 8(sp)
   17bcc: 2a e8        	sd	a0, 16(sp)
   17bce: 2e e9        	sd	a1, 144(sp)
;     metadata: Metadata<'a>,
   17bd0: 93 85 05 03  	addi	a1, a1, 48
   17bd4: 28 08        	addi	a0, sp, 24
   17bd6: 97 00 00 00  	auipc	ra, 0
   17bda: e7 80 a0 08  	jalr	138(ra)
   17bde: a2 65        	ld	a1, 8(sp)
;     args: fmt::Arguments<'a>,
   17be0: 93 85 05 05  	addi	a1, a1, 80
   17be4: 08 18        	addi	a0, sp, 48
   17be6: 97 f0 ff ff  	auipc	ra, 1048575
   17bea: e7 80 20 63  	jalr	1586(ra)
   17bee: a2 65        	ld	a1, 8(sp)
   17bf0: 88 10        	addi	a0, sp, 96
;     module_path: Option<MaybeStaticStr<'a>>,
   17bf2: 97 f0 ff ff  	auipc	ra, 1048575
   17bf6: e7 80 c0 64  	jalr	1612(ra)
   17bfa: a2 65        	ld	a1, 8(sp)
;     file: Option<MaybeStaticStr<'a>>,
   17bfc: e1 05        	addi	a1, a1, 24
   17bfe: a8 18        	addi	a0, sp, 120
   17c00: 97 f0 ff ff  	auipc	ra, 1048575
   17c04: e7 80 e0 63  	jalr	1598(ra)
   17c08: a2 65        	ld	a1, 8(sp)
;     line: Option<u32>,
   17c0a: 13 85 85 04  	addi	a0, a1, 72
   17c0e: 97 f0 ff ff  	auipc	ra, 1048575
   17c12: e7 80 00 67  	jalr	1648(ra)
   17c16: 2a 86        	mv	a2, a0
   17c18: 42 65        	ld	a0, 16(sp)
; #[derive(Clone, Debug)]
   17c1a: a2 76        	ld	a3, 40(sp)
   17c1c: 34 e1        	sd	a3, 64(a0)
   17c1e: 82 76        	ld	a3, 32(sp)
   17c20: 14 fd        	sd	a3, 56(a0)
   17c22: e2 66        	ld	a3, 24(sp)
   17c24: 14 f9        	sd	a3, 48(a0)
   17c26: e6 66        	ld	a3, 88(sp)
   17c28: 34 fd        	sd	a3, 120(a0)
   17c2a: c6 66        	ld	a3, 80(sp)
   17c2c: 34 f9        	sd	a3, 112(a0)
   17c2e: a6 66        	ld	a3, 72(sp)
   17c30: 34 f5        	sd	a3, 104(a0)
   17c32: 86 66        	ld	a3, 64(sp)
   17c34: 34 f1        	sd	a3, 96(a0)
   17c36: e2 76        	ld	a3, 56(sp)
   17c38: 34 ed        	sd	a3, 88(a0)
   17c3a: c2 76        	ld	a3, 48(sp)
   17c3c: 34 e9        	sd	a3, 80(a0)
   17c3e: c6 76        	ld	a3, 112(sp)
   17c40: 14 e9        	sd	a3, 16(a0)
   17c42: a6 76        	ld	a3, 104(sp)
   17c44: 14 e5        	sd	a3, 8(a0)
   17c46: 86 76        	ld	a3, 96(sp)
   17c48: 14 e1        	sd	a3, 0(a0)
   17c4a: aa 66        	ld	a3, 136(sp)
   17c4c: 14 f5        	sd	a3, 40(a0)
   17c4e: 8a 66        	ld	a3, 128(sp)
   17c50: 14 f1        	sd	a3, 32(a0)
   17c52: e6 76        	ld	a3, 120(sp)
   17c54: 14 ed        	sd	a3, 24(a0)
   17c56: 30 c5        	sw	a2, 72(a0)
   17c58: 6c c5        	sw	a1, 76(a0)
   17c5a: ea 60        	ld	ra, 152(sp)
   17c5c: 0d 61        	addi	sp, sp, 160
   17c5e: 82 80        	ret

0000000000017c60 <_ZN52_$LT$log..Metadata$u20$as$u20$core..clone..Clone$GT$5clone17hbc075928a7bd51fcE>:
; #[derive(Clone, Eq, PartialEq, Ord, PartialOrd, Hash, Debug)]
   17c60: 79 71        	addi	sp, sp, -48
   17c62: 06 f4        	sd	ra, 40(sp)
   17c64: 2e e8        	sd	a1, 16(sp)
   17c66: aa 85        	mv	a1, a0
   17c68: 42 65        	ld	a0, 16(sp)
   17c6a: 2e e4        	sd	a1, 8(sp)
   17c6c: 2a ec        	sd	a0, 24(sp)
;     level: Level,
   17c6e: 97 00 00 00  	auipc	ra, 0
   17c72: e7 80 c0 f1  	jalr	-228(ra)
   17c76: a2 65        	ld	a1, 8(sp)
   17c78: aa 86        	mv	a3, a0
;     target: &'a str,
   17c7a: 42 65        	ld	a0, 16(sp)
   17c7c: 13 06 85 00  	addi	a2, a0, 8
   17c80: 32 f0        	sd	a2, 32(sp)
   17c82: 10 65        	ld	a2, 8(a0)
   17c84: 08 69        	ld	a0, 16(a0)
; #[derive(Clone, Eq, PartialEq, Ord, PartialOrd, Hash, Debug)]
   17c86: 94 e1        	sd	a3, 0(a1)
   17c88: 90 e5        	sd	a2, 8(a1)
   17c8a: 88 e9        	sd	a0, 16(a1)
   17c8c: a2 70        	ld	ra, 40(sp)
   17c8e: 45 61        	addi	sp, sp, 48
   17c90: 82 80        	ret

0000000000017c92 <_ZN4core3ptr7mut_ptr58_$LT$impl$u20$core..cmp..Ord$u20$for$u20$$BP$mut$u20$T$GT$3cmp17h2b8111e10d33b9d5E>:
   17c92: 1d 71        	addi	sp, sp, -96
   17c94: 2a e0        	sd	a0, 0(sp)
   17c96: 2e e4        	sd	a1, 8(sp)
   17c98: 0a 85        	mv	a0, sp
   17c9a: 2a f0        	sd	a0, 32(sp)
   17c9c: 22 65        	ld	a0, 8(sp)
   17c9e: 2a ec        	sd	a0, 24(sp)
   17ca0: 28 08        	addi	a0, sp, 24
   17ca2: 2a f4        	sd	a0, 40(sp)
   17ca4: 02 65        	ld	a0, 0(sp)
   17ca6: 2a f8        	sd	a0, 48(sp)
   17ca8: e2 65        	ld	a1, 24(sp)
   17caa: 2e fc        	sd	a1, 56(sp)
   17cac: 08 61        	ld	a0, 0(a0)
   17cae: 8c 61        	ld	a1, 0(a1)
   17cb0: 63 60 b5 02  	bltu	a0, a1, 0x17cd0 <_ZN4core3ptr7mut_ptr58_$LT$impl$u20$core..cmp..Ord$u20$for$u20$$BP$mut$u20$T$GT$3cmp17h2b8111e10d33b9d5E+0x3e>
   17cb4: 09 a0        	j	0x17cb6 <_ZN4core3ptr7mut_ptr58_$LT$impl$u20$core..cmp..Ord$u20$for$u20$$BP$mut$u20$T$GT$3cmp17h2b8111e10d33b9d5E+0x24>
   17cb6: 0a 85        	mv	a0, sp
   17cb8: aa e0        	sd	a0, 64(sp)
   17cba: 28 00        	addi	a0, sp, 8
   17cbc: aa e4        	sd	a0, 72(sp)
   17cbe: 02 65        	ld	a0, 0(sp)
   17cc0: aa e8        	sd	a0, 80(sp)
   17cc2: a2 65        	ld	a1, 8(sp)
   17cc4: ae ec        	sd	a1, 88(sp)
   17cc6: 08 61        	ld	a0, 0(a0)
   17cc8: 8c 61        	ld	a1, 0(a1)
   17cca: 63 0c b5 00  	beq	a0, a1, 0x17ce2 <_ZN4core3ptr7mut_ptr58_$LT$impl$u20$core..cmp..Ord$u20$for$u20$$BP$mut$u20$T$GT$3cmp17h2b8111e10d33b9d5E+0x50>
   17cce: 31 a0        	j	0x17cda <_ZN4core3ptr7mut_ptr58_$LT$impl$u20$core..cmp..Ord$u20$for$u20$$BP$mut$u20$T$GT$3cmp17h2b8111e10d33b9d5E+0x48>
   17cd0: 13 05 f0 0f  	li	a0, 255
   17cd4: a3 0b a1 00  	sb	a0, 23(sp)
   17cd8: 11 a8        	j	0x17cec <_ZN4core3ptr7mut_ptr58_$LT$impl$u20$core..cmp..Ord$u20$for$u20$$BP$mut$u20$T$GT$3cmp17h2b8111e10d33b9d5E+0x5a>
   17cda: 05 45        	li	a0, 1
   17cdc: a3 0b a1 00  	sb	a0, 23(sp)
   17ce0: 29 a0        	j	0x17cea <_ZN4core3ptr7mut_ptr58_$LT$impl$u20$core..cmp..Ord$u20$for$u20$$BP$mut$u20$T$GT$3cmp17h2b8111e10d33b9d5E+0x58>
   17ce2: 01 45        	li	a0, 0
   17ce4: a3 0b a1 00  	sb	a0, 23(sp)
   17ce8: 09 a0        	j	0x17cea <_ZN4core3ptr7mut_ptr58_$LT$impl$u20$core..cmp..Ord$u20$for$u20$$BP$mut$u20$T$GT$3cmp17h2b8111e10d33b9d5E+0x58>
   17cea: 09 a0        	j	0x17cec <_ZN4core3ptr7mut_ptr58_$LT$impl$u20$core..cmp..Ord$u20$for$u20$$BP$mut$u20$T$GT$3cmp17h2b8111e10d33b9d5E+0x5a>
   17cec: 03 45 71 01  	lbu	a0, 23(sp)
   17cf0: 25 61        	addi	sp, sp, 96
   17cf2: 82 80        	ret

0000000000017cf4 <_ZN4core3ptr8non_null16NonNull$LT$T$GT$13new_unchecked17h3240fffd421b4c29E>:
   17cf4: 41 11        	addi	sp, sp, -16
   17cf6: 2a e4        	sd	a0, 8(sp)
   17cf8: 2a e0        	sd	a0, 0(sp)
   17cfa: 02 65        	ld	a0, 0(sp)
   17cfc: 41 01        	addi	sp, sp, 16
   17cfe: 82 80        	ret

0000000000017d00 <_ZN72_$LT$core..ptr..non_null..NonNull$LT$T$GT$$u20$as$u20$core..cmp..Ord$GT$3cmp17h7028eec97de84f94E>:
   17d00: 39 71        	addi	sp, sp, -64
   17d02: 06 fc        	sd	ra, 56(sp)
   17d04: 2a ec        	sd	a0, 24(sp)
   17d06: 2e f0        	sd	a1, 32(sp)
   17d08: 08 61        	ld	a0, 0(a0)
   17d0a: 2a f4        	sd	a0, 40(sp)
   17d0c: 2a e4        	sd	a0, 8(sp)
   17d0e: 88 61        	ld	a0, 0(a1)
   17d10: 2a f8        	sd	a0, 48(sp)
   17d12: 2a e8        	sd	a0, 16(sp)
   17d14: 28 00        	addi	a0, sp, 8
   17d16: 0c 08        	addi	a1, sp, 16
   17d18: 97 00 00 00  	auipc	ra, 0
   17d1c: e7 80 a0 f7  	jalr	-134(ra)
   17d20: e2 70        	ld	ra, 56(sp)
   17d22: 21 61        	addi	sp, sp, 64
   17d24: 82 80        	ret

0000000000017d26 <_ZN104_$LT$customizable_buddy..linked_list..LinkedListBuddy$u20$as$u20$customizable_buddy..BuddyCollection$GT$3put17h74fbc051738e7294E>:
;     fn put(&mut self, idx: usize) -> Option<usize> {
   17d26: 1d 71        	addi	sp, sp, -96
   17d28: 86 ec        	sd	ra, 88(sp)
   17d2a: 2e e4        	sd	a1, 8(sp)
   17d2c: 2a f0        	sd	a0, 32(sp)
   17d2e: 2a fc        	sd	a0, 56(sp)
   17d30: ae e0        	sd	a1, 64(sp)
;         let node = unsafe { self.order.idx_to_ptr(idx) };
   17d32: 21 05        	addi	a0, a0, 8
   17d34: 2a e8        	sd	a0, 16(sp)
   17d36: 97 00 00 00  	auipc	ra, 0
   17d3a: e7 80 80 11  	jalr	280(ra)
   17d3e: a2 65        	ld	a1, 8(sp)
   17d40: 2a 86        	mv	a2, a0
   17d42: 42 65        	ld	a0, 16(sp)
   17d44: 32 ec        	sd	a2, 24(sp)
   17d46: b2 e4        	sd	a2, 72(sp)
;         let buddy = unsafe { self.order.idx_to_ptr(idx ^ 1) };
   17d48: 93 c5 15 00  	xori	a1, a1, 1
   17d4c: 97 00 00 00  	auipc	ra, 0
   17d50: e7 80 20 10  	jalr	258(ra)
   17d54: e2 65        	ld	a1, 24(sp)
   17d56: 2a 86        	mv	a2, a0
   17d58: 02 75        	ld	a0, 32(sp)
   17d5a: b2 e8        	sd	a2, 80(sp)
;         if self.free_list.insert(node, buddy) {
   17d5c: 97 00 00 00  	auipc	ra, 0
   17d60: e7 80 80 02  	jalr	40(ra)
   17d64: 01 e9        	bnez	a0, 0x17d74 <_ZN104_$LT$customizable_buddy..linked_list..LinkedListBuddy$u20$as$u20$customizable_buddy..BuddyCollection$GT$3put17h74fbc051738e7294E+0x4e>
   17d66: 09 a0        	j	0x17d68 <_ZN104_$LT$customizable_buddy..linked_list..LinkedListBuddy$u20$as$u20$customizable_buddy..BuddyCollection$GT$3put17h74fbc051738e7294E+0x42>
;             Some(idx >> 1)
   17d68: 22 65        	ld	a0, 8(sp)
   17d6a: 05 81        	srli	a0, a0, 1
   17d6c: 2a f8        	sd	a0, 48(sp)
   17d6e: 05 45        	li	a0, 1
   17d70: 2a f4        	sd	a0, 40(sp)
;         if self.free_list.insert(node, buddy) {
   17d72: 21 a0        	j	0x17d7a <_ZN104_$LT$customizable_buddy..linked_list..LinkedListBuddy$u20$as$u20$customizable_buddy..BuddyCollection$GT$3put17h74fbc051738e7294E+0x54>
   17d74: 01 45        	li	a0, 0
;             None
   17d76: 2a f4        	sd	a0, 40(sp)
;         if self.free_list.insert(node, buddy) {
   17d78: 09 a0        	j	0x17d7a <_ZN104_$LT$customizable_buddy..linked_list..LinkedListBuddy$u20$as$u20$customizable_buddy..BuddyCollection$GT$3put17h74fbc051738e7294E+0x54>
;     }
   17d7a: 22 75        	ld	a0, 40(sp)
   17d7c: c2 75        	ld	a1, 48(sp)
   17d7e: e6 60        	ld	ra, 88(sp)
   17d80: 25 61        	addi	sp, sp, 96
   17d82: 82 80        	ret

0000000000017d84 <_ZN18customizable_buddy11linked_list4Node6insert17h24e0303256eb739bE>:
;     fn insert(&mut self, mut node: NonNull<Node>, buddy: NonNull<Node>) -> bool {
   17d84: 55 71        	addi	sp, sp, -208
   17d86: 86 e5        	sd	ra, 200(sp)
   17d88: 2e e8        	sd	a1, 16(sp)
   17d8a: 32 ec        	sd	a2, 24(sp)
   17d8c: aa f4        	sd	a0, 104(sp)
;         let mut cursor = self;
   17d8e: 2a f4        	sd	a0, 40(sp)
;         loop {
   17d90: 09 a0        	j	0x17d92 <_ZN18customizable_buddy11linked_list4Node6insert17h24e0303256eb739bE+0xe>
;             if let Some(mut next) = cursor.next {
   17d92: 22 75        	ld	a0, 40(sp)
   17d94: 08 61        	ld	a0, 0(a0)
   17d96: 1d c9        	beqz	a0, 0x17dcc <_ZN18customizable_buddy11linked_list4Node6insert17h24e0303256eb739bE+0x48>
   17d98: 09 a0        	j	0x17d9a <_ZN18customizable_buddy11linked_list4Node6insert17h24e0303256eb739bE+0x16>
   17d9a: 22 75        	ld	a0, 40(sp)
   17d9c: 08 61        	ld	a0, 0(a0)
   17d9e: 2a f8        	sd	a0, 48(sp)
   17da0: 08 18        	addi	a0, sp, 48
   17da2: 2c 08        	addi	a1, sp, 24
;                 match next.cmp(&buddy) {
   17da4: 97 00 00 00  	auipc	ra, 0
   17da8: e7 80 c0 f5  	jalr	-164(ra)
   17dac: a3 0f a1 02  	sb	a0, 63(sp)
   17db0: 03 45 f1 03  	lbu	a0, 63(sp)
   17db4: 2a e4        	sd	a0, 8(sp)
   17db6: 93 05 f0 0f  	li	a1, 255
   17dba: 63 0b b5 02  	beq	a0, a1, 0x17df0 <_ZN18customizable_buddy11linked_list4Node6insert17h24e0303256eb739bE+0x6c>
   17dbe: 09 a0        	j	0x17dc0 <_ZN18customizable_buddy11linked_list4Node6insert17h24e0303256eb739bE+0x3c>
   17dc0: 22 65        	ld	a0, 8(sp)
   17dc2: 13 75 f5 0f  	andi	a0, a0, 255
;                 match next.cmp(&buddy) {
   17dc6: 1d c9        	beqz	a0, 0x17dfc <_ZN18customizable_buddy11linked_list4Node6insert17h24e0303256eb739bE+0x78>
   17dc8: 09 a0        	j	0x17dca <_ZN18customizable_buddy11linked_list4Node6insert17h24e0303256eb739bE+0x46>
   17dca: a1 a8        	j	0x17e22 <_ZN18customizable_buddy11linked_list4Node6insert17h24e0303256eb739bE+0x9e>
;                 cursor.next = Some(node);
   17dcc: 42 65        	ld	a0, 16(sp)
   17dce: aa ec        	sd	a0, 88(sp)
   17dd0: a2 75        	ld	a1, 40(sp)
   17dd2: 66 65        	ld	a0, 88(sp)
   17dd4: 88 e1        	sd	a0, 0(a1)
   17dd6: 01 45        	li	a0, 0
;                 unsafe { node.as_mut() }.next = None;
   17dd8: aa f0        	sd	a0, 96(sp)
   17dda: 08 08        	addi	a0, sp, 16
   17ddc: aa f8        	sd	a0, 112(sp)
   17dde: c2 65        	ld	a1, 16(sp)
   17de0: ae fc        	sd	a1, 120(sp)
;                 unsafe { node.as_mut() }.next = None;
   17de2: 06 75        	ld	a0, 96(sp)
   17de4: 88 e1        	sd	a0, 0(a1)
   17de6: 05 45        	li	a0, 1
;                 break true;
   17de8: a3 03 a1 02  	sb	a0, 39(sp)
   17dec: a1 a8        	j	0x17e44 <_ZN18customizable_buddy11linked_list4Node6insert17h24e0303256eb739bE+0xc0>
;                 match next.cmp(&buddy) {
   17dee: 00 00        	unimp
   17df0: 08 18        	addi	a0, sp, 48
   17df2: 2a f1        	sd	a0, 160(sp)
   17df4: 42 75        	ld	a0, 48(sp)
   17df6: 2a f5        	sd	a0, 168(sp)
;                     Less => cursor = unsafe { next.as_mut() },
   17df8: 2a f4        	sd	a0, 40(sp)
;         loop {
   17dfa: 61 bf        	j	0x17d92 <_ZN18customizable_buddy11linked_list4Node6insert17h24e0303256eb739bE+0xe>
   17dfc: 08 18        	addi	a0, sp, 48
   17dfe: 2a f9        	sd	a0, 176(sp)
   17e00: 42 75        	ld	a0, 48(sp)
   17e02: 2a fd        	sd	a0, 184(sp)
   17e04: aa e1        	sd	a0, 192(sp)
;                         cursor.next = unsafe { next.as_ref().next };
   17e06: 08 61        	ld	a0, 0(a0)
   17e08: a2 75        	ld	a1, 40(sp)
   17e0a: 88 e1        	sd	a0, 0(a1)
   17e0c: 01 45        	li	a0, 0
;                         unsafe { node.as_mut() }.next = None;
   17e0e: aa e0        	sd	a0, 64(sp)
   17e10: 0c 08        	addi	a1, sp, 16
   17e12: 2e e9        	sd	a1, 144(sp)
   17e14: 42 66        	ld	a2, 16(sp)
   17e16: 32 ed        	sd	a2, 152(sp)
;                         unsafe { node.as_mut() }.next = None;
   17e18: 86 65        	ld	a1, 64(sp)
   17e1a: 0c e2        	sd	a1, 0(a2)
;                         break false;
   17e1c: a3 03 a1 02  	sb	a0, 39(sp)
   17e20: 15 a0        	j	0x17e44 <_ZN18customizable_buddy11linked_list4Node6insert17h24e0303256eb739bE+0xc0>
;                         cursor.next = Some(node);
   17e22: 42 65        	ld	a0, 16(sp)
   17e24: aa e4        	sd	a0, 72(sp)
   17e26: a2 75        	ld	a1, 40(sp)
   17e28: 26 65        	ld	a0, 72(sp)
   17e2a: 88 e1        	sd	a0, 0(a1)
;                         unsafe { node.as_mut() }.next = Some(next);
   17e2c: 42 75        	ld	a0, 48(sp)
   17e2e: aa e8        	sd	a0, 80(sp)
   17e30: 08 08        	addi	a0, sp, 16
   17e32: 2a e1        	sd	a0, 128(sp)
   17e34: c2 65        	ld	a1, 16(sp)
   17e36: 2e e5        	sd	a1, 136(sp)
;                         unsafe { node.as_mut() }.next = Some(next);
   17e38: 46 65        	ld	a0, 80(sp)
   17e3a: 88 e1        	sd	a0, 0(a1)
   17e3c: 05 45        	li	a0, 1
;                         break true;
   17e3e: a3 03 a1 02  	sb	a0, 39(sp)
   17e42: 09 a0        	j	0x17e44 <_ZN18customizable_buddy11linked_list4Node6insert17h24e0303256eb739bE+0xc0>
;     }
   17e44: 03 45 71 02  	lbu	a0, 39(sp)
   17e48: ae 60        	ld	ra, 200(sp)
   17e4a: 69 61        	addi	sp, sp, 208
   17e4c: 82 80        	ret

0000000000017e4e <_ZN18customizable_buddy5Order10idx_to_ptr17h344f536349ba3648E>:
;     unsafe fn idx_to_ptr<T>(&self, idx: usize) -> NonNull<T> {
   17e4e: 79 71        	addi	sp, sp, -48
   17e50: 06 f4        	sd	ra, 40(sp)
   17e52: 2e e4        	sd	a1, 8(sp)
   17e54: 2a ec        	sd	a0, 24(sp)
   17e56: 2e f0        	sd	a1, 32(sp)
;         NonNull::new_unchecked((idx << self.0) as *mut _)
   17e58: 0c 61        	ld	a1, 0(a0)
   17e5a: 2e e8        	sd	a1, 16(sp)
   17e5c: 13 05 f0 03  	li	a0, 63
   17e60: 63 6e b5 00  	bltu	a0, a1, 0x17e7c <.Lpcrel_hi14>
   17e64: 09 a0        	j	0x17e66 <_ZN18customizable_buddy5Order10idx_to_ptr17h344f536349ba3648E+0x18>
   17e66: 22 65        	ld	a0, 8(sp)
   17e68: c2 65        	ld	a1, 16(sp)
   17e6a: 33 15 b5 00  	sll	a0, a0, a1
   17e6e: 97 00 00 00  	auipc	ra, 0
   17e72: e7 80 60 e8  	jalr	-378(ra)
;     }
   17e76: a2 70        	ld	ra, 40(sp)
   17e78: 45 61        	addi	sp, sp, 48
   17e7a: 82 80        	ret

0000000000017e7c <.Lpcrel_hi14>:
;         NonNull::new_unchecked((idx << self.0) as *mut _)
   17e7c: 17 a5 ff ff  	auipc	a0, 1048570
   17e80: 13 05 45 f6  	addi	a0, a0, -156

0000000000017e84 <.Lpcrel_hi15>:
   17e84: 97 a5 ff ff  	auipc	a1, 1048570
   17e88: 13 86 c5 f3  	addi	a2, a1, -196
   17e8c: 93 05 30 02  	li	a1, 35
   17e90: 97 00 00 00  	auipc	ra, 0
   17e94: e7 80 20 05  	jalr	82(ra)
   17e98: 00 00        	unimp

0000000000017e9a <_ZN4core3ops8function6FnOnce9call_once17hfa98d4d1ae91b1afE>:
   17e9a: 08 61        	ld	a0, 0(a0)
   17e9c: 01 a0        	j	0x17e9c <_ZN4core3ops8function6FnOnce9call_once17hfa98d4d1ae91b1afE+0x2>

0000000000017e9e <_ZN4core3ptr26drop_in_place$LT$usize$GT$17h84123b7399e2edf8E>:
   17e9e: 82 80        	ret

0000000000017ea0 <_ZN4core3ptr37drop_in_place$LT$core..fmt..Error$GT$17h568dabf380de0099E>:
   17ea0: 82 80        	ret

0000000000017ea2 <_ZN36_$LT$T$u20$as$u20$core..any..Any$GT$7type_id17h91b0bab256f6d5b8E>:
   17ea2: 17 25 00 00  	auipc	a0, 2
   17ea6: 03 35 65 26  	ld	a0, 614(a0)

0000000000017eaa <.Lpcrel_hi254>:
   17eaa: 97 25 00 00  	auipc	a1, 2
   17eae: 83 b5 65 26  	ld	a1, 614(a1)
   17eb2: 82 80        	ret

0000000000017eb4 <_ZN4core9panicking9panic_fmt17h10d7869d5c872ef7E>:
   17eb4: 79 71        	addi	sp, sp, -48
   17eb6: 06 f4        	sd	ra, 40(sp)

0000000000017eb8 <.Lpcrel_hi398>:
   17eb8: 17 a6 ff ff  	auipc	a2, 1048570
   17ebc: 13 06 06 f5  	addi	a2, a2, -176
   17ec0: 32 e0        	sd	a2, 0(sp)

0000000000017ec2 <.Lpcrel_hi399>:
   17ec2: 17 a6 ff ff  	auipc	a2, 1048570
   17ec6: 13 06 e6 f6  	addi	a2, a2, -146
   17eca: 32 e4        	sd	a2, 8(sp)
   17ecc: 2a e8        	sd	a0, 16(sp)
   17ece: 2e ec        	sd	a1, 24(sp)
   17ed0: 05 45        	li	a0, 1
   17ed2: 23 10 a1 02  	sh	a0, 32(sp)
   17ed6: 0a 85        	mv	a0, sp
   17ed8: 97 c0 ff ff  	auipc	ra, 1048572
   17edc: e7 80 c0 88  	jalr	-1908(ra)
   17ee0: 00 00        	unimp

0000000000017ee2 <_ZN4core9panicking5panic17h3b6f1294e54b0f63E>:
   17ee2: 5d 71        	addi	sp, sp, -80
   17ee4: 86 e4        	sd	ra, 72(sp)
   17ee6: 2a fc        	sd	a0, 56(sp)
   17ee8: ae e0        	sd	a1, 64(sp)
   17eea: 28 18        	addi	a0, sp, 56
   17eec: 2a e4        	sd	a0, 8(sp)
   17eee: 05 45        	li	a0, 1
   17ef0: 2a e8        	sd	a0, 16(sp)
   17ef2: 02 f4        	sd	zero, 40(sp)

0000000000017ef4 <.Lpcrel_hi402>:
   17ef4: 17 a5 ff ff  	auipc	a0, 1048570
   17ef8: 13 05 45 f1  	addi	a0, a0, -236
   17efc: 2a ec        	sd	a0, 24(sp)
   17efe: 02 f0        	sd	zero, 32(sp)
   17f00: 28 00        	addi	a0, sp, 8
   17f02: b2 85        	mv	a1, a2
   17f04: 97 00 00 00  	auipc	ra, 0
   17f08: e7 80 00 fb  	jalr	-80(ra)
   17f0c: 00 00        	unimp

0000000000017f0e <_ZN4core9panicking18panic_bounds_check17h2d96b7eee015abd4E>:
   17f0e: 59 71        	addi	sp, sp, -112
   17f10: 86 f4        	sd	ra, 104(sp)
   17f12: 2a e4        	sd	a0, 8(sp)
   17f14: 2e e8        	sd	a1, 16(sp)
   17f16: 08 08        	addi	a0, sp, 16
   17f18: aa e4        	sd	a0, 72(sp)

0000000000017f1a <.Lpcrel_hi410>:
   17f1a: 17 15 00 00  	auipc	a0, 1
   17f1e: 13 05 25 0b  	addi	a0, a0, 178
   17f22: aa e8        	sd	a0, 80(sp)
   17f24: 2c 00        	addi	a1, sp, 8
   17f26: ae ec        	sd	a1, 88(sp)
   17f28: aa f0        	sd	a0, 96(sp)

0000000000017f2a <.Lpcrel_hi411>:
   17f2a: 17 a5 ff ff  	auipc	a0, 1048570
   17f2e: 13 05 e5 f3  	addi	a0, a0, -194
   17f32: 2a ec        	sd	a0, 24(sp)
   17f34: 09 45        	li	a0, 2
   17f36: 2a f0        	sd	a0, 32(sp)
   17f38: 02 fc        	sd	zero, 56(sp)
   17f3a: ac 00        	addi	a1, sp, 72
   17f3c: 2e f4        	sd	a1, 40(sp)
   17f3e: 2a f8        	sd	a0, 48(sp)
   17f40: 28 08        	addi	a0, sp, 24
   17f42: b2 85        	mv	a1, a2
   17f44: 97 00 00 00  	auipc	ra, 0
   17f48: e7 80 00 f7  	jalr	-144(ra)
   17f4c: 00 00        	unimp

0000000000017f4e <_ZN4core9panicking19assert_failed_inner17hb5fbfc8bdbaf0a22E>:
   17f4e: 15 71        	addi	sp, sp, -224
   17f50: 86 ed        	sd	ra, 216(sp)
   17f52: 2e e4        	sd	a1, 8(sp)
   17f54: 32 e8        	sd	a2, 16(sp)
   17f56: 36 ec        	sd	a3, 24(sp)
   17f58: 13 75 f5 0f  	andi	a0, a0, 255
   17f5c: 3a f0        	sd	a4, 32(sp)
   17f5e: 09 c9        	beqz	a0, 0x17f70 <.Lpcrel_hi424>
   17f60: 85 45        	li	a1, 1
   17f62: 63 18 b5 04  	bne	a0, a1, 0x17fb2 <.Lpcrel_hi426>

0000000000017f66 <.Lpcrel_hi425>:
   17f66: 17 a5 ff ff  	auipc	a0, 1048570
   17f6a: 13 05 45 f2  	addi	a0, a0, -220
   17f6e: 29 a0        	j	0x17f78 <.Lpcrel_hi424+0x8>

0000000000017f70 <.Lpcrel_hi424>:
   17f70: 17 a5 ff ff  	auipc	a0, 1048570
   17f74: 13 05 85 f1  	addi	a0, a0, -232
   17f78: 2a f4        	sd	a0, 40(sp)
   17f7a: 09 45        	li	a0, 2
   17f7c: 8c 63        	ld	a1, 0(a5)
   17f7e: 2a f8        	sd	a0, 48(sp)
   17f80: b1 e1        	bnez	a1, 0x17fc4 <.Lpcrel_hi426+0x12>
   17f82: 28 10        	addi	a0, sp, 40
   17f84: aa f4        	sd	a0, 104(sp)

0000000000017f86 <.Lpcrel_hi427>:
   17f86: 17 15 00 00  	auipc	a0, 1
   17f8a: 13 05 c5 05  	addi	a0, a0, 92
   17f8e: aa f8        	sd	a0, 112(sp)
   17f90: 28 00        	addi	a0, sp, 8
   17f92: aa fc        	sd	a0, 120(sp)

0000000000017f94 <.Lpcrel_hi428>:
   17f94: 17 15 00 00  	auipc	a0, 1
   17f98: 13 05 65 04  	addi	a0, a0, 70
   17f9c: 2a e1        	sd	a0, 128(sp)
   17f9e: 2c 08        	addi	a1, sp, 24
   17fa0: 2e e5        	sd	a1, 136(sp)
   17fa2: 2a e9        	sd	a0, 144(sp)

0000000000017fa4 <.Lpcrel_hi429>:
   17fa4: 17 a5 ff ff  	auipc	a0, 1048570
   17fa8: 13 05 45 f1  	addi	a0, a0, -236
   17fac: 2a f5        	sd	a0, 168(sp)
   17fae: 0d 45        	li	a0, 3
   17fb0: a5 a0        	j	0x18018 <.Lpcrel_hi433+0xc>

0000000000017fb2 <.Lpcrel_hi426>:
   17fb2: 17 a5 ff ff  	auipc	a0, 1048570
   17fb6: 13 05 a5 ed  	addi	a0, a0, -294
   17fba: 2a f4        	sd	a0, 40(sp)
   17fbc: 1d 45        	li	a0, 7
   17fbe: 8c 63        	ld	a1, 0(a5)
   17fc0: 2a f8        	sd	a0, 48(sp)
   17fc2: e1 d1        	beqz	a1, 0x17f82 <.Lpcrel_hi424+0x12>
   17fc4: 88 77        	ld	a0, 40(a5)
   17fc6: 8c 73        	ld	a1, 32(a5)
   17fc8: aa f0        	sd	a0, 96(sp)
   17fca: ae ec        	sd	a1, 88(sp)
   17fcc: 88 6f        	ld	a0, 24(a5)
   17fce: 8c 6b        	ld	a1, 16(a5)
   17fd0: 90 67        	ld	a2, 8(a5)
   17fd2: 94 63        	ld	a3, 0(a5)
   17fd4: aa e8        	sd	a0, 80(sp)
   17fd6: ae e4        	sd	a1, 72(sp)
   17fd8: b2 e0        	sd	a2, 64(sp)
   17fda: 36 fc        	sd	a3, 56(sp)
   17fdc: 28 10        	addi	a0, sp, 40
   17fde: aa f4        	sd	a0, 104(sp)

0000000000017fe0 <.Lpcrel_hi430>:
   17fe0: 17 15 00 00  	auipc	a0, 1
   17fe4: 13 05 25 00  	addi	a0, a0, 2
   17fe8: aa f8        	sd	a0, 112(sp)
   17fea: 28 18        	addi	a0, sp, 56
   17fec: aa fc        	sd	a0, 120(sp)

0000000000017fee <.Lpcrel_hi431>:
   17fee: 17 05 00 00  	auipc	a0, 0
   17ff2: 13 05 85 3d  	addi	a0, a0, 984
   17ff6: 2a e1        	sd	a0, 128(sp)
   17ff8: 28 00        	addi	a0, sp, 8
   17ffa: 2a e5        	sd	a0, 136(sp)

0000000000017ffc <.Lpcrel_hi432>:
   17ffc: 17 15 00 00  	auipc	a0, 1
   18000: 13 05 e5 fd  	addi	a0, a0, -34
   18004: 2a e9        	sd	a0, 144(sp)
   18006: 2c 08        	addi	a1, sp, 24
   18008: 2e ed        	sd	a1, 152(sp)
   1800a: 2a f1        	sd	a0, 160(sp)

000000000001800c <.Lpcrel_hi433>:
   1800c: 17 a5 ff ff  	auipc	a0, 1048570
   18010: 13 05 c5 ee  	addi	a0, a0, -276
   18014: 2a f5        	sd	a0, 168(sp)
   18016: 11 45        	li	a0, 4
   18018: 2a f9        	sd	a0, 176(sp)
   1801a: 82 e5        	sd	zero, 200(sp)
   1801c: ac 10        	addi	a1, sp, 104
   1801e: 2e fd        	sd	a1, 184(sp)
   18020: aa e1        	sd	a0, 192(sp)
   18022: 28 11        	addi	a0, sp, 168
   18024: c2 85        	mv	a1, a6
   18026: 97 00 00 00  	auipc	ra, 0
   1802a: e7 80 e0 e8  	jalr	-370(ra)
   1802e: 00 00        	unimp

0000000000018030 <_ZN4core6result13unwrap_failed17h42ebbfb5b8e7af0eE>:
   18030: 19 71        	addi	sp, sp, -128
   18032: 86 fc        	sd	ra, 120(sp)
   18034: 2a e4        	sd	a0, 8(sp)
   18036: 2e e8        	sd	a1, 16(sp)
   18038: 32 ec        	sd	a2, 24(sp)
   1803a: 36 f0        	sd	a3, 32(sp)
   1803c: 28 00        	addi	a0, sp, 8
   1803e: aa ec        	sd	a0, 88(sp)

0000000000018040 <.Lpcrel_hi434>:
   18040: 17 15 00 00  	auipc	a0, 1
   18044: 13 05 25 fa  	addi	a0, a0, -94
   18048: aa f0        	sd	a0, 96(sp)
   1804a: 28 08        	addi	a0, sp, 24
   1804c: aa f4        	sd	a0, 104(sp)

000000000001804e <.Lpcrel_hi435>:
   1804e: 17 15 00 00  	auipc	a0, 1
   18052: 13 05 c5 f8  	addi	a0, a0, -116
   18056: aa f8        	sd	a0, 112(sp)

0000000000018058 <.Lpcrel_hi436>:
   18058: 17 a5 ff ff  	auipc	a0, 1048570
   1805c: 13 05 85 ee  	addi	a0, a0, -280
   18060: 2a f4        	sd	a0, 40(sp)
   18062: 09 45        	li	a0, 2
   18064: 2a f8        	sd	a0, 48(sp)
   18066: 82 e4        	sd	zero, 72(sp)
   18068: ac 08        	addi	a1, sp, 88
   1806a: 2e fc        	sd	a1, 56(sp)
   1806c: aa e0        	sd	a0, 64(sp)
   1806e: 28 10        	addi	a0, sp, 40
   18070: ba 85        	mv	a1, a4
   18072: 97 00 00 00  	auipc	ra, 0
   18076: e7 80 20 e4  	jalr	-446(ra)
   1807a: 00 00        	unimp

000000000001807c <_ZN68_$LT$core..fmt..builders..PadAdapter$u20$as$u20$core..fmt..Write$GT$9write_str17hf4fb80e916d7989aE>:
   1807c: 75 71        	addi	sp, sp, -144
   1807e: 06 e5        	sd	ra, 136(sp)
   18080: 22 e1        	sd	s0, 128(sp)
   18082: a6 fc        	sd	s1, 120(sp)
   18084: ca f8        	sd	s2, 112(sp)
   18086: ce f4        	sd	s3, 104(sp)
   18088: d2 f0        	sd	s4, 96(sp)
   1808a: d6 ec        	sd	s5, 88(sp)
   1808c: da e8        	sd	s6, 80(sp)
   1808e: de e4        	sd	s7, 72(sp)
   18090: e2 e0        	sd	s8, 64(sp)
   18092: 66 fc        	sd	s9, 56(sp)
   18094: 6a f8        	sd	s10, 48(sp)
   18096: 6e f4        	sd	s11, 40(sp)
   18098: 32 8c        	mv	s8, a2
   1809a: 2e 8a        	mv	s4, a1
   1809c: 01 4b        	li	s6, 0
   1809e: 81 49        	li	s3, 0
   180a0: 01 4d        	li	s10, 0
   180a2: b7 05 ff fe  	lui	a1, 1044464
   180a6: 9b 84 f5 ef  	addiw	s1, a1, -257
   180aa: 93 95 04 02  	slli	a1, s1, 32
   180ae: 33 89 b4 00  	add	s2, s1, a1
   180b2: b7 15 0a 0a  	lui	a1, 41121
   180b6: 1b 84 a5 a0  	addiw	s0, a1, -1526
   180ba: 93 15 04 02  	slli	a1, s0, 32
   180be: b3 0b b4 00  	add	s7, s0, a1
   180c2: 00 69        	ld	s0, 16(a0)
   180c4: 04 61        	ld	s1, 0(a0)
   180c6: 08 65        	ld	a0, 8(a0)
   180c8: 2a f0        	sd	a0, 32(sp)
   180ca: 13 05 8a 00  	addi	a0, s4, 8
   180ce: 2a e4        	sd	a0, 8(sp)

00000000000180d0 <.Lpcrel_hi440>:
   180d0: 17 95 ff ff  	auipc	a0, 1048569
   180d4: 13 05 e5 20  	addi	a0, a0, 526
   180d8: 2a ec        	sd	a0, 24(sp)
   180da: a9 4d        	li	s11, 10
   180dc: 22 e8        	sd	s0, 16(sp)
   180de: 0d a0        	j	0x18100 <.Lpcrel_hi440+0x30>
   180e0: 33 05 b6 00  	add	a0, a2, a1
   180e4: 03 45 f5 ff  	lbu	a0, -1(a0)
   180e8: 59 15        	addi	a0, a0, -10
   180ea: 13 35 15 00  	seqz	a0, a0
   180ee: 23 00 a4 00  	sb	a0, 0(s0)
   180f2: 02 75        	ld	a0, 32(sp)
   180f4: 14 6d        	ld	a3, 24(a0)
   180f6: 26 85        	mv	a0, s1
   180f8: 82 96        	jalr	a3
   180fa: e6 89        	mv	s3, s9
   180fc: 63 1e 05 12  	bnez	a0, 0x18238 <.Lpcrel_hi441+0xba>
   18100: 13 75 fd 0f  	andi	a0, s10, 255
   18104: 63 18 05 12  	bnez	a0, 0x18234 <.Lpcrel_hi441+0xb6>
   18108: 63 75 6c 01  	bgeu	s8, s6, 0x18112 <.Lpcrel_hi440+0x42>
   1810c: d5 a0        	j	0x181f0 <.Lpcrel_hi441+0x72>
   1810e: 63 61 6c 0f  	bltu	s8, s6, 0x181f0 <.Lpcrel_hi441+0x72>
   18112: 33 05 6c 41  	sub	a0, s8, s6
   18116: b3 05 6a 01  	add	a1, s4, s6
   1811a: 41 46        	li	a2, 16
   1811c: 63 7f c5 00  	bgeu	a0, a2, 0x1813a <.Lpcrel_hi440+0x6a>
   18120: 63 07 6c 0d  	beq	s8, s6, 0x181ee <.Lpcrel_hi441+0x70>
   18124: 81 46        	li	a3, 0
   18126: 33 86 d5 00  	add	a2, a1, a3
   1812a: 03 46 06 00  	lbu	a2, 0(a2)
   1812e: 63 02 b6 0b  	beq	a2, s11, 0x181d2 <.Lpcrel_hi441+0x54>
   18132: 85 06        	addi	a3, a3, 1
   18134: e3 19 d5 fe  	bne	a0, a3, 0x18126 <.Lpcrel_hi440+0x56>
   18138: 5d a8        	j	0x181ee <.Lpcrel_hi441+0x70>
   1813a: a6 88        	mv	a7, s1
   1813c: 13 86 75 00  	addi	a2, a1, 7
   18140: 93 76 86 ff  	andi	a3, a2, -8
   18144: b3 84 b6 40  	sub	s1, a3, a1
   18148: ad 8e        	xor	a3, a3, a1
   1814a: 93 b6 16 00  	seqz	a3, a3
   1814e: 13 b7 14 00  	seqz	a4, s1
   18152: d9 8e        	or	a3, a3, a4
   18154: b9 c2        	beqz	a3, 0x1819a <.Lpcrel_hi441+0x1c>
   18156: 81 44        	li	s1, 0
   18158: 13 08 05 ff  	addi	a6, a0, -16
   1815c: 22 67        	ld	a4, 8(sp)
   1815e: 5a 97        	add	a4, a4, s6
   18160: b3 87 95 00  	add	a5, a1, s1
   18164: 80 63        	ld	s0, 0(a5)
   18166: 33 06 97 00  	add	a2, a4, s1
   1816a: 10 62        	ld	a2, 0(a2)
   1816c: b3 47 74 01  	xor	a5, s0, s7
   18170: ca 97        	add	a5, a5, s2
   18172: 13 44 f4 ff  	not	s0, s0
   18176: e1 8f        	and	a5, a5, s0
   18178: 33 44 76 01  	xor	s0, a2, s7
   1817c: 4a 94        	add	s0, s0, s2

000000000001817e <.Lpcrel_hi441>:
   1817e: 97 26 00 00  	auipc	a3, 2
   18182: 83 b6 a6 fb  	ld	a3, -70(a3)
   18186: 13 46 f6 ff  	not	a2, a2
   1818a: 61 8e        	and	a2, a2, s0
   1818c: 5d 8e        	or	a2, a2, a5
   1818e: 75 8e        	and	a2, a2, a3
   18190: 15 e2        	bnez	a2, 0x181b4 <.Lpcrel_hi441+0x36>
   18192: c1 04        	addi	s1, s1, 16
   18194: e3 76 98 fc  	bgeu	a6, s1, 0x18160 <.Lpcrel_hi440+0x90>
   18198: 31 a8        	j	0x181b4 <.Lpcrel_hi441+0x36>
   1819a: 33 87 d5 00  	add	a4, a1, a3
   1819e: 03 47 07 00  	lbu	a4, 0(a4)
   181a2: 63 07 b7 03  	beq	a4, s11, 0x181d0 <.Lpcrel_hi441+0x52>
   181a6: 85 06        	addi	a3, a3, 1
   181a8: e3 99 d4 fe  	bne	s1, a3, 0x1819a <.Lpcrel_hi441+0x1c>
   181ac: 13 08 05 ff  	addi	a6, a0, -16
   181b0: e3 76 98 fa  	bgeu	a6, s1, 0x1815c <.Lpcrel_hi440+0x8c>
   181b4: 63 8d a4 06  	beq	s1, a0, 0x1822e <.Lpcrel_hi441+0xb0>
   181b8: 42 64        	ld	s0, 16(sp)
   181ba: 33 86 95 00  	add	a2, a1, s1
   181be: 03 46 06 00  	lbu	a2, 0(a2)
   181c2: 63 06 b6 01  	beq	a2, s11, 0x181ce <.Lpcrel_hi441+0x50>
   181c6: 85 04        	addi	s1, s1, 1
   181c8: e3 19 95 fe  	bne	a0, s1, 0x181ba <.Lpcrel_hi441+0x3c>
   181cc: 89 a8        	j	0x1821e <.Lpcrel_hi441+0xa0>
   181ce: a6 86        	mv	a3, s1
   181d0: c6 84        	mv	s1, a7
   181d2: da 96        	add	a3, a3, s6
   181d4: 13 8b 16 00  	addi	s6, a3, 1
   181d8: e3 fb 86 f3  	bgeu	a3, s8, 0x1810e <.Lpcrel_hi440+0x3e>
   181dc: d2 96        	add	a3, a3, s4
   181de: 03 c5 06 00  	lbu	a0, 0(a3)
   181e2: e3 16 b5 f3  	bne	a0, s11, 0x1810e <.Lpcrel_hi440+0x3e>
   181e6: 01 4d        	li	s10, 0
   181e8: da 8c        	mv	s9, s6
   181ea: da 8a        	mv	s5, s6
   181ec: 39 a0        	j	0x181fa <.Lpcrel_hi441+0x7c>
   181ee: 62 8b        	mv	s6, s8
   181f0: 05 4d        	li	s10, 1
   181f2: ce 8c        	mv	s9, s3
   181f4: e2 8a        	mv	s5, s8
   181f6: 63 8f 89 03  	beq	s3, s8, 0x18234 <.Lpcrel_hi441+0xb6>
   181fa: 03 45 04 00  	lbu	a0, 0(s0)
   181fe: 01 c9        	beqz	a0, 0x1820e <.Lpcrel_hi441+0x90>
   18200: 02 75        	ld	a0, 32(sp)
   18202: 14 6d        	ld	a3, 24(a0)
   18204: 11 46        	li	a2, 4
   18206: 26 85        	mv	a0, s1
   18208: e2 65        	ld	a1, 24(sp)
   1820a: 82 96        	jalr	a3
   1820c: 15 e5        	bnez	a0, 0x18238 <.Lpcrel_hi441+0xba>
   1820e: 33 86 3a 41  	sub	a2, s5, s3
   18212: b3 05 3a 01  	add	a1, s4, s3
   18216: e3 95 3a ed  	bne	s5, s3, 0x180e0 <.Lpcrel_hi440+0x10>
   1821a: 01 45        	li	a0, 0
   1821c: c9 bd        	j	0x180ee <.Lpcrel_hi440+0x1e>
   1821e: 62 8b        	mv	s6, s8
   18220: c6 84        	mv	s1, a7
   18222: 05 4d        	li	s10, 1
   18224: ce 8c        	mv	s9, s3
   18226: e2 8a        	mv	s5, s8
   18228: e3 99 89 fd  	bne	s3, s8, 0x181fa <.Lpcrel_hi441+0x7c>
   1822c: 21 a0        	j	0x18234 <.Lpcrel_hi441+0xb6>
   1822e: 62 8b        	mv	s6, s8
   18230: 42 64        	ld	s0, 16(sp)
   18232: fd b7        	j	0x18220 <.Lpcrel_hi441+0xa2>
   18234: 01 45        	li	a0, 0
   18236: 11 a0        	j	0x1823a <.Lpcrel_hi441+0xbc>
   18238: 05 45        	li	a0, 1
   1823a: aa 60        	ld	ra, 136(sp)
   1823c: 0a 64        	ld	s0, 128(sp)
   1823e: e6 74        	ld	s1, 120(sp)
   18240: 46 79        	ld	s2, 112(sp)
   18242: a6 79        	ld	s3, 104(sp)
   18244: 06 7a        	ld	s4, 96(sp)
   18246: e6 6a        	ld	s5, 88(sp)
   18248: 46 6b        	ld	s6, 80(sp)
   1824a: a6 6b        	ld	s7, 72(sp)
   1824c: 06 6c        	ld	s8, 64(sp)
   1824e: e2 7c        	ld	s9, 56(sp)
   18250: 42 7d        	ld	s10, 48(sp)
   18252: a2 7d        	ld	s11, 40(sp)
   18254: 49 61        	addi	sp, sp, 144
   18256: 82 80        	ret

0000000000018258 <_ZN68_$LT$core..fmt..builders..PadAdapter$u20$as$u20$core..fmt..Write$GT$10write_char17h214d4645cb340650E>:
   18258: 79 71        	addi	sp, sp, -48
   1825a: 06 f4        	sd	ra, 40(sp)
   1825c: 22 f0        	sd	s0, 32(sp)
   1825e: 26 ec        	sd	s1, 24(sp)
   18260: 4a e8        	sd	s2, 16(sp)
   18262: 4e e4        	sd	s3, 8(sp)
   18264: 00 69        	ld	s0, 16(a0)
   18266: 03 46 04 00  	lbu	a2, 0(s0)
   1826a: 03 39 05 00  	ld	s2, 0(a0)
   1826e: 04 65        	ld	s1, 8(a0)
   18270: ae 89        	mv	s3, a1
   18272: 15 c2        	beqz	a2, 0x18296 <.Lpcrel_hi442+0x20>
   18274: 94 6c        	ld	a3, 24(s1)

0000000000018276 <.Lpcrel_hi442>:
   18276: 17 95 ff ff  	auipc	a0, 1048569
   1827a: 93 05 85 06  	addi	a1, a0, 104
   1827e: 11 46        	li	a2, 4
   18280: 4a 85        	mv	a0, s2
   18282: 82 96        	jalr	a3
   18284: 09 c9        	beqz	a0, 0x18296 <.Lpcrel_hi442+0x20>
   18286: 05 45        	li	a0, 1
   18288: a2 70        	ld	ra, 40(sp)
   1828a: 02 74        	ld	s0, 32(sp)
   1828c: e2 64        	ld	s1, 24(sp)
   1828e: 42 69        	ld	s2, 16(sp)
   18290: a2 69        	ld	s3, 8(sp)
   18292: 45 61        	addi	sp, sp, 48
   18294: 82 80        	ret
   18296: 1b 85 09 00  	sext.w	a0, s3
   1829a: 59 15        	addi	a0, a0, -10
   1829c: 13 35 15 00  	seqz	a0, a0
   182a0: 23 00 a4 00  	sb	a0, 0(s0)
   182a4: 9c 70        	ld	a5, 32(s1)
   182a6: 4a 85        	mv	a0, s2
   182a8: ce 85        	mv	a1, s3
   182aa: a2 70        	ld	ra, 40(sp)
   182ac: 02 74        	ld	s0, 32(sp)
   182ae: e2 64        	ld	s1, 24(sp)
   182b0: 42 69        	ld	s2, 16(sp)
   182b2: a2 69        	ld	s3, 8(sp)
   182b4: 45 61        	addi	sp, sp, 48
   182b6: 82 87        	jr	a5

00000000000182b8 <_ZN4core3fmt8builders10DebugTuple5field17h4e1094ce94b91ed8E>:
   182b8: 35 71        	addi	sp, sp, -160
   182ba: 06 ed        	sd	ra, 152(sp)
   182bc: 22 e9        	sd	s0, 144(sp)
   182be: 26 e5        	sd	s1, 136(sp)
   182c0: 4a e1        	sd	s2, 128(sp)
   182c2: ce fc        	sd	s3, 120(sp)
   182c4: d2 f8        	sd	s4, 112(sp)
   182c6: d6 f4        	sd	s5, 104(sp)
   182c8: 2a 84        	mv	s0, a0
   182ca: 03 45 05 01  	lbu	a0, 16(a0)
   182ce: 83 3a 04 00  	ld	s5, 0(s0)
   182d2: 05 4a        	li	s4, 1
   182d4: 5d ed        	bnez	a0, 0x18392 <.Lpcrel_hi456+0x20>
   182d6: b2 89        	mv	s3, a2
   182d8: 2e 89        	mv	s2, a1
   182da: 04 64        	ld	s1, 8(s0)
   182dc: 03 e5 44 03  	lwu	a0, 52(s1)
   182e0: 93 75 45 00  	andi	a1, a0, 4
   182e4: 91 e9        	bnez	a1, 0x182f8 <.Lpcrel_hi457+0xa>
   182e6: 33 36 50 01  	snez	a2, s5
   182ea: 63 84 0a 08  	beqz	s5, 0x18372 <.Lpcrel_hi456>

00000000000182ee <.Lpcrel_hi457>:
   182ee: 17 a5 ff ff  	auipc	a0, 1048570
   182f2: 93 05 25 ca  	addi	a1, a0, -862
   182f6: 51 a0        	j	0x1837a <.Lpcrel_hi456+0x8>
   182f8: 63 9d 0a 00  	bnez	s5, 0x18312 <.Lpcrel_hi458+0x10>
   182fc: 8c 74        	ld	a1, 40(s1)
   182fe: 88 70        	ld	a0, 32(s1)
   18300: 94 6d        	ld	a3, 24(a1)

0000000000018302 <.Lpcrel_hi458>:
   18302: 97 a5 ff ff  	auipc	a1, 1048570
   18306: 93 85 35 c9  	addi	a1, a1, -877
   1830a: 09 46        	li	a2, 2
   1830c: 82 96        	jalr	a3
   1830e: 51 e1        	bnez	a0, 0x18392 <.Lpcrel_hi456+0x20>
   18310: c8 58        	lw	a0, 52(s1)
   18312: 05 4a        	li	s4, 1
   18314: a3 03 41 03  	sb	s4, 39(sp)
   18318: 8c 70        	ld	a1, 32(s1)
   1831a: 90 74        	ld	a2, 40(s1)
   1831c: 2e e4        	sd	a1, 8(sp)
   1831e: 32 e8        	sd	a2, 16(sp)
   18320: 93 05 71 02  	addi	a1, sp, 39
   18324: 2e ec        	sd	a1, 24(sp)
   18326: 8c 58        	lw	a1, 48(s1)
   18328: 03 c6 84 03  	lbu	a2, 56(s1)
   1832c: 94 60        	ld	a3, 0(s1)
   1832e: 98 64        	ld	a4, 8(s1)
   18330: 9c 68        	ld	a5, 16(s1)
   18332: 84 6c        	ld	s1, 24(s1)
   18334: aa ce        	sw	a0, 92(sp)
   18336: ae cc        	sw	a1, 88(sp)
   18338: 23 00 c1 06  	sb	a2, 96(sp)
   1833c: 36 f4        	sd	a3, 40(sp)
   1833e: 3a f8        	sd	a4, 48(sp)
   18340: 3e fc        	sd	a5, 56(sp)
   18342: a6 e0        	sd	s1, 64(sp)
   18344: 28 00        	addi	a0, sp, 8
   18346: aa e4        	sd	a0, 72(sp)
   18348: 03 b6 89 01  	ld	a2, 24(s3)

000000000001834c <.Lpcrel_hi459>:
   1834c: 17 a5 ff ff  	auipc	a0, 1048570
   18350: 13 05 45 c1  	addi	a0, a0, -1004
   18354: aa e8        	sd	a0, 80(sp)
   18356: 2c 10        	addi	a1, sp, 40
   18358: 4a 85        	mv	a0, s2
   1835a: 02 96        	jalr	a2
   1835c: 1d e9        	bnez	a0, 0x18392 <.Lpcrel_hi456+0x20>
   1835e: c6 65        	ld	a1, 80(sp)
   18360: 26 65        	ld	a0, 72(sp)
   18362: 94 6d        	ld	a3, 24(a1)

0000000000018364 <.Lpcrel_hi460>:
   18364: 97 a5 ff ff  	auipc	a1, 1048570
   18368: 93 85 e5 c2  	addi	a1, a1, -978
   1836c: 09 46        	li	a2, 2
   1836e: 82 96        	jalr	a3
   18370: 05 a0        	j	0x18390 <.Lpcrel_hi456+0x1e>

0000000000018372 <.Lpcrel_hi456>:
   18372: 17 a5 ff ff  	auipc	a0, 1048570
   18376: 93 05 25 c2  	addi	a1, a0, -990
   1837a: 94 74        	ld	a3, 40(s1)
   1837c: 88 70        	ld	a0, 32(s1)
   1837e: 94 6e        	ld	a3, 24(a3)
   18380: 05 06        	addi	a2, a2, 1
   18382: 82 96        	jalr	a3
   18384: 19 e5        	bnez	a0, 0x18392 <.Lpcrel_hi456+0x20>
   18386: 03 b6 89 01  	ld	a2, 24(s3)
   1838a: 4a 85        	mv	a0, s2
   1838c: a6 85        	mv	a1, s1
   1838e: 02 96        	jalr	a2
   18390: 2a 8a        	mv	s4, a0
   18392: 23 08 44 01  	sb	s4, 16(s0)
   18396: 85 0a        	addi	s5, s5, 1
   18398: 23 30 54 01  	sd	s5, 0(s0)
   1839c: 22 85        	mv	a0, s0
   1839e: ea 60        	ld	ra, 152(sp)
   183a0: 4a 64        	ld	s0, 144(sp)
   183a2: aa 64        	ld	s1, 136(sp)
   183a4: 0a 69        	ld	s2, 128(sp)
   183a6: e6 79        	ld	s3, 120(sp)
   183a8: 46 7a        	ld	s4, 112(sp)
   183aa: a6 7a        	ld	s5, 104(sp)
   183ac: 0d 61        	addi	sp, sp, 160
   183ae: 82 80        	ret

00000000000183b0 <_ZN4core3fmt5Write9write_fmt17h72c856adb8d69b1aE>:
   183b0: 17 a6 ff ff  	auipc	a2, 1048570
   183b4: 13 06 06 bb  	addi	a2, a2, -1104
   183b8: ae 86        	mv	a3, a1
   183ba: b2 85        	mv	a1, a2
   183bc: 36 86        	mv	a2, a3
   183be: 17 03 00 00  	auipc	t1, 0
   183c2: 67 00 a3 01  	jr	26(t1)

00000000000183c6 <_ZN59_$LT$core..fmt..Arguments$u20$as$u20$core..fmt..Display$GT$3fmt17h9e1b42743828d482E>:
   183c6: 90 71        	ld	a2, 32(a1)
   183c8: 8c 75        	ld	a1, 40(a1)
   183ca: aa 86        	mv	a3, a0
   183cc: 32 85        	mv	a0, a2
   183ce: 36 86        	mv	a2, a3
   183d0: 17 03 00 00  	auipc	t1, 0
   183d4: 67 00 83 00  	jr	8(t1)

00000000000183d8 <_ZN4core3fmt5write17h67c8c9f454d1b5bfE>:
   183d8: 75 71        	addi	sp, sp, -144
   183da: 06 e5        	sd	ra, 136(sp)
   183dc: 22 e1        	sd	s0, 128(sp)
   183de: a6 fc        	sd	s1, 120(sp)
   183e0: ca f8        	sd	s2, 112(sp)
   183e2: ce f4        	sd	s3, 104(sp)
   183e4: d2 f0        	sd	s4, 96(sp)
   183e6: d6 ec        	sd	s5, 88(sp)
   183e8: da e8        	sd	s6, 80(sp)
   183ea: de e4        	sd	s7, 72(sp)
   183ec: b2 89        	mv	s3, a2
   183ee: 13 06 00 02  	li	a2, 32
   183f2: 32 fc        	sd	a2, 56(sp)
   183f4: 0d 46        	li	a2, 3
   183f6: 23 00 c1 04  	sb	a2, 64(sp)
   183fa: 83 b4 09 02  	ld	s1, 32(s3)
   183fe: 02 e4        	sd	zero, 8(sp)
   18400: 02 ec        	sd	zero, 24(sp)
   18402: 2a f4        	sd	a0, 40(sp)
   18404: 2e f8        	sd	a1, 48(sp)
   18406: e9 c0        	beqz	s1, 0x184c8 <.Lpcrel_hi598+0x96>
   18408: 03 b5 89 02  	ld	a0, 40(s3)
   1840c: 63 05 05 10  	beqz	a0, 0x18516 <.Lpcrel_hi598+0xe4>
   18410: 03 b4 09 00  	ld	s0, 0(s3)
   18414: 03 ba 09 01  	ld	s4, 16(s3)
   18418: 93 05 f5 ff  	addi	a1, a0, -1
   1841c: 8e 05        	slli	a1, a1, 3
   1841e: 8d 81        	srli	a1, a1, 3
   18420: 13 89 15 00  	addi	s2, a1, 1
   18424: 21 04        	addi	s0, s0, 8
   18426: 93 05 80 03  	li	a1, 56
   1842a: b3 0a b5 02  	mul	s5, a0, a1
   1842e: e1 04        	addi	s1, s1, 24
   18430: 05 4b        	li	s6, 1

0000000000018432 <.Lpcrel_hi598>:
   18432: 17 05 00 00  	auipc	a0, 0
   18436: 93 0b 85 a6  	addi	s7, a0, -1432
   1843a: 10 60        	ld	a2, 0(s0)
   1843c: 01 ca        	beqz	a2, 0x1844c <.Lpcrel_hi598+0x1a>
   1843e: c2 76        	ld	a3, 48(sp)
   18440: 22 75        	ld	a0, 40(sp)
   18442: 83 35 84 ff  	ld	a1, -8(s0)
   18446: 94 6e        	ld	a3, 24(a3)
   18448: 82 96        	jalr	a3
   1844a: 65 e9        	bnez	a0, 0x1853a <.Lpcrel_hi598+0x108>
   1844c: 88 48        	lw	a0, 16(s1)
   1844e: 2a dc        	sw	a0, 56(sp)
   18450: 03 c5 84 01  	lbu	a0, 24(s1)
   18454: 23 00 a1 04  	sb	a0, 64(sp)
   18458: c8 48        	lw	a0, 20(s1)
   1845a: 2a de        	sw	a0, 60(sp)
   1845c: 83 b5 84 ff  	ld	a1, -8(s1)
   18460: 88 60        	ld	a0, 0(s1)
   18462: 81 cd        	beqz	a1, 0x1847a <.Lpcrel_hi598+0x48>
   18464: 63 97 65 01  	bne	a1, s6, 0x18472 <.Lpcrel_hi598+0x40>
   18468: 12 05        	slli	a0, a0, 4
   1846a: 52 95        	add	a0, a0, s4
   1846c: 0c 65        	ld	a1, 8(a0)
   1846e: 63 84 75 01  	beq	a1, s7, 0x18476 <.Lpcrel_hi598+0x44>
   18472: 81 45        	li	a1, 0
   18474: 21 a0        	j	0x1847c <.Lpcrel_hi598+0x4a>
   18476: 08 61        	ld	a0, 0(a0)
   18478: 08 61        	ld	a0, 0(a0)
   1847a: 85 45        	li	a1, 1
   1847c: 2e e4        	sd	a1, 8(sp)
   1847e: 2a e8        	sd	a0, 16(sp)
   18480: 83 b5 84 fe  	ld	a1, -24(s1)
   18484: 03 b5 04 ff  	ld	a0, -16(s1)
   18488: 81 cd        	beqz	a1, 0x184a0 <.Lpcrel_hi598+0x6e>
   1848a: 63 97 65 01  	bne	a1, s6, 0x18498 <.Lpcrel_hi598+0x66>
   1848e: 12 05        	slli	a0, a0, 4
   18490: 52 95        	add	a0, a0, s4
   18492: 0c 65        	ld	a1, 8(a0)
   18494: 63 84 75 01  	beq	a1, s7, 0x1849c <.Lpcrel_hi598+0x6a>
   18498: 81 45        	li	a1, 0
   1849a: 21 a0        	j	0x184a2 <.Lpcrel_hi598+0x70>
   1849c: 08 61        	ld	a0, 0(a0)
   1849e: 08 61        	ld	a0, 0(a0)
   184a0: 85 45        	li	a1, 1
   184a2: 2e ec        	sd	a1, 24(sp)
   184a4: 2a f0        	sd	a0, 32(sp)
   184a6: 88 64        	ld	a0, 8(s1)
   184a8: 12 05        	slli	a0, a0, 4
   184aa: b3 05 aa 00  	add	a1, s4, a0
   184ae: 88 61        	ld	a0, 0(a1)
   184b0: 90 65        	ld	a2, 8(a1)
   184b2: 2c 00        	addi	a1, sp, 8
   184b4: 02 96        	jalr	a2
   184b6: 51 e1        	bnez	a0, 0x1853a <.Lpcrel_hi598+0x108>
   184b8: 41 04        	addi	s0, s0, 16
   184ba: 93 8a 8a fc  	addi	s5, s5, -56
   184be: 93 84 84 03  	addi	s1, s1, 56
   184c2: e3 9c 0a f6  	bnez	s5, 0x1843a <.Lpcrel_hi598+0x8>
   184c6: 99 a0        	j	0x1850c <.Lpcrel_hi598+0xda>
   184c8: 03 b5 89 01  	ld	a0, 24(s3)
   184cc: 29 c5        	beqz	a0, 0x18516 <.Lpcrel_hi598+0xe4>
   184ce: 03 b4 09 01  	ld	s0, 16(s3)
   184d2: 13 1a 45 00  	slli	s4, a0, 4
   184d6: 22 9a        	add	s4, s4, s0
   184d8: 83 b4 09 00  	ld	s1, 0(s3)
   184dc: 7d 15        	addi	a0, a0, -1
   184de: 12 05        	slli	a0, a0, 4
   184e0: 11 81        	srli	a0, a0, 4
   184e2: 13 09 15 00  	addi	s2, a0, 1
   184e6: a1 04        	addi	s1, s1, 8
   184e8: 90 60        	ld	a2, 0(s1)
   184ea: 01 ca        	beqz	a2, 0x184fa <.Lpcrel_hi598+0xc8>
   184ec: c2 76        	ld	a3, 48(sp)
   184ee: 22 75        	ld	a0, 40(sp)
   184f0: 83 b5 84 ff  	ld	a1, -8(s1)
   184f4: 94 6e        	ld	a3, 24(a3)
   184f6: 82 96        	jalr	a3
   184f8: 29 e1        	bnez	a0, 0x1853a <.Lpcrel_hi598+0x108>
   184fa: 08 60        	ld	a0, 0(s0)
   184fc: 10 64        	ld	a2, 8(s0)
   184fe: 2c 00        	addi	a1, sp, 8
   18500: 02 96        	jalr	a2
   18502: 05 ed        	bnez	a0, 0x1853a <.Lpcrel_hi598+0x108>
   18504: 41 04        	addi	s0, s0, 16
   18506: c1 04        	addi	s1, s1, 16
   18508: e3 10 44 ff  	bne	s0, s4, 0x184e8 <.Lpcrel_hi598+0xb6>
   1850c: 03 b5 89 00  	ld	a0, 8(s3)
   18510: 63 68 a9 00  	bltu	s2, a0, 0x18520 <.Lpcrel_hi598+0xee>
   18514: 2d a0        	j	0x1853e <.Lpcrel_hi598+0x10c>
   18516: 01 49        	li	s2, 0
   18518: 03 b5 89 00  	ld	a0, 8(s3)
   1851c: 63 71 a0 02  	bgeu	zero, a0, 0x1853e <.Lpcrel_hi598+0x10c>
   18520: 03 b5 09 00  	ld	a0, 0(s3)
   18524: 12 09        	slli	s2, s2, 4
   18526: 2a 99        	add	s2, s2, a0
   18528: c2 76        	ld	a3, 48(sp)
   1852a: 22 75        	ld	a0, 40(sp)
   1852c: 83 35 09 00  	ld	a1, 0(s2)
   18530: 03 36 89 00  	ld	a2, 8(s2)
   18534: 94 6e        	ld	a3, 24(a3)
   18536: 82 96        	jalr	a3
   18538: 19 c1        	beqz	a0, 0x1853e <.Lpcrel_hi598+0x10c>
   1853a: 05 45        	li	a0, 1
   1853c: 11 a0        	j	0x18540 <.Lpcrel_hi598+0x10e>
   1853e: 01 45        	li	a0, 0
   18540: aa 60        	ld	ra, 136(sp)
   18542: 0a 64        	ld	s0, 128(sp)
   18544: e6 74        	ld	s1, 120(sp)
   18546: 46 79        	ld	s2, 112(sp)
   18548: a6 79        	ld	s3, 104(sp)
   1854a: 06 7a        	ld	s4, 96(sp)
   1854c: e6 6a        	ld	s5, 88(sp)
   1854e: 46 6b        	ld	s6, 80(sp)
   18550: a6 6b        	ld	s7, 72(sp)
   18552: 49 61        	addi	sp, sp, 144
   18554: 82 80        	ret

0000000000018556 <_ZN4core3fmt9Formatter12pad_integral17h0254a0511169f4d7E>:
   18556: 59 71        	addi	sp, sp, -112
   18558: 86 f4        	sd	ra, 104(sp)
   1855a: a2 f0        	sd	s0, 96(sp)
   1855c: a6 ec        	sd	s1, 88(sp)
   1855e: ca e8        	sd	s2, 80(sp)
   18560: ce e4        	sd	s3, 72(sp)
   18562: d2 e0        	sd	s4, 64(sp)
   18564: 56 fc        	sd	s5, 56(sp)
   18566: 5a f8        	sd	s6, 48(sp)
   18568: 5e f4        	sd	s7, 40(sp)
   1856a: 62 f0        	sd	s8, 32(sp)
   1856c: 66 ec        	sd	s9, 24(sp)
   1856e: 6a e8        	sd	s10, 16(sp)
   18570: 6e e4        	sd	s11, 8(sp)
   18572: be 89        	mv	s3, a5
   18574: 3a 89        	mv	s2, a4
   18576: 36 8b        	mv	s6, a3
   18578: 32 8a        	mv	s4, a2
   1857a: 2a 8c        	mv	s8, a0
   1857c: b9 c1        	beqz	a1, 0x185c2 <_ZN4core3fmt9Formatter12pad_integral17h0254a0511169f4d7E+0x6c>
   1857e: 03 64 4c 03  	lwu	s0, 52(s8)
   18582: 93 7c 14 00  	andi	s9, s0, 1
   18586: b7 0a 11 00  	lui	s5, 272
   1858a: 63 84 0c 00  	beqz	s9, 0x18592 <_ZN4core3fmt9Formatter12pad_integral17h0254a0511169f4d7E+0x3c>
   1858e: 93 0a b0 02  	li	s5, 43
   18592: ce 9c        	add	s9, s9, s3
   18594: 13 75 44 00  	andi	a0, s0, 4
   18598: 15 cd        	beqz	a0, 0x185d4 <_ZN4core3fmt9Formatter12pad_integral17h0254a0511169f4d7E+0x7e>
   1859a: 13 05 00 02  	li	a0, 32
   1859e: 63 70 ab 04  	bgeu	s6, a0, 0x185de <_ZN4core3fmt9Formatter12pad_integral17h0254a0511169f4d7E+0x88>
   185a2: 01 45        	li	a0, 0
   185a4: 63 03 0b 04  	beqz	s6, 0x185ea <_ZN4core3fmt9Formatter12pad_integral17h0254a0511169f4d7E+0x94>
   185a8: d2 85        	mv	a1, s4
   185aa: 5a 86        	mv	a2, s6
   185ac: 83 86 05 00  	lb	a3, 0(a1)
   185b0: 93 a6 06 fc  	slti	a3, a3, -64
   185b4: 93 c6 16 00  	xori	a3, a3, 1
   185b8: 36 95        	add	a0, a0, a3
   185ba: 7d 16        	addi	a2, a2, -1
   185bc: 85 05        	addi	a1, a1, 1
   185be: 7d f6        	bnez	a2, 0x185ac <_ZN4core3fmt9Formatter12pad_integral17h0254a0511169f4d7E+0x56>
   185c0: 2d a0        	j	0x185ea <_ZN4core3fmt9Formatter12pad_integral17h0254a0511169f4d7E+0x94>
   185c2: 03 24 4c 03  	lw	s0, 52(s8)
   185c6: 93 8c 19 00  	addi	s9, s3, 1
   185ca: 93 0a d0 02  	li	s5, 45
   185ce: 13 75 44 00  	andi	a0, s0, 4
   185d2: 61 f5        	bnez	a0, 0x1859a <_ZN4core3fmt9Formatter12pad_integral17h0254a0511169f4d7E+0x44>
   185d4: 01 4a        	li	s4, 0
   185d6: 03 35 0c 00  	ld	a0, 0(s8)
   185da: 01 ed        	bnez	a0, 0x185f2 <_ZN4core3fmt9Formatter12pad_integral17h0254a0511169f4d7E+0x9c>
   185dc: 15 a8        	j	0x18610 <_ZN4core3fmt9Formatter12pad_integral17h0254a0511169f4d7E+0xba>
   185de: 52 85        	mv	a0, s4
   185e0: da 85        	mv	a1, s6
   185e2: 97 00 00 00  	auipc	ra, 0
   185e6: e7 80 e0 57  	jalr	1406(ra)
   185ea: aa 9c        	add	s9, s9, a0
   185ec: 03 35 0c 00  	ld	a0, 0(s8)
   185f0: 05 c1        	beqz	a0, 0x18610 <_ZN4core3fmt9Formatter12pad_integral17h0254a0511169f4d7E+0xba>
   185f2: 03 3d 8c 00  	ld	s10, 8(s8)
   185f6: 63 fd ac 01  	bgeu	s9, s10, 0x18610 <_ZN4core3fmt9Formatter12pad_integral17h0254a0511169f4d7E+0xba>
   185fa: 21 88        	andi	s0, s0, 8
   185fc: 25 ec        	bnez	s0, 0x18674 <_ZN4core3fmt9Formatter12pad_integral17h0254a0511169f4d7E+0x11e>
   185fe: 03 45 8c 03  	lbu	a0, 56(s8)
   18602: 85 45        	li	a1, 1
   18604: b3 0c 9d 41  	sub	s9, s10, s9
   18608: 63 cd a5 0a  	blt	a1, a0, 0x186c2 <_ZN4core3fmt9Formatter12pad_integral17h0254a0511169f4d7E+0x16c>
   1860c: 61 e5        	bnez	a0, 0x186d4 <_ZN4core3fmt9Formatter12pad_integral17h0254a0511169f4d7E+0x17e>
   1860e: e9 a0        	j	0x186d8 <_ZN4core3fmt9Formatter12pad_integral17h0254a0511169f4d7E+0x182>
   18610: 03 34 0c 02  	ld	s0, 32(s8)
   18614: 83 34 8c 02  	ld	s1, 40(s8)
   18618: 22 85        	mv	a0, s0
   1861a: a6 85        	mv	a1, s1
   1861c: 56 86        	mv	a2, s5
   1861e: d2 86        	mv	a3, s4
   18620: 5a 87        	mv	a4, s6
   18622: 97 00 00 00  	auipc	ra, 0
   18626: e7 80 00 14  	jalr	320(ra)
   1862a: 85 4b        	li	s7, 1
   1862c: 0d c1        	beqz	a0, 0x1864e <_ZN4core3fmt9Formatter12pad_integral17h0254a0511169f4d7E+0xf8>
   1862e: 5e 85        	mv	a0, s7
   18630: a6 70        	ld	ra, 104(sp)
   18632: 06 74        	ld	s0, 96(sp)
   18634: e6 64        	ld	s1, 88(sp)
   18636: 46 69        	ld	s2, 80(sp)
   18638: a6 69        	ld	s3, 72(sp)
   1863a: 06 6a        	ld	s4, 64(sp)
   1863c: e2 7a        	ld	s5, 56(sp)
   1863e: 42 7b        	ld	s6, 48(sp)
   18640: a2 7b        	ld	s7, 40(sp)
   18642: 02 7c        	ld	s8, 32(sp)
   18644: e2 6c        	ld	s9, 24(sp)
   18646: 42 6d        	ld	s10, 16(sp)
   18648: a2 6d        	ld	s11, 8(sp)
   1864a: 65 61        	addi	sp, sp, 112
   1864c: 82 80        	ret
   1864e: 9c 6c        	ld	a5, 24(s1)
   18650: 22 85        	mv	a0, s0
   18652: ca 85        	mv	a1, s2
   18654: 4e 86        	mv	a2, s3
   18656: a6 70        	ld	ra, 104(sp)
   18658: 06 74        	ld	s0, 96(sp)
   1865a: e6 64        	ld	s1, 88(sp)
   1865c: 46 69        	ld	s2, 80(sp)
   1865e: a6 69        	ld	s3, 72(sp)
   18660: 06 6a        	ld	s4, 64(sp)
   18662: e2 7a        	ld	s5, 56(sp)
   18664: 42 7b        	ld	s6, 48(sp)
   18666: a2 7b        	ld	s7, 40(sp)
   18668: 02 7c        	ld	s8, 32(sp)
   1866a: e2 6c        	ld	s9, 24(sp)
   1866c: 42 6d        	ld	s10, 16(sp)
   1866e: a2 6d        	ld	s11, 8(sp)
   18670: 65 61        	addi	sp, sp, 112
   18672: 82 87        	jr	a5
   18674: 03 24 0c 03  	lw	s0, 48(s8)
   18678: 13 05 00 03  	li	a0, 48
   1867c: 83 45 8c 03  	lbu	a1, 56(s8)
   18680: 2e e0        	sd	a1, 0(sp)
   18682: 83 3d 0c 02  	ld	s11, 32(s8)
   18686: 83 34 8c 02  	ld	s1, 40(s8)
   1868a: 23 28 ac 02  	sw	a0, 48(s8)
   1868e: 85 4b        	li	s7, 1
   18690: 23 0c 7c 03  	sb	s7, 56(s8)
   18694: 6e 85        	mv	a0, s11
   18696: a6 85        	mv	a1, s1
   18698: 56 86        	mv	a2, s5
   1869a: d2 86        	mv	a3, s4
   1869c: 5a 87        	mv	a4, s6
   1869e: 97 00 00 00  	auipc	ra, 0
   186a2: e7 80 40 0c  	jalr	196(ra)
   186a6: 41 f5        	bnez	a0, 0x1862e <_ZN4core3fmt9Formatter12pad_integral17h0254a0511169f4d7E+0xd8>
   186a8: 22 8a        	mv	s4, s0
   186aa: 33 04 9d 41  	sub	s0, s10, s9
   186ae: 05 04        	addi	s0, s0, 1
   186b0: 7d 14        	addi	s0, s0, -1
   186b2: 51 c4        	beqz	s0, 0x1873e <_ZN4core3fmt9Formatter12pad_integral17h0254a0511169f4d7E+0x1e8>
   186b4: 90 70        	ld	a2, 32(s1)
   186b6: 93 05 00 03  	li	a1, 48
   186ba: 6e 85        	mv	a0, s11
   186bc: 02 96        	jalr	a2
   186be: 6d d9        	beqz	a0, 0x186b0 <_ZN4core3fmt9Formatter12pad_integral17h0254a0511169f4d7E+0x15a>
   186c0: bd b7        	j	0x1862e <_ZN4core3fmt9Formatter12pad_integral17h0254a0511169f4d7E+0xd8>
   186c2: 89 45        	li	a1, 2
   186c4: 63 18 b5 00  	bne	a0, a1, 0x186d4 <_ZN4core3fmt9Formatter12pad_integral17h0254a0511169f4d7E+0x17e>
   186c8: 13 d5 1c 00  	srli	a0, s9, 1
   186cc: 85 0c        	addi	s9, s9, 1
   186ce: 93 dc 1c 00  	srli	s9, s9, 1
   186d2: 19 a0        	j	0x186d8 <_ZN4core3fmt9Formatter12pad_integral17h0254a0511169f4d7E+0x182>
   186d4: 66 85        	mv	a0, s9
   186d6: 81 4c        	li	s9, 0
   186d8: 03 3d 0c 02  	ld	s10, 32(s8)
   186dc: 83 34 8c 02  	ld	s1, 40(s8)
   186e0: 03 2c 0c 03  	lw	s8, 48(s8)
   186e4: 13 04 15 00  	addi	s0, a0, 1
   186e8: 7d 14        	addi	s0, s0, -1
   186ea: 01 c8        	beqz	s0, 0x186fa <_ZN4core3fmt9Formatter12pad_integral17h0254a0511169f4d7E+0x1a4>
   186ec: 90 70        	ld	a2, 32(s1)
   186ee: 6a 85        	mv	a0, s10
   186f0: e2 85        	mv	a1, s8
   186f2: 02 96        	jalr	a2
   186f4: 75 d9        	beqz	a0, 0x186e8 <_ZN4core3fmt9Formatter12pad_integral17h0254a0511169f4d7E+0x192>
   186f6: 85 4b        	li	s7, 1
   186f8: 1d bf        	j	0x1862e <_ZN4core3fmt9Formatter12pad_integral17h0254a0511169f4d7E+0xd8>
   186fa: 6a 85        	mv	a0, s10
   186fc: a6 85        	mv	a1, s1
   186fe: 56 86        	mv	a2, s5
   18700: d2 86        	mv	a3, s4
   18702: 5a 87        	mv	a4, s6
   18704: 97 00 00 00  	auipc	ra, 0
   18708: e7 80 e0 05  	jalr	94(ra)
   1870c: 85 4b        	li	s7, 1
   1870e: 05 f1        	bnez	a0, 0x1862e <_ZN4core3fmt9Formatter12pad_integral17h0254a0511169f4d7E+0xd8>
   18710: 94 6c        	ld	a3, 24(s1)
   18712: 6a 85        	mv	a0, s10
   18714: ca 85        	mv	a1, s2
   18716: 4e 86        	mv	a2, s3
   18718: 82 96        	jalr	a3
   1871a: 11 f9        	bnez	a0, 0x1862e <_ZN4core3fmt9Formatter12pad_integral17h0254a0511169f4d7E+0xd8>
   1871c: 33 09 90 41  	neg	s2, s9
   18720: fd 59        	li	s3, -1
   18722: 7d 54        	li	s0, -1
   18724: 33 05 89 00  	add	a0, s2, s0
   18728: 63 09 35 03  	beq	a0, s3, 0x1875a <_ZN4core3fmt9Formatter12pad_integral17h0254a0511169f4d7E+0x204>
   1872c: 90 70        	ld	a2, 32(s1)
   1872e: 6a 85        	mv	a0, s10
   18730: e2 85        	mv	a1, s8
   18732: 02 96        	jalr	a2
   18734: 05 04        	addi	s0, s0, 1
   18736: 7d d5        	beqz	a0, 0x18724 <_ZN4core3fmt9Formatter12pad_integral17h0254a0511169f4d7E+0x1ce>
   18738: b3 3b 94 01  	sltu	s7, s0, s9
   1873c: cd bd        	j	0x1862e <_ZN4core3fmt9Formatter12pad_integral17h0254a0511169f4d7E+0xd8>
   1873e: 94 6c        	ld	a3, 24(s1)
   18740: 6e 85        	mv	a0, s11
   18742: ca 85        	mv	a1, s2
   18744: 4e 86        	mv	a2, s3
   18746: 82 96        	jalr	a3
   18748: e3 13 05 ee  	bnez	a0, 0x1862e <_ZN4core3fmt9Formatter12pad_integral17h0254a0511169f4d7E+0xd8>
   1874c: 81 4b        	li	s7, 0
   1874e: 23 28 4c 03  	sw	s4, 48(s8)
   18752: 02 65        	ld	a0, 0(sp)
   18754: 23 0c ac 02  	sb	a0, 56(s8)
   18758: d9 bd        	j	0x1862e <_ZN4core3fmt9Formatter12pad_integral17h0254a0511169f4d7E+0xd8>
   1875a: 66 84        	mv	s0, s9
   1875c: b3 bb 9c 01  	sltu	s7, s9, s9
   18760: f9 b5        	j	0x1862e <_ZN4core3fmt9Formatter12pad_integral17h0254a0511169f4d7E+0xd8>

0000000000018762 <_ZN4core3fmt9Formatter12pad_integral12write_prefix17h12e4a8cd2c2144c8E>:
   18762: 79 71        	addi	sp, sp, -48
   18764: 06 f4        	sd	ra, 40(sp)
   18766: 22 f0        	sd	s0, 32(sp)
   18768: 26 ec        	sd	s1, 24(sp)
   1876a: 4a e8        	sd	s2, 16(sp)
   1876c: 4e e4        	sd	s3, 8(sp)
   1876e: 9b 07 06 00  	sext.w	a5, a2
   18772: 37 08 11 00  	lui	a6, 272
   18776: 3a 89        	mv	s2, a4
   18778: b6 84        	mv	s1, a3
   1877a: 2e 84        	mv	s0, a1
   1877c: aa 89        	mv	s3, a0
   1877e: 63 89 07 01  	beq	a5, a6, 0x18790 <_ZN4core3fmt9Formatter12pad_integral12write_prefix17h12e4a8cd2c2144c8E+0x2e>
   18782: 14 70        	ld	a3, 32(s0)
   18784: 4e 85        	mv	a0, s3
   18786: b2 85        	mv	a1, a2
   18788: 82 96        	jalr	a3
   1878a: aa 85        	mv	a1, a0
   1878c: 05 45        	li	a0, 1
   1878e: 91 ed        	bnez	a1, 0x187aa <_ZN4core3fmt9Formatter12pad_integral12write_prefix17h12e4a8cd2c2144c8E+0x48>
   18790: 81 cc        	beqz	s1, 0x187a8 <_ZN4core3fmt9Formatter12pad_integral12write_prefix17h12e4a8cd2c2144c8E+0x46>
   18792: 1c 6c        	ld	a5, 24(s0)
   18794: 4e 85        	mv	a0, s3
   18796: a6 85        	mv	a1, s1
   18798: 4a 86        	mv	a2, s2
   1879a: a2 70        	ld	ra, 40(sp)
   1879c: 02 74        	ld	s0, 32(sp)
   1879e: e2 64        	ld	s1, 24(sp)
   187a0: 42 69        	ld	s2, 16(sp)
   187a2: a2 69        	ld	s3, 8(sp)
   187a4: 45 61        	addi	sp, sp, 48
   187a6: 82 87        	jr	a5
   187a8: 01 45        	li	a0, 0
   187aa: a2 70        	ld	ra, 40(sp)
   187ac: 02 74        	ld	s0, 32(sp)
   187ae: e2 64        	ld	s1, 24(sp)
   187b0: 42 69        	ld	s2, 16(sp)
   187b2: a2 69        	ld	s3, 8(sp)
   187b4: 45 61        	addi	sp, sp, 48
   187b6: 82 80        	ret

00000000000187b8 <_ZN4core3fmt9Formatter3pad17ha1b4353e6d3adf42E>:
   187b8: 39 71        	addi	sp, sp, -64
   187ba: 06 fc        	sd	ra, 56(sp)
   187bc: 22 f8        	sd	s0, 48(sp)
   187be: 26 f4        	sd	s1, 40(sp)
   187c0: 4a f0        	sd	s2, 32(sp)
   187c2: 4e ec        	sd	s3, 24(sp)
   187c4: 52 e8        	sd	s4, 16(sp)
   187c6: 56 e4        	sd	s5, 8(sp)
   187c8: 5a e0        	sd	s6, 0(sp)
   187ca: 2a 8b        	mv	s6, a0
   187cc: 83 32 05 00  	ld	t0, 0(a0)
   187d0: 08 69        	ld	a0, 16(a0)
   187d2: b3 e6 a2 00  	or	a3, t0, a0
   187d6: b2 89        	mv	s3, a2
   187d8: 2e 89        	mv	s2, a1
   187da: 63 88 06 16  	beqz	a3, 0x1894a <_ZN4core3fmt9Formatter3pad17ha1b4353e6d3adf42E+0x192>
   187de: 63 09 05 10  	beqz	a0, 0x188f0 <_ZN4core3fmt9Formatter3pad17ha1b4353e6d3adf42E+0x138>
   187e2: 03 37 8b 01  	ld	a4, 24(s6)
   187e6: 01 45        	li	a0, 0
   187e8: b3 06 39 01  	add	a3, s2, s3
   187ec: 05 07        	addi	a4, a4, 1
   187ee: 37 03 11 00  	lui	t1, 272
   187f2: 93 08 f0 0d  	li	a7, 223
   187f6: 13 08 00 0f  	li	a6, 240
   187fa: 4a 86        	mv	a2, s2
   187fc: 01 a8        	j	0x1880c <_ZN4core3fmt9Formatter3pad17ha1b4353e6d3adf42E+0x54>
   187fe: 93 05 16 00  	addi	a1, a2, 1
   18802: 11 8d        	sub	a0, a0, a2
   18804: 2e 95        	add	a0, a0, a1
   18806: 2e 86        	mv	a2, a1
   18808: 63 04 64 0e  	beq	s0, t1, 0x188f0 <_ZN4core3fmt9Formatter3pad17ha1b4353e6d3adf42E+0x138>
   1880c: 7d 17        	addi	a4, a4, -1
   1880e: 25 c7        	beqz	a4, 0x18876 <_ZN4core3fmt9Formatter3pad17ha1b4353e6d3adf42E+0xbe>
   18810: 63 00 d6 0e  	beq	a2, a3, 0x188f0 <_ZN4core3fmt9Formatter3pad17ha1b4353e6d3adf42E+0x138>
   18814: 83 05 06 00  	lb	a1, 0(a2)
   18818: 13 f4 f5 0f  	andi	s0, a1, 255
   1881c: e3 d1 05 fe  	bgez	a1, 0x187fe <_ZN4core3fmt9Formatter3pad17ha1b4353e6d3adf42E+0x46>
   18820: 83 45 16 00  	lbu	a1, 1(a2)
   18824: 93 74 f4 01  	andi	s1, s0, 31
   18828: 93 f7 f5 03  	andi	a5, a1, 63
   1882c: 63 f9 88 02  	bgeu	a7, s0, 0x1885e <_ZN4core3fmt9Formatter3pad17ha1b4353e6d3adf42E+0xa6>
   18830: 83 45 26 00  	lbu	a1, 2(a2)
   18834: 9a 07        	slli	a5, a5, 6
   18836: 93 f5 f5 03  	andi	a1, a1, 63
   1883a: cd 8f        	or	a5, a5, a1
   1883c: 63 67 04 03  	bltu	s0, a6, 0x1886a <_ZN4core3fmt9Formatter3pad17ha1b4353e6d3adf42E+0xb2>
   18840: 83 45 36 00  	lbu	a1, 3(a2)
   18844: f6 14        	slli	s1, s1, 61
   18846: ad 90        	srli	s1, s1, 43
   18848: 9a 07        	slli	a5, a5, 6
   1884a: 93 f5 f5 03  	andi	a1, a1, 63
   1884e: dd 8d        	or	a1, a1, a5
   18850: 33 e4 95 00  	or	s0, a1, s1
   18854: 63 0e 64 08  	beq	s0, t1, 0x188f0 <_ZN4core3fmt9Formatter3pad17ha1b4353e6d3adf42E+0x138>
   18858: 93 05 46 00  	addi	a1, a2, 4
   1885c: 5d b7        	j	0x18802 <_ZN4core3fmt9Formatter3pad17ha1b4353e6d3adf42E+0x4a>
   1885e: 93 05 26 00  	addi	a1, a2, 2
   18862: 13 94 64 00  	slli	s0, s1, 6
   18866: 5d 8c        	or	s0, s0, a5
   18868: 69 bf        	j	0x18802 <_ZN4core3fmt9Formatter3pad17ha1b4353e6d3adf42E+0x4a>
   1886a: 93 05 36 00  	addi	a1, a2, 3
   1886e: 13 94 c4 00  	slli	s0, s1, 12
   18872: 5d 8c        	or	s0, s0, a5
   18874: 79 b7        	j	0x18802 <_ZN4core3fmt9Formatter3pad17ha1b4353e6d3adf42E+0x4a>
   18876: 63 0d d6 06  	beq	a2, a3, 0x188f0 <_ZN4core3fmt9Formatter3pad17ha1b4353e6d3adf42E+0x138>
   1887a: 83 05 06 00  	lb	a1, 0(a2)
   1887e: 63 d3 05 04  	bgez	a1, 0x188c4 <_ZN4core3fmt9Formatter3pad17ha1b4353e6d3adf42E+0x10c>
   18882: 93 f5 f5 0f  	andi	a1, a1, 255
   18886: 93 06 00 0e  	li	a3, 224
   1888a: 63 ed d5 02  	bltu	a1, a3, 0x188c4 <_ZN4core3fmt9Formatter3pad17ha1b4353e6d3adf42E+0x10c>
   1888e: 93 06 00 0f  	li	a3, 240
   18892: 63 e9 d5 02  	bltu	a1, a3, 0x188c4 <_ZN4core3fmt9Formatter3pad17ha1b4353e6d3adf42E+0x10c>
   18896: 83 46 16 00  	lbu	a3, 1(a2)
   1889a: 03 47 26 00  	lbu	a4, 2(a2)
   1889e: 93 f6 f6 03  	andi	a3, a3, 63
   188a2: 13 77 f7 03  	andi	a4, a4, 63
   188a6: 03 46 36 00  	lbu	a2, 3(a2)
   188aa: f6 15        	slli	a1, a1, 61
   188ac: ad 91        	srli	a1, a1, 43
   188ae: b2 06        	slli	a3, a3, 12
   188b0: 1a 07        	slli	a4, a4, 6
   188b2: d9 8e        	or	a3, a3, a4
   188b4: 13 76 f6 03  	andi	a2, a2, 63
   188b8: 55 8e        	or	a2, a2, a3
   188ba: d1 8d        	or	a1, a1, a2
   188bc: 37 06 11 00  	lui	a2, 272
   188c0: 63 88 c5 02  	beq	a1, a2, 0x188f0 <_ZN4core3fmt9Formatter3pad17ha1b4353e6d3adf42E+0x138>
   188c4: 0d c1        	beqz	a0, 0x188e6 <_ZN4core3fmt9Formatter3pad17ha1b4353e6d3adf42E+0x12e>
   188c6: 63 7e 35 01  	bgeu	a0, s3, 0x188e2 <_ZN4core3fmt9Formatter3pad17ha1b4353e6d3adf42E+0x12a>
   188ca: b3 05 a9 00  	add	a1, s2, a0
   188ce: 83 85 05 00  	lb	a1, 0(a1)
   188d2: 13 06 00 fc  	li	a2, -64
   188d6: 63 d8 c5 00  	bge	a1, a2, 0x188e6 <_ZN4core3fmt9Formatter3pad17ha1b4353e6d3adf42E+0x12e>
   188da: 81 45        	li	a1, 0
   188dc: 63 18 00 00  	bnez	zero, 0x188ec <_ZN4core3fmt9Formatter3pad17ha1b4353e6d3adf42E+0x134>
   188e0: 01 a8        	j	0x188f0 <_ZN4core3fmt9Formatter3pad17ha1b4353e6d3adf42E+0x138>
   188e2: e3 1c 35 ff  	bne	a0, s3, 0x188da <_ZN4core3fmt9Formatter3pad17ha1b4353e6d3adf42E+0x122>
   188e6: ca 85        	mv	a1, s2
   188e8: 63 04 09 00  	beqz	s2, 0x188f0 <_ZN4core3fmt9Formatter3pad17ha1b4353e6d3adf42E+0x138>
   188ec: aa 89        	mv	s3, a0
   188ee: 2e 89        	mv	s2, a1
   188f0: 63 8d 02 04  	beqz	t0, 0x1894a <_ZN4core3fmt9Formatter3pad17ha1b4353e6d3adf42E+0x192>
   188f4: 03 34 8b 00  	ld	s0, 8(s6)
   188f8: 13 05 00 02  	li	a0, 32
   188fc: 63 ff a9 02  	bgeu	s3, a0, 0x1893a <_ZN4core3fmt9Formatter3pad17ha1b4353e6d3adf42E+0x182>
   18900: 01 45        	li	a0, 0
   18902: 63 8e 09 00  	beqz	s3, 0x1891e <_ZN4core3fmt9Formatter3pad17ha1b4353e6d3adf42E+0x166>
   18906: ca 85        	mv	a1, s2
   18908: 4e 86        	mv	a2, s3
   1890a: 83 86 05 00  	lb	a3, 0(a1)
   1890e: 93 a6 06 fc  	slti	a3, a3, -64
   18912: 93 c6 16 00  	xori	a3, a3, 1
   18916: 36 95        	add	a0, a0, a3
   18918: 7d 16        	addi	a2, a2, -1
   1891a: 85 05        	addi	a1, a1, 1
   1891c: 7d f6        	bnez	a2, 0x1890a <_ZN4core3fmt9Formatter3pad17ha1b4353e6d3adf42E+0x152>
   1891e: 63 76 85 02  	bgeu	a0, s0, 0x1894a <_ZN4core3fmt9Formatter3pad17ha1b4353e6d3adf42E+0x192>
   18922: 03 46 8b 03  	lbu	a2, 56(s6)
   18926: 81 45        	li	a1, 0
   18928: 85 46        	li	a3, 1
   1892a: 33 0a a4 40  	sub	s4, s0, a0
   1892e: 63 cf c6 02  	blt	a3, a2, 0x1896c <_ZN4core3fmt9Formatter3pad17ha1b4353e6d3adf42E+0x1b4>
   18932: 29 c6        	beqz	a2, 0x1897c <_ZN4core3fmt9Formatter3pad17ha1b4353e6d3adf42E+0x1c4>
   18934: d2 85        	mv	a1, s4
   18936: 01 4a        	li	s4, 0
   18938: 91 a0        	j	0x1897c <_ZN4core3fmt9Formatter3pad17ha1b4353e6d3adf42E+0x1c4>
   1893a: 4a 85        	mv	a0, s2
   1893c: ce 85        	mv	a1, s3
   1893e: 97 00 00 00  	auipc	ra, 0
   18942: e7 80 20 22  	jalr	546(ra)
   18946: e3 6e 85 fc  	bltu	a0, s0, 0x18922 <_ZN4core3fmt9Formatter3pad17ha1b4353e6d3adf42E+0x16a>
   1894a: 83 35 8b 02  	ld	a1, 40(s6)
   1894e: 03 35 0b 02  	ld	a0, 32(s6)
   18952: 9c 6d        	ld	a5, 24(a1)
   18954: ca 85        	mv	a1, s2
   18956: 4e 86        	mv	a2, s3
   18958: e2 70        	ld	ra, 56(sp)
   1895a: 42 74        	ld	s0, 48(sp)
   1895c: a2 74        	ld	s1, 40(sp)
   1895e: 02 79        	ld	s2, 32(sp)
   18960: e2 69        	ld	s3, 24(sp)
   18962: 42 6a        	ld	s4, 16(sp)
   18964: a2 6a        	ld	s5, 8(sp)
   18966: 02 6b        	ld	s6, 0(sp)
   18968: 21 61        	addi	sp, sp, 64
   1896a: 82 87        	jr	a5
   1896c: 09 45        	li	a0, 2
   1896e: 63 17 a6 00  	bne	a2, a0, 0x1897c <_ZN4core3fmt9Formatter3pad17ha1b4353e6d3adf42E+0x1c4>
   18972: 93 55 1a 00  	srli	a1, s4, 1
   18976: 05 0a        	addi	s4, s4, 1
   18978: 13 5a 1a 00  	srli	s4, s4, 1
   1897c: 83 3a 0b 02  	ld	s5, 32(s6)
   18980: 03 34 8b 02  	ld	s0, 40(s6)
   18984: 03 2b 0b 03  	lw	s6, 48(s6)
   18988: 93 84 15 00  	addi	s1, a1, 1
   1898c: fd 14        	addi	s1, s1, -1
   1898e: 81 c8        	beqz	s1, 0x1899e <_ZN4core3fmt9Formatter3pad17ha1b4353e6d3adf42E+0x1e6>
   18990: 10 70        	ld	a2, 32(s0)
   18992: 56 85        	mv	a0, s5
   18994: da 85        	mv	a1, s6
   18996: 02 96        	jalr	a2
   18998: 75 d9        	beqz	a0, 0x1898c <_ZN4core3fmt9Formatter3pad17ha1b4353e6d3adf42E+0x1d4>
   1899a: 05 45        	li	a0, 1
   1899c: 1d a8        	j	0x189d2 <_ZN4core3fmt9Formatter3pad17ha1b4353e6d3adf42E+0x21a>
   1899e: 14 6c        	ld	a3, 24(s0)
   189a0: 56 85        	mv	a0, s5
   189a2: ca 85        	mv	a1, s2
   189a4: 4e 86        	mv	a2, s3
   189a6: 82 96        	jalr	a3
   189a8: aa 85        	mv	a1, a0
   189aa: 05 45        	li	a0, 1
   189ac: 9d e1        	bnez	a1, 0x189d2 <_ZN4core3fmt9Formatter3pad17ha1b4353e6d3adf42E+0x21a>
   189ae: 33 09 40 41  	neg	s2, s4
   189b2: fd 59        	li	s3, -1
   189b4: fd 54        	li	s1, -1
   189b6: 33 05 99 00  	add	a0, s2, s1
   189ba: 63 09 35 01  	beq	a0, s3, 0x189cc <_ZN4core3fmt9Formatter3pad17ha1b4353e6d3adf42E+0x214>
   189be: 10 70        	ld	a2, 32(s0)
   189c0: 56 85        	mv	a0, s5
   189c2: da 85        	mv	a1, s6
   189c4: 02 96        	jalr	a2
   189c6: 85 04        	addi	s1, s1, 1
   189c8: 7d d5        	beqz	a0, 0x189b6 <_ZN4core3fmt9Formatter3pad17ha1b4353e6d3adf42E+0x1fe>
   189ca: 11 a0        	j	0x189ce <_ZN4core3fmt9Formatter3pad17ha1b4353e6d3adf42E+0x216>
   189cc: d2 84        	mv	s1, s4
   189ce: 33 b5 44 01  	sltu	a0, s1, s4
   189d2: e2 70        	ld	ra, 56(sp)
   189d4: 42 74        	ld	s0, 48(sp)
   189d6: a2 74        	ld	s1, 40(sp)
   189d8: 02 79        	ld	s2, 32(sp)
   189da: e2 69        	ld	s3, 24(sp)
   189dc: 42 6a        	ld	s4, 16(sp)
   189de: a2 6a        	ld	s5, 8(sp)
   189e0: 02 6b        	ld	s6, 0(sp)
   189e2: 21 61        	addi	sp, sp, 64
   189e4: 82 80        	ret

00000000000189e6 <_ZN57_$LT$core..fmt..Formatter$u20$as$u20$core..fmt..Write$GT$9write_str17h68667a33e2ad2b41E>:
   189e6: 14 75        	ld	a3, 40(a0)
   189e8: 08 71        	ld	a0, 32(a0)
   189ea: 9c 6e        	ld	a5, 24(a3)
   189ec: 82 87        	jr	a5

00000000000189ee <_ZN4core3fmt9Formatter25debug_tuple_field1_finish17h8ccbf6ea3295bb29E>:
   189ee: 39 71        	addi	sp, sp, -64
   189f0: 06 fc        	sd	ra, 56(sp)
   189f2: 22 f8        	sd	s0, 48(sp)
   189f4: 26 f4        	sd	s1, 40(sp)
   189f6: 4a f0        	sd	s2, 32(sp)
   189f8: 4e ec        	sd	s3, 24(sp)
   189fa: 2a 84        	mv	s0, a0
   189fc: 1c 75        	ld	a5, 40(a0)
   189fe: 08 71        	ld	a0, 32(a0)
   18a00: 9c 6f        	ld	a5, 24(a5)
   18a02: 3a 89        	mv	s2, a4
   18a04: b6 89        	mv	s3, a3
   18a06: b2 84        	mv	s1, a2
   18a08: 82 97        	jalr	a5
   18a0a: 93 b5 14 00  	seqz	a1, s1
   18a0e: 22 e4        	sd	s0, 8(sp)
   18a10: 23 08 a1 00  	sb	a0, 16(sp)
   18a14: 02 e0        	sd	zero, 0(sp)
   18a16: a3 08 b1 00  	sb	a1, 17(sp)
   18a1a: 0a 85        	mv	a0, sp
   18a1c: ce 85        	mv	a1, s3
   18a1e: 4a 86        	mv	a2, s2
   18a20: 97 00 00 00  	auipc	ra, 0
   18a24: e7 80 80 89  	jalr	-1896(ra)
   18a28: 02 65        	ld	a0, 0(sp)
   18a2a: 83 45 01 01  	lbu	a1, 16(sp)
   18a2e: 39 c5        	beqz	a0, 0x18a7c <.Lpcrel_hi615+0x10>
   18a30: 05 44        	li	s0, 1
   18a32: b9 e5        	bnez	a1, 0x18a80 <.Lpcrel_hi615+0x14>
   18a34: 83 45 11 01  	lbu	a1, 17(sp)
   18a38: 7d 15        	addi	a0, a0, -1
   18a3a: 33 35 a0 00  	snez	a0, a0
   18a3e: a2 64        	ld	s1, 8(sp)
   18a40: 93 b5 15 00  	seqz	a1, a1
   18a44: 4d 8d        	or	a0, a0, a1
   18a46: 05 e1        	bnez	a0, 0x18a66 <.Lpcrel_hi616+0x10>
   18a48: 03 c5 44 03  	lbu	a0, 52(s1)
   18a4c: 11 89        	andi	a0, a0, 4
   18a4e: 01 ed        	bnez	a0, 0x18a66 <.Lpcrel_hi616+0x10>
   18a50: 8c 74        	ld	a1, 40(s1)
   18a52: 88 70        	ld	a0, 32(s1)
   18a54: 94 6d        	ld	a3, 24(a1)

0000000000018a56 <.Lpcrel_hi616>:
   18a56: 97 95 ff ff  	auipc	a1, 1048569
   18a5a: 93 85 15 54  	addi	a1, a1, 1345
   18a5e: 05 46        	li	a2, 1
   18a60: 05 44        	li	s0, 1
   18a62: 82 96        	jalr	a3
   18a64: 11 ed        	bnez	a0, 0x18a80 <.Lpcrel_hi615+0x14>
   18a66: 8c 74        	ld	a1, 40(s1)
   18a68: 88 70        	ld	a0, 32(s1)
   18a6a: 94 6d        	ld	a3, 24(a1)

0000000000018a6c <.Lpcrel_hi615>:
   18a6c: 97 95 ff ff  	auipc	a1, 1048569
   18a70: 93 85 c5 39  	addi	a1, a1, 924
   18a74: 05 46        	li	a2, 1
   18a76: 82 96        	jalr	a3
   18a78: 2a 84        	mv	s0, a0
   18a7a: 19 a0        	j	0x18a80 <.Lpcrel_hi615+0x14>
   18a7c: 33 34 b0 00  	snez	s0, a1
   18a80: 22 85        	mv	a0, s0
   18a82: e2 70        	ld	ra, 56(sp)
   18a84: 42 74        	ld	s0, 48(sp)
   18a86: a2 74        	ld	s1, 40(sp)
   18a88: 02 79        	ld	s2, 32(sp)
   18a8a: e2 69        	ld	s3, 24(sp)
   18a8c: 21 61        	addi	sp, sp, 64
   18a8e: 82 80        	ret

0000000000018a90 <_ZN42_$LT$str$u20$as$u20$core..fmt..Display$GT$3fmt17hf0ac5e61d744b03eE>:
   18a90: ae 86        	mv	a3, a1
   18a92: aa 85        	mv	a1, a0
   18a94: 32 85        	mv	a0, a2
   18a96: 36 86        	mv	a2, a3
   18a98: 17 03 00 00  	auipc	t1, 0
   18a9c: 67 00 03 d2  	jr	-736(t1)

0000000000018aa0 <_ZN4core5slice5index26slice_start_index_len_fail17hfe6643e3eff6b48eE>:
   18aa0: 59 71        	addi	sp, sp, -112
   18aa2: 86 f4        	sd	ra, 104(sp)
   18aa4: 2a e4        	sd	a0, 8(sp)
   18aa6: 2e e8        	sd	a1, 16(sp)
   18aa8: 28 00        	addi	a0, sp, 8
   18aaa: aa e4        	sd	a0, 72(sp)

0000000000018aac <.Lpcrel_hi657>:
   18aac: 17 05 00 00  	auipc	a0, 0
   18ab0: 13 05 05 52  	addi	a0, a0, 1312
   18ab4: aa e8        	sd	a0, 80(sp)
   18ab6: 0c 08        	addi	a1, sp, 16
   18ab8: ae ec        	sd	a1, 88(sp)
   18aba: aa f0        	sd	a0, 96(sp)

0000000000018abc <.Lpcrel_hi658>:
   18abc: 17 95 ff ff  	auipc	a0, 1048569
   18ac0: 13 05 45 61  	addi	a0, a0, 1556
   18ac4: 2a ec        	sd	a0, 24(sp)
   18ac6: 09 45        	li	a0, 2
   18ac8: 2a f0        	sd	a0, 32(sp)
   18aca: 02 fc        	sd	zero, 56(sp)
   18acc: ac 00        	addi	a1, sp, 72
   18ace: 2e f4        	sd	a1, 40(sp)
   18ad0: 2a f8        	sd	a0, 48(sp)
   18ad2: 28 08        	addi	a0, sp, 24
   18ad4: b2 85        	mv	a1, a2
   18ad6: 97 f0 ff ff  	auipc	ra, 1048575
   18ada: e7 80 e0 3d  	jalr	990(ra)
   18ade: 00 00        	unimp

0000000000018ae0 <_ZN4core5slice5index24slice_end_index_len_fail17h5703dc06a9ed1d73E>:
   18ae0: 59 71        	addi	sp, sp, -112
   18ae2: 86 f4        	sd	ra, 104(sp)
   18ae4: 2a e4        	sd	a0, 8(sp)
   18ae6: 2e e8        	sd	a1, 16(sp)
   18ae8: 28 00        	addi	a0, sp, 8
   18aea: aa e4        	sd	a0, 72(sp)

0000000000018aec <.Lpcrel_hi659>:
   18aec: 17 05 00 00  	auipc	a0, 0
   18af0: 13 05 05 4e  	addi	a0, a0, 1248
   18af4: aa e8        	sd	a0, 80(sp)
   18af6: 0c 08        	addi	a1, sp, 16
   18af8: ae ec        	sd	a1, 88(sp)
   18afa: aa f0        	sd	a0, 96(sp)

0000000000018afc <.Lpcrel_hi660>:
   18afc: 17 95 ff ff  	auipc	a0, 1048569
   18b00: 13 05 45 5f  	addi	a0, a0, 1524
   18b04: 2a ec        	sd	a0, 24(sp)
   18b06: 09 45        	li	a0, 2
   18b08: 2a f0        	sd	a0, 32(sp)
   18b0a: 02 fc        	sd	zero, 56(sp)
   18b0c: ac 00        	addi	a1, sp, 72
   18b0e: 2e f4        	sd	a1, 40(sp)
   18b10: 2a f8        	sd	a0, 48(sp)
   18b12: 28 08        	addi	a0, sp, 24
   18b14: b2 85        	mv	a1, a2
   18b16: 97 f0 ff ff  	auipc	ra, 1048575
   18b1a: e7 80 e0 39  	jalr	926(ra)
   18b1e: 00 00        	unimp

0000000000018b20 <_ZN4core5slice5index22slice_index_order_fail17he9eceb1671e38484E>:
   18b20: 59 71        	addi	sp, sp, -112
   18b22: 86 f4        	sd	ra, 104(sp)
   18b24: 2a e4        	sd	a0, 8(sp)
   18b26: 2e e8        	sd	a1, 16(sp)
   18b28: 28 00        	addi	a0, sp, 8
   18b2a: aa e4        	sd	a0, 72(sp)

0000000000018b2c <.Lpcrel_hi661>:
   18b2c: 17 05 00 00  	auipc	a0, 0
   18b30: 13 05 05 4a  	addi	a0, a0, 1184
   18b34: aa e8        	sd	a0, 80(sp)
   18b36: 0c 08        	addi	a1, sp, 16
   18b38: ae ec        	sd	a1, 88(sp)
   18b3a: aa f0        	sd	a0, 96(sp)

0000000000018b3c <.Lpcrel_hi662>:
   18b3c: 17 95 ff ff  	auipc	a0, 1048569
   18b40: 13 05 c5 5f  	addi	a0, a0, 1532
   18b44: 2a ec        	sd	a0, 24(sp)
   18b46: 09 45        	li	a0, 2
   18b48: 2a f0        	sd	a0, 32(sp)
   18b4a: 02 fc        	sd	zero, 56(sp)
   18b4c: ac 00        	addi	a1, sp, 72
   18b4e: 2e f4        	sd	a1, 40(sp)
   18b50: 2a f8        	sd	a0, 48(sp)
   18b52: 28 08        	addi	a0, sp, 24
   18b54: b2 85        	mv	a1, a2
   18b56: 97 f0 ff ff  	auipc	ra, 1048575
   18b5a: e7 80 e0 35  	jalr	862(ra)
   18b5e: 00 00        	unimp

0000000000018b60 <_ZN4core3str5count14do_count_chars17hc330ca425dddf30aE>:
   18b60: 2a 86        	mv	a2, a0
   18b62: 93 07 75 00  	addi	a5, a0, 7
   18b66: e1 9b        	andi	a5, a5, -8
   18b68: b3 88 a7 40  	sub	a7, a5, a0
   18b6c: 63 ef 15 11  	bltu	a1, a7, 0x18c8a <_ZN4core3str5count14do_count_chars17hc330ca425dddf30aE+0x12a>
   18b70: 33 88 15 41  	sub	a6, a1, a7
   18b74: 93 52 38 00  	srli	t0, a6, 3
   18b78: 63 89 02 10  	beqz	t0, 0x18c8a <_ZN4core3str5count14do_count_chars17hc330ca425dddf30aE+0x12a>
   18b7c: 93 75 78 00  	andi	a1, a6, 7
   18b80: 01 45        	li	a0, 0
   18b82: 63 8f c7 00  	beq	a5, a2, 0x18ba0 <_ZN4core3str5count14do_count_chars17hc330ca425dddf30aE+0x40>
   18b86: b3 07 f6 40  	sub	a5, a2, a5
   18b8a: b2 86        	mv	a3, a2
   18b8c: 03 87 06 00  	lb	a4, 0(a3)
   18b90: 13 27 07 fc  	slti	a4, a4, -64
   18b94: 13 47 17 00  	xori	a4, a4, 1
   18b98: 3a 95        	add	a0, a0, a4
   18b9a: 85 07        	addi	a5, a5, 1
   18b9c: 85 06        	addi	a3, a3, 1
   18b9e: fd f7        	bnez	a5, 0x18b8c <_ZN4core3str5count14do_count_chars17hc330ca425dddf30aE+0x2c>
   18ba0: 33 07 16 01  	add	a4, a2, a7
   18ba4: 01 46        	li	a2, 0
   18ba6: 91 cd        	beqz	a1, 0x18bc2 <_ZN4core3str5count14do_count_chars17hc330ca425dddf30aE+0x62>
   18ba8: 93 76 88 ff  	andi	a3, a6, -8
   18bac: ba 96        	add	a3, a3, a4
   18bae: 83 87 06 00  	lb	a5, 0(a3)
   18bb2: 93 a7 07 fc  	slti	a5, a5, -64
   18bb6: 93 c7 17 00  	xori	a5, a5, 1
   18bba: 3e 96        	add	a2, a2, a5
   18bbc: fd 15        	addi	a1, a1, -1
   18bbe: 85 06        	addi	a3, a3, 1
   18bc0: fd f5        	bnez	a1, 0x18bae <_ZN4core3str5count14do_count_chars17hc330ca425dddf30aE+0x4e>
   18bc2: b7 05 01 01  	lui	a1, 4112
   18bc6: 9b 85 15 10  	addiw	a1, a1, 257
   18bca: 93 96 05 02  	slli	a3, a1, 32
   18bce: b3 8e d5 00  	add	t4, a1, a3
   18bd2: b7 06 ff 00  	lui	a3, 4080
   18bd6: 9b 88 f6 0f  	addiw	a7, a3, 255
   18bda: 93 96 08 02  	slli	a3, a7, 32
   18bde: b6 98        	add	a7, a7, a3
   18be0: c1 66        	lui	a3, 16
   18be2: 85 26        	addiw	a3, a3, 1
   18be4: 13 98 06 02  	slli	a6, a3, 32
   18be8: 36 98        	add	a6, a6, a3
   18bea: 32 95        	add	a0, a0, a2
   18bec: 1d a0        	j	0x18c12 <_ZN4core3str5count14do_count_chars17hc330ca425dddf30aE+0xb2>
   18bee: 13 97 33 00  	slli	a4, t2, 3
   18bf2: 1a 97        	add	a4, a4, t1
   18bf4: b3 02 7e 40  	sub	t0, t3, t2
   18bf8: 93 f5 33 00  	andi	a1, t2, 3
   18bfc: b3 76 16 01  	and	a3, a2, a7
   18c00: 21 82        	srli	a2, a2, 8
   18c02: 33 76 16 01  	and	a2, a2, a7
   18c06: 36 96        	add	a2, a2, a3
   18c08: 33 06 06 03  	mul	a2, a2, a6
   18c0c: 41 92        	srli	a2, a2, 48
   18c0e: 32 95        	add	a0, a0, a2
   18c10: d1 e9        	bnez	a1, 0x18ca4 <_ZN4core3str5count14do_count_chars17hc330ca425dddf30aE+0x144>
   18c12: 63 88 02 08  	beqz	t0, 0x18ca2 <_ZN4core3str5count14do_count_chars17hc330ca425dddf30aE+0x142>
   18c16: 16 8e        	mv	t3, t0
   18c18: 3a 83        	mv	t1, a4
   18c1a: 13 06 00 0c  	li	a2, 192
   18c1e: 96 83        	mv	t2, t0
   18c20: 63 e4 c2 00  	bltu	t0, a2, 0x18c28 <_ZN4core3str5count14do_count_chars17hc330ca425dddf30aE+0xc8>
   18c24: 93 03 00 0c  	li	t2, 192
   18c28: 01 46        	li	a2, 0
   18c2a: 93 d6 23 00  	srli	a3, t2, 2
   18c2e: e1 d2        	beqz	a3, 0x18bee <_ZN4core3str5count14do_count_chars17hc330ca425dddf30aE+0x8e>
   18c30: 96 06        	slli	a3, a3, 5
   18c32: b3 02 d3 00  	add	t0, t1, a3
   18c36: 9a 86        	mv	a3, t1
   18c38: 9c 62        	ld	a5, 0(a3)
   18c3a: 13 c7 f7 ff  	not	a4, a5
   18c3e: 1d 83        	srli	a4, a4, 7
   18c40: 99 83        	srli	a5, a5, 6
   18c42: 8c 66        	ld	a1, 8(a3)
   18c44: 5d 8f        	or	a4, a4, a5
   18c46: 33 77 d7 01  	and	a4, a4, t4
   18c4a: 3a 96        	add	a2, a2, a4
   18c4c: 13 c7 f5 ff  	not	a4, a1
   18c50: 1d 83        	srli	a4, a4, 7
   18c52: 9c 6a        	ld	a5, 16(a3)
   18c54: 99 81        	srli	a1, a1, 6
   18c56: d9 8d        	or	a1, a1, a4
   18c58: b3 f5 d5 01  	and	a1, a1, t4
   18c5c: 13 c7 f7 ff  	not	a4, a5
   18c60: 1d 83        	srli	a4, a4, 7
   18c62: 99 83        	srli	a5, a5, 6
   18c64: 5d 8f        	or	a4, a4, a5
   18c66: 9c 6e        	ld	a5, 24(a3)
   18c68: 33 77 d7 01  	and	a4, a4, t4
   18c6c: ba 95        	add	a1, a1, a4
   18c6e: b2 95        	add	a1, a1, a2
   18c70: 13 c6 f7 ff  	not	a2, a5
   18c74: 1d 82        	srli	a2, a2, 7
   18c76: 99 83        	srli	a5, a5, 6
   18c78: 5d 8e        	or	a2, a2, a5
   18c7a: 33 76 d6 01  	and	a2, a2, t4
   18c7e: 93 86 06 02  	addi	a3, a3, 32
   18c82: 2e 96        	add	a2, a2, a1
   18c84: e3 9a 56 fa  	bne	a3, t0, 0x18c38 <_ZN4core3str5count14do_count_chars17hc330ca425dddf30aE+0xd8>
   18c88: 9d b7        	j	0x18bee <_ZN4core3str5count14do_count_chars17hc330ca425dddf30aE+0x8e>
   18c8a: 01 45        	li	a0, 0
   18c8c: 99 c9        	beqz	a1, 0x18ca2 <_ZN4core3str5count14do_count_chars17hc330ca425dddf30aE+0x142>
   18c8e: 83 06 06 00  	lb	a3, 0(a2)
   18c92: 93 a6 06 fc  	slti	a3, a3, -64
   18c96: 93 c6 16 00  	xori	a3, a3, 1
   18c9a: 36 95        	add	a0, a0, a3
   18c9c: fd 15        	addi	a1, a1, -1
   18c9e: 05 06        	addi	a2, a2, 1
   18ca0: fd f5        	bnez	a1, 0x18c8e <_ZN4core3str5count14do_count_chars17hc330ca425dddf30aE+0x12e>
   18ca2: 82 80        	ret
   18ca4: 01 46        	li	a2, 0
   18ca6: 93 f5 c3 0f  	andi	a1, t2, 252
   18caa: 8e 05        	slli	a1, a1, 3
   18cac: 2e 93        	add	t1, t1, a1
   18cae: 93 35 0e 0c  	sltiu	a1, t3, 192
   18cb2: bb 05 b0 40  	negw	a1, a1
   18cb6: b3 75 be 00  	and	a1, t3, a1
   18cba: 8d 89        	andi	a1, a1, 3
   18cbc: 93 96 35 00  	slli	a3, a1, 3
   18cc0: 83 35 03 00  	ld	a1, 0(t1)
   18cc4: 21 03        	addi	t1, t1, 8
   18cc6: 13 c7 f5 ff  	not	a4, a1
   18cca: 1d 83        	srli	a4, a4, 7
   18ccc: 99 81        	srli	a1, a1, 6
   18cce: d9 8d        	or	a1, a1, a4
   18cd0: b3 f5 d5 01  	and	a1, a1, t4
   18cd4: e1 16        	addi	a3, a3, -8
   18cd6: 2e 96        	add	a2, a2, a1
   18cd8: e5 f6        	bnez	a3, 0x18cc0 <_ZN4core3str5count14do_count_chars17hc330ca425dddf30aE+0x160>
   18cda: b3 75 16 01  	and	a1, a2, a7
   18cde: 21 82        	srli	a2, a2, 8
   18ce0: 33 76 16 01  	and	a2, a2, a7
   18ce4: b2 95        	add	a1, a1, a2
   18ce6: b3 85 05 03  	mul	a1, a1, a6
   18cea: c1 91        	srli	a1, a1, 48
   18cec: 2e 95        	add	a0, a0, a1
   18cee: 82 80        	ret

0000000000018cf0 <_ZN4core3fmt3num53_$LT$impl$u20$core..fmt..UpperHex$u20$for$u20$u32$GT$3fmt17he7afafb4fe702ccdE>:
   18cf0: 75 71        	addi	sp, sp, -144
   18cf2: 06 e5        	sd	ra, 136(sp)
   18cf4: 08 41        	lw	a0, 0(a0)
   18cf6: 2e 88        	mv	a6, a1
   18cf8: 81 47        	li	a5, 0
   18cfa: 30 01        	addi	a2, sp, 136
   18cfc: a9 48        	li	a7, 10
   18cfe: 19 a8        	j	0x18d14 <_ZN4core3fmt3num53_$LT$impl$u20$core..fmt..UpperHex$u20$for$u20$u32$GT$3fmt17he7afafb4fe702ccdE+0x24>
   18d00: 13 07 f6 ff  	addi	a4, a2, -1
   18d04: 1b 55 45 00  	srliw	a0, a0, 4
   18d08: b6 95        	add	a1, a1, a3
   18d0a: a3 0f b6 fe  	sb	a1, -1(a2)
   18d0e: 85 07        	addi	a5, a5, 1
   18d10: 3a 86        	mv	a2, a4
   18d12: 11 c9        	beqz	a0, 0x18d26 <_ZN4core3fmt3num53_$LT$impl$u20$core..fmt..UpperHex$u20$for$u20$u32$GT$3fmt17he7afafb4fe702ccdE+0x36>
   18d14: 93 76 f5 00  	andi	a3, a0, 15
   18d18: 93 05 00 03  	li	a1, 48
   18d1c: e3 e2 16 ff  	bltu	a3, a7, 0x18d00 <_ZN4core3fmt3num53_$LT$impl$u20$core..fmt..UpperHex$u20$for$u20$u32$GT$3fmt17he7afafb4fe702ccdE+0x10>
   18d20: 93 05 70 03  	li	a1, 55
   18d24: f1 bf        	j	0x18d00 <_ZN4core3fmt3num53_$LT$impl$u20$core..fmt..UpperHex$u20$for$u20$u32$GT$3fmt17he7afafb4fe702ccdE+0x10>
   18d26: 93 05 00 08  	li	a1, 128
   18d2a: 33 85 f5 40  	sub	a0, a1, a5
   18d2e: 63 e0 a5 02  	bltu	a1, a0, 0x18d4e <.Lpcrel_hi965>

0000000000018d32 <.Lpcrel_hi966>:
   18d32: 17 95 ff ff  	auipc	a0, 1048569
   18d36: 13 06 e5 29  	addi	a2, a0, 670
   18d3a: 85 45        	li	a1, 1
   18d3c: 89 46        	li	a3, 2
   18d3e: 42 85        	mv	a0, a6
   18d40: 97 00 00 00  	auipc	ra, 0
   18d44: e7 80 60 81  	jalr	-2026(ra)
   18d48: aa 60        	ld	ra, 136(sp)
   18d4a: 49 61        	addi	sp, sp, 144
   18d4c: 82 80        	ret

0000000000018d4e <.Lpcrel_hi965>:
   18d4e: 97 95 ff ff  	auipc	a1, 1048569
   18d52: 13 86 a5 26  	addi	a2, a1, 618
   18d56: 93 05 00 08  	li	a1, 128
   18d5a: 97 00 00 00  	auipc	ra, 0
   18d5e: e7 80 60 d4  	jalr	-698(ra)
   18d62: 00 00        	unimp

0000000000018d64 <_ZN4core3fmt3num55_$LT$impl$u20$core..fmt..LowerHex$u20$for$u20$usize$GT$3fmt17h2032ad0472dde5b9E>:
   18d64: 75 71        	addi	sp, sp, -144
   18d66: 06 e5        	sd	ra, 136(sp)
   18d68: 08 61        	ld	a0, 0(a0)
   18d6a: 2e 88        	mv	a6, a1
   18d6c: 81 47        	li	a5, 0
   18d6e: 30 01        	addi	a2, sp, 136
   18d70: a9 48        	li	a7, 10
   18d72: 11 a8        	j	0x18d86 <_ZN4core3fmt3num55_$LT$impl$u20$core..fmt..LowerHex$u20$for$u20$usize$GT$3fmt17h2032ad0472dde5b9E+0x22>
   18d74: 13 07 f6 ff  	addi	a4, a2, -1
   18d78: 11 81        	srli	a0, a0, 4
   18d7a: b6 95        	add	a1, a1, a3
   18d7c: a3 0f b6 fe  	sb	a1, -1(a2)
   18d80: 85 07        	addi	a5, a5, 1
   18d82: 3a 86        	mv	a2, a4
   18d84: 11 c9        	beqz	a0, 0x18d98 <_ZN4core3fmt3num55_$LT$impl$u20$core..fmt..LowerHex$u20$for$u20$usize$GT$3fmt17h2032ad0472dde5b9E+0x34>
   18d86: 93 76 f5 00  	andi	a3, a0, 15
   18d8a: 93 05 00 03  	li	a1, 48
   18d8e: e3 e3 16 ff  	bltu	a3, a7, 0x18d74 <_ZN4core3fmt3num55_$LT$impl$u20$core..fmt..LowerHex$u20$for$u20$usize$GT$3fmt17h2032ad0472dde5b9E+0x10>
   18d92: 93 05 70 05  	li	a1, 87
   18d96: f9 bf        	j	0x18d74 <_ZN4core3fmt3num55_$LT$impl$u20$core..fmt..LowerHex$u20$for$u20$usize$GT$3fmt17h2032ad0472dde5b9E+0x10>
   18d98: 93 05 00 08  	li	a1, 128
   18d9c: 33 85 f5 40  	sub	a0, a1, a5
   18da0: 63 e0 a5 02  	bltu	a1, a0, 0x18dc0 <.Lpcrel_hi971>

0000000000018da4 <.Lpcrel_hi972>:
   18da4: 17 95 ff ff  	auipc	a0, 1048569
   18da8: 13 06 c5 22  	addi	a2, a0, 556
   18dac: 85 45        	li	a1, 1
   18dae: 89 46        	li	a3, 2
   18db0: 42 85        	mv	a0, a6
   18db2: 97 f0 ff ff  	auipc	ra, 1048575
   18db6: e7 80 40 7a  	jalr	1956(ra)
   18dba: aa 60        	ld	ra, 136(sp)
   18dbc: 49 61        	addi	sp, sp, 144
   18dbe: 82 80        	ret

0000000000018dc0 <.Lpcrel_hi971>:
   18dc0: 97 95 ff ff  	auipc	a1, 1048569
   18dc4: 13 86 85 1f  	addi	a2, a1, 504
   18dc8: 93 05 00 08  	li	a1, 128
   18dcc: 97 00 00 00  	auipc	ra, 0
   18dd0: e7 80 40 cd  	jalr	-812(ra)
   18dd4: 00 00        	unimp

0000000000018dd6 <_ZN4core3fmt3num55_$LT$impl$u20$core..fmt..UpperHex$u20$for$u20$usize$GT$3fmt17h9d155de6497d3461E>:
   18dd6: 75 71        	addi	sp, sp, -144
   18dd8: 06 e5        	sd	ra, 136(sp)
   18dda: 08 61        	ld	a0, 0(a0)
   18ddc: 2e 88        	mv	a6, a1
   18dde: 81 47        	li	a5, 0
   18de0: 30 01        	addi	a2, sp, 136
   18de2: a9 48        	li	a7, 10
   18de4: 11 a8        	j	0x18df8 <_ZN4core3fmt3num55_$LT$impl$u20$core..fmt..UpperHex$u20$for$u20$usize$GT$3fmt17h9d155de6497d3461E+0x22>
   18de6: 13 07 f6 ff  	addi	a4, a2, -1
   18dea: 11 81        	srli	a0, a0, 4
   18dec: b6 95        	add	a1, a1, a3
   18dee: a3 0f b6 fe  	sb	a1, -1(a2)
   18df2: 85 07        	addi	a5, a5, 1
   18df4: 3a 86        	mv	a2, a4
   18df6: 11 c9        	beqz	a0, 0x18e0a <_ZN4core3fmt3num55_$LT$impl$u20$core..fmt..UpperHex$u20$for$u20$usize$GT$3fmt17h9d155de6497d3461E+0x34>
   18df8: 93 76 f5 00  	andi	a3, a0, 15
   18dfc: 93 05 00 03  	li	a1, 48
   18e00: e3 e3 16 ff  	bltu	a3, a7, 0x18de6 <_ZN4core3fmt3num55_$LT$impl$u20$core..fmt..UpperHex$u20$for$u20$usize$GT$3fmt17h9d155de6497d3461E+0x10>
   18e04: 93 05 70 03  	li	a1, 55
   18e08: f9 bf        	j	0x18de6 <_ZN4core3fmt3num55_$LT$impl$u20$core..fmt..UpperHex$u20$for$u20$usize$GT$3fmt17h9d155de6497d3461E+0x10>
   18e0a: 93 05 00 08  	li	a1, 128
   18e0e: 33 85 f5 40  	sub	a0, a1, a5
   18e12: 63 e0 a5 02  	bltu	a1, a0, 0x18e32 <.Lpcrel_hi973>

0000000000018e16 <.Lpcrel_hi974>:
   18e16: 17 95 ff ff  	auipc	a0, 1048569
   18e1a: 13 06 a5 1b  	addi	a2, a0, 442
   18e1e: 85 45        	li	a1, 1
   18e20: 89 46        	li	a3, 2
   18e22: 42 85        	mv	a0, a6
   18e24: 97 f0 ff ff  	auipc	ra, 1048575
   18e28: e7 80 20 73  	jalr	1842(ra)
   18e2c: aa 60        	ld	ra, 136(sp)
   18e2e: 49 61        	addi	sp, sp, 144
   18e30: 82 80        	ret

0000000000018e32 <.Lpcrel_hi973>:
   18e32: 97 95 ff ff  	auipc	a1, 1048569
   18e36: 13 86 65 18  	addi	a2, a1, 390
   18e3a: 93 05 00 08  	li	a1, 128
   18e3e: 97 00 00 00  	auipc	ra, 0
   18e42: e7 80 20 c6  	jalr	-926(ra)
   18e46: 00 00        	unimp

0000000000018e48 <_ZN4core3fmt3num3imp7fmt_u6417hf22ff8cef6db184bE>:
   18e48: 39 71        	addi	sp, sp, -64
   18e4a: 06 fc        	sd	ra, 56(sp)
   18e4c: 22 f8        	sd	s0, 48(sp)
   18e4e: 26 f4        	sd	s1, 40(sp)
   18e50: 32 88        	mv	a6, a2
   18e52: 93 56 45 00  	srli	a3, a0, 4
   18e56: 13 07 70 02  	li	a4, 39
   18e5a: 93 07 10 27  	li	a5, 625

0000000000018e5e <.Lpcrel_hi995>:
   18e5e: 17 96 ff ff  	auipc	a2, 1048569
   18e62: 13 0f 46 17  	addi	t5, a2, 372
   18e66: 63 f3 f6 02  	bgeu	a3, a5, 0x18e8c <.Lpcrel_hi995+0x2e>
   18e6a: 93 06 30 06  	li	a3, 99
   18e6e: 63 ea a6 0a  	bltu	a3, a0, 0x18f22 <.Lpcrel_hi996+0x8c>
   18e72: 29 46        	li	a2, 10
   18e74: 63 78 c5 0e  	bgeu	a0, a2, 0x18f64 <.Lpcrel_hi996+0xce>
   18e78: 93 06 f7 ff  	addi	a3, a4, -1
   18e7c: 13 06 11 00  	addi	a2, sp, 1
   18e80: 36 96        	add	a2, a2, a3
   18e82: 1b 05 05 03  	addiw	a0, a0, 48
   18e86: 23 00 a6 00  	sb	a0, 0(a2)
   18e8a: e5 a8        	j	0x18f82 <.Lpcrel_hi996+0xec>
   18e8c: 01 47        	li	a4, 0
   18e8e: 93 08 41 02  	addi	a7, sp, 36
   18e92: 93 02 61 02  	addi	t0, sp, 38

0000000000018e96 <.Lpcrel_hi996>:
   18e96: 97 16 00 00  	auipc	a3, 1
   18e9a: 03 b3 26 3a  	ld	t1, 930(a3)
   18e9e: 89 66        	lui	a3, 2
   18ea0: 1b 8e 06 71  	addiw	t3, a3, 1808
   18ea4: 85 66        	lui	a3, 1
   18ea6: 9b 8e b6 47  	addiw	t4, a3, 1147
   18eaa: 93 03 40 06  	li	t2, 100
   18eae: b7 e6 f5 05  	lui	a3, 24414
   18eb2: 9b 8f f6 0f  	addiw	t6, a3, 255
   18eb6: aa 86        	mv	a3, a0
   18eb8: 33 35 65 02  	mulhu	a0, a0, t1
   18ebc: 2d 81        	srli	a0, a0, 11
   18ebe: 33 06 c5 03  	mul	a2, a0, t3
   18ec2: bb 87 c6 40  	subw	a5, a3, a2
   18ec6: 13 96 07 03  	slli	a2, a5, 48
   18eca: 49 92        	srli	a2, a2, 50
   18ecc: 33 06 d6 03  	mul	a2, a2, t4
   18ed0: 13 54 16 01  	srli	s0, a2, 17
   18ed4: 41 82        	srli	a2, a2, 16
   18ed6: 13 76 e6 7f  	andi	a2, a2, 2046
   18eda: 33 04 74 02  	mul	s0, s0, t2
   18ede: 81 9f        	subw	a5, a5, s0
   18ee0: c6 17        	slli	a5, a5, 49
   18ee2: 7a 96        	add	a2, a2, t5
   18ee4: 03 44 16 00  	lbu	s0, 1(a2)
   18ee8: c1 93        	srli	a5, a5, 48
   18eea: b3 84 e8 00  	add	s1, a7, a4
   18eee: 03 46 06 00  	lbu	a2, 0(a2)
   18ef2: a3 80 84 00  	sb	s0, 1(s1)
   18ef6: fa 97        	add	a5, a5, t5
   18ef8: 03 c4 17 00  	lbu	s0, 1(a5)
   18efc: 83 c7 07 00  	lbu	a5, 0(a5)
   18f00: 23 80 c4 00  	sb	a2, 0(s1)
   18f04: 33 86 e2 00  	add	a2, t0, a4
   18f08: a3 00 86 00  	sb	s0, 1(a2)
   18f0c: 23 00 f6 00  	sb	a5, 0(a2)
   18f10: 71 17        	addi	a4, a4, -4
   18f12: e3 e2 df fa  	bltu	t6, a3, 0x18eb6 <.Lpcrel_hi996+0x20>
   18f16: 13 07 77 02  	addi	a4, a4, 39
   18f1a: 93 06 30 06  	li	a3, 99
   18f1e: e3 fa a6 f4  	bgeu	a3, a0, 0x18e72 <.Lpcrel_hi995+0x14>
   18f22: 13 16 05 03  	slli	a2, a0, 48
   18f26: 49 92        	srli	a2, a2, 50
   18f28: 85 66        	lui	a3, 1
   18f2a: 9b 86 b6 47  	addiw	a3, a3, 1147
   18f2e: 33 06 d6 02  	mul	a2, a2, a3
   18f32: 45 82        	srli	a2, a2, 17
   18f34: 93 06 40 06  	li	a3, 100
   18f38: b3 06 d6 02  	mul	a3, a2, a3
   18f3c: 15 9d        	subw	a0, a0, a3
   18f3e: 46 15        	slli	a0, a0, 49
   18f40: 41 91        	srli	a0, a0, 48
   18f42: 79 17        	addi	a4, a4, -2
   18f44: 7a 95        	add	a0, a0, t5
   18f46: 83 46 15 00  	lbu	a3, 1(a0)
   18f4a: 03 45 05 00  	lbu	a0, 0(a0)
   18f4e: 93 07 11 00  	addi	a5, sp, 1
   18f52: ba 97        	add	a5, a5, a4
   18f54: a3 80 d7 00  	sb	a3, 1(a5)
   18f58: 23 80 a7 00  	sb	a0, 0(a5)
   18f5c: 32 85        	mv	a0, a2
   18f5e: 29 46        	li	a2, 10
   18f60: e3 6c c5 f0  	bltu	a0, a2, 0x18e78 <.Lpcrel_hi995+0x1a>
   18f64: 06 05        	slli	a0, a0, 1
   18f66: 93 06 e7 ff  	addi	a3, a4, -2
   18f6a: 7a 95        	add	a0, a0, t5
   18f6c: 03 46 15 00  	lbu	a2, 1(a0)
   18f70: 03 45 05 00  	lbu	a0, 0(a0)
   18f74: 13 07 11 00  	addi	a4, sp, 1
   18f78: 36 97        	add	a4, a4, a3
   18f7a: a3 00 c7 00  	sb	a2, 1(a4)
   18f7e: 23 00 a7 00  	sb	a0, 0(a4)
   18f82: 13 07 11 00  	addi	a4, sp, 1
   18f86: 36 97        	add	a4, a4, a3
   18f88: 93 07 70 02  	li	a5, 39
   18f8c: 95 8f        	sub	a5, a5, a3

0000000000018f8e <.Lpcrel_hi997>:
   18f8e: 17 95 ff ff  	auipc	a0, 1048569
   18f92: 13 06 a5 e7  	addi	a2, a0, -390
   18f96: 42 85        	mv	a0, a6
   18f98: 81 46        	li	a3, 0
   18f9a: 97 f0 ff ff  	auipc	ra, 1048575
   18f9e: e7 80 c0 5b  	jalr	1468(ra)
   18fa2: e2 70        	ld	ra, 56(sp)
   18fa4: 42 74        	ld	s0, 48(sp)
   18fa6: a2 74        	ld	s1, 40(sp)
   18fa8: 21 61        	addi	sp, sp, 64
   18faa: 82 80        	ret

0000000000018fac <_ZN4core3fmt3num3imp51_$LT$impl$u20$core..fmt..Display$u20$for$u20$u8$GT$3fmt17h6b3a01487c3e8b00E>:
   18fac: 03 45 05 00  	lbu	a0, 0(a0)
   18fb0: 2e 86        	mv	a2, a1
   18fb2: 85 45        	li	a1, 1
   18fb4: 17 03 00 00  	auipc	t1, 0
   18fb8: 67 00 43 e9  	jr	-364(t1)

0000000000018fbc <_ZN4core3fmt3num3imp52_$LT$impl$u20$core..fmt..Display$u20$for$u20$u32$GT$3fmt17hd0d4aa0985a8bcc9E>:
   18fbc: 03 65 05 00  	lwu	a0, 0(a0)
   18fc0: 2e 86        	mv	a2, a1
   18fc2: 85 45        	li	a1, 1
   18fc4: 17 03 00 00  	auipc	t1, 0
   18fc8: 67 00 43 e8  	jr	-380(t1)

0000000000018fcc <_ZN4core3fmt3num3imp54_$LT$impl$u20$core..fmt..Display$u20$for$u20$usize$GT$3fmt17hb2ed73e117f035a5E>:
   18fcc: 08 61        	ld	a0, 0(a0)
   18fce: 2e 86        	mv	a2, a1
   18fd0: 85 45        	li	a1, 1
   18fd2: 17 03 00 00  	auipc	t1, 0
   18fd6: 67 00 63 e7  	jr	-394(t1)

0000000000018fda <_ZN42_$LT$$RF$T$u20$as$u20$core..fmt..Debug$GT$3fmt17h2fe5f24cf94dcea1E>:
   18fda: 10 65        	ld	a2, 8(a0)
   18fdc: 08 61        	ld	a0, 0(a0)
   18fde: 1c 6e        	ld	a5, 24(a2)
   18fe0: 82 87        	jr	a5

0000000000018fe2 <_ZN44_$LT$$RF$T$u20$as$u20$core..fmt..Display$GT$3fmt17h868378e6ae1cb26aE>:
   18fe2: 14 61        	ld	a3, 0(a0)
   18fe4: 10 65        	ld	a2, 8(a0)
   18fe6: 2e 85        	mv	a0, a1
   18fe8: b6 85        	mv	a1, a3
   18fea: 17 f3 ff ff  	auipc	t1, 1048575
   18fee: 67 00 e3 7c  	jr	1998(t1)

0000000000018ff2 <memcpy>:
   18ff2: 17 03 00 00  	auipc	t1, 0
   18ff6: 67 00 83 00  	jr	8(t1)

0000000000018ffa <_ZN17compiler_builtins3mem6memcpy17h0869bdce5a750ccbE>:
   18ffa: c1 46        	li	a3, 16
   18ffc: 63 6b d6 06  	bltu	a2, a3, 0x19072 <_ZN17compiler_builtins3mem6memcpy17h0869bdce5a750ccbE+0x78>
   19000: bb 06 a0 40  	negw	a3, a0
   19004: 13 f8 76 00  	andi	a6, a3, 7
   19008: b3 03 05 01  	add	t2, a0, a6
   1900c: 63 0c 08 00  	beqz	a6, 0x19024 <_ZN17compiler_builtins3mem6memcpy17h0869bdce5a750ccbE+0x2a>
   19010: aa 87        	mv	a5, a0
   19012: ae 86        	mv	a3, a1
   19014: 03 c7 06 00  	lbu	a4, 0(a3)
   19018: 23 80 e7 00  	sb	a4, 0(a5)
   1901c: 85 07        	addi	a5, a5, 1
   1901e: 85 06        	addi	a3, a3, 1
   19020: e3 ea 77 fe  	bltu	a5, t2, 0x19014 <_ZN17compiler_builtins3mem6memcpy17h0869bdce5a750ccbE+0x1a>
   19024: b3 88 05 01  	add	a7, a1, a6
   19028: 33 08 06 41  	sub	a6, a2, a6
   1902c: 93 72 88 ff  	andi	t0, a6, -8
   19030: 93 f5 78 00  	andi	a1, a7, 7
   19034: b3 86 53 00  	add	a3, t2, t0
   19038: a1 c1        	beqz	a1, 0x19078 <_ZN17compiler_builtins3mem6memcpy17h0869bdce5a750ccbE+0x7e>
   1903a: 63 59 50 04  	blez	t0, 0x1908c <_ZN17compiler_builtins3mem6memcpy17h0869bdce5a750ccbE+0x92>
   1903e: 93 95 38 00  	slli	a1, a7, 3
   19042: 13 f3 85 03  	andi	t1, a1, 56
   19046: 93 f7 88 ff  	andi	a5, a7, -8
   1904a: 90 63        	ld	a2, 0(a5)
   1904c: bb 05 b0 40  	negw	a1, a1
   19050: 13 fe 85 03  	andi	t3, a1, 56
   19054: a1 07        	addi	a5, a5, 8
   19056: 98 63        	ld	a4, 0(a5)
   19058: 33 56 66 00  	srl	a2, a2, t1
   1905c: b3 15 c7 01  	sll	a1, a4, t3
   19060: d1 8d        	or	a1, a1, a2
   19062: 23 b0 b3 00  	sd	a1, 0(t2)
   19066: a1 03        	addi	t2, t2, 8
   19068: a1 07        	addi	a5, a5, 8
   1906a: 3a 86        	mv	a2, a4
   1906c: e3 e5 d3 fe  	bltu	t2, a3, 0x19056 <_ZN17compiler_builtins3mem6memcpy17h0869bdce5a750ccbE+0x5c>
   19070: 31 a8        	j	0x1908c <_ZN17compiler_builtins3mem6memcpy17h0869bdce5a750ccbE+0x92>
   19072: aa 86        	mv	a3, a0
   19074: 0d e2        	bnez	a2, 0x19096 <_ZN17compiler_builtins3mem6memcpy17h0869bdce5a750ccbE+0x9c>
   19076: 0d a8        	j	0x190a8 <_ZN17compiler_builtins3mem6memcpy17h0869bdce5a750ccbE+0xae>
   19078: 63 5a 50 00  	blez	t0, 0x1908c <_ZN17compiler_builtins3mem6memcpy17h0869bdce5a750ccbE+0x92>
   1907c: c6 85        	mv	a1, a7
   1907e: 90 61        	ld	a2, 0(a1)
   19080: 23 b0 c3 00  	sd	a2, 0(t2)
   19084: a1 03        	addi	t2, t2, 8
   19086: a1 05        	addi	a1, a1, 8
   19088: e3 eb d3 fe  	bltu	t2, a3, 0x1907e <_ZN17compiler_builtins3mem6memcpy17h0869bdce5a750ccbE+0x84>
   1908c: b3 85 58 00  	add	a1, a7, t0
   19090: 13 76 78 00  	andi	a2, a6, 7
   19094: 11 ca        	beqz	a2, 0x190a8 <_ZN17compiler_builtins3mem6memcpy17h0869bdce5a750ccbE+0xae>
   19096: 36 96        	add	a2, a2, a3
   19098: 03 c7 05 00  	lbu	a4, 0(a1)
   1909c: 23 80 e6 00  	sb	a4, 0(a3)
   190a0: 85 06        	addi	a3, a3, 1
   190a2: 85 05        	addi	a1, a1, 1
   190a4: e3 ea c6 fe  	bltu	a3, a2, 0x19098 <_ZN17compiler_builtins3mem6memcpy17h0869bdce5a750ccbE+0x9e>
   190a8: 82 80        	ret
